EXPORTS

?$TSS0@?1???4BitStream@RakNet@@AEAAAEAV12@AEBV12@@Z@4HA @1
??$OP_DELETE@D@RakNet@@YAXPEADPEBDI@Z @2
??$OP_DELETE@UBanStruct@RakPeer@RakNet@@@RakNet@@YAXPEAUBanStruct@RakPeer@0@PEBDI@Z @3
??$OP_DELETE@UBufferedGetResponseFromServer@CloudServer@RakNet@@@RakNet@@YAXPEAUBufferedGetResponseFromServer@CloudServer@0@PEBDI@Z @4
??$OP_DELETE@UCell@Table@DataStructures@@@RakNet@@YAXPEAUCell@Table@DataStructures@@PEBDI@Z @5
??$OP_DELETE@UCloudData@CloudServer@RakNet@@@RakNet@@YAXPEAUCloudData@CloudServer@0@PEBDI@Z @6
??$OP_DELETE@UCloudDataList@CloudServer@RakNet@@@RakNet@@YAXPEAUCloudDataList@CloudServer@0@PEBDI@Z @7
??$OP_DELETE@UCloudQueryRow@RakNet@@@RakNet@@YAXPEAUCloudQueryRow@0@PEBDI@Z @8
??$OP_DELETE@UConnectionAttempt@NatPunchthroughServer@RakNet@@@RakNet@@YAXPEAUConnectionAttempt@NatPunchthroughServer@0@PEBDI@Z @9
??$OP_DELETE@UConnnectRequest@Router2@RakNet@@@RakNet@@YAXPEAUConnnectRequest@Router2@0@PEBDI@Z @10
??$OP_DELETE@UFileListReceiver@RakNet@@@RakNet@@YAXPEAUFileListReceiver@0@PEBDI@Z @11
??$OP_DELETE@UFileToPush@FileListTransfer@RakNet@@@RakNet@@YAXPEAUFileToPush@FileListTransfer@0@PEBDI@Z @12
??$OP_DELETE@UFileToPushRecipient@FileListTransfer@RakNet@@@RakNet@@YAXPEAUFileToPushRecipient@FileListTransfer@0@PEBDI@Z @13
??$OP_DELETE@UFilterSet@RakNet@@@RakNet@@YAXPEAUFilterSet@0@PEBDI@Z @14
??$OP_DELETE@UForwardEntry@UDPForwarder@RakNet@@@RakNet@@YAXPEAUForwardEntry@UDPForwarder@0@PEBDI@Z @15
??$OP_DELETE@UForwardingRequest@UDPProxyCoordinator@RakNet@@@RakNet@@YAXPEAUForwardingRequest@UDPProxyCoordinator@0@PEBDI@Z @16
??$OP_DELETE@UGetRequest@CloudServer@RakNet@@@RakNet@@YAXPEAUGetRequest@CloudServer@0@PEBDI@Z @17
??$OP_DELETE@UHuffmanEncodingTreeNode@@@RakNet@@YAXPEAUHuffmanEncodingTreeNode@@PEBDI@Z @18
??$OP_DELETE@UKeySubscriberID@CloudServer@RakNet@@@RakNet@@YAXPEAUKeySubscriberID@CloudServer@0@PEBDI@Z @19
??$OP_DELETE@ULastSerializationResult@RakNet@@@RakNet@@YAXPEAULastSerializationResult@0@PEBDI@Z @20
??$OP_DELETE@ULastSerializationResultBS@RakNet@@@RakNet@@YAXPEAULastSerializationResultBS@0@PEBDI@Z @21
??$OP_DELETE@ULocalCallback@RPC4@RakNet@@@RakNet@@YAXPEAULocalCallback@RPC4@0@PEBDI@Z @22
??$OP_DELETE@ULocalSlot@RPC4@RakNet@@@RakNet@@YAXPEAULocalSlot@RPC4@0@PEBDI@Z @23
??$OP_DELETE@UNode@?$Hash@UAddressOrGUID@RakNet@@UFilteredSystem@2@$0IAA@$1?ToInteger@12@SAKAEBU12@@Z@DataStructures@@@RakNet@@YAXPEAUNode@?$Hash@UAddressOrGUID@RakNet@@UFilteredSystem@2@$0IAA@$1?ToInteger@12@SAKAEBU12@@Z@DataStructures@@PEBDI@Z @24
??$OP_DELETE@UNode@?$Hash@URakNetGUID@RakNet@@PEAURemoteCloudClient@CloudServer@2@$0IAA@$1?ToUint32@12@SAKAEBU12@@Z@DataStructures@@@RakNet@@YAXPEAUNode@?$Hash@URakNetGUID@RakNet@@PEAURemoteCloudClient@CloudServer@2@$0IAA@$1?ToUint32@12@SAKAEBU12@@Z@DataStructures@@PEBDI@Z @25
??$OP_DELETE@UNode@?$Hash@URakNetGUID@RakNet@@PEAUStrAndGuidAndRoom@RelayPlugin@2@$0BPKA@$1?ToUint32@12@SAKAEBU12@@Z@DataStructures@@@RakNet@@YAXPEAUNode@?$Hash@URakNetGUID@RakNet@@PEAUStrAndGuidAndRoom@RelayPlugin@2@$0BPKA@$1?ToUint32@12@SAKAEBU12@@Z@DataStructures@@PEBDI@Z @26
??$OP_DELETE@UNode@?$Hash@USystemAddress@RakNet@@UClientState@@$0BAA@$1?SystemAddressHash@@YAKAEBU12@@Z@DataStructures@@@RakNet@@YAXPEAUNode@?$Hash@USystemAddress@RakNet@@UClientState@@$0BAA@$1?SystemAddressHash@@YAKAEBU12@@Z@DataStructures@@PEBDI@Z @27
??$OP_DELETE@UNode@?$Hash@VRakString@RakNet@@P6AXPEAVBitStream@2@0PEAUPacket@2@@Z$0EA@$1?ToInteger@12@SAKAEBV12@@Z@DataStructures@@@RakNet@@YAXPEAUNode@?$Hash@VRakString@RakNet@@P6AXPEAVBitStream@2@0PEAUPacket@2@@Z$0EA@$1?ToInteger@12@SAKAEBV12@@Z@DataStructures@@PEBDI@Z @28
??$OP_DELETE@UNode@?$Hash@VRakString@RakNet@@P6AXPEAVBitStream@2@PEAUPacket@2@@Z$0EA@$1?ToInteger@12@SAKAEBV12@@Z@DataStructures@@@RakNet@@YAXPEAUNode@?$Hash@VRakString@RakNet@@P6AXPEAVBitStream@2@PEAUPacket@2@@Z$0EA@$1?ToInteger@12@SAKAEBV12@@Z@DataStructures@@PEBDI@Z @29
??$OP_DELETE@UNode@?$Hash@VRakString@RakNet@@PEAULocalSlot@RPC4@2@$0BAA@$1?ToInteger@12@SAKAEBV12@@Z@DataStructures@@@RakNet@@YAXPEAUNode@?$Hash@VRakString@RakNet@@PEAULocalSlot@RPC4@2@$0BAA@$1?ToInteger@12@SAKAEBV12@@Z@DataStructures@@PEBDI@Z @30
??$OP_DELETE@UNode@?$Hash@VRakString@RakNet@@PEAUStrAndGuidAndRoom@RelayPlugin@2@$0BPKA@$1?ToInteger@12@SAKAEBV12@@Z@DataStructures@@@RakNet@@YAXPEAUNode@?$Hash@VRakString@RakNet@@PEAUStrAndGuidAndRoom@RelayPlugin@2@$0BPKA@$1?ToInteger@12@SAKAEBV12@@Z@DataStructures@@PEBDI@Z @31
??$OP_DELETE@UNode@?$Hash@VRakString@RakNet@@PEAUTimeAndValueQueue@StatisticsHistory@2@$0CA@$1?ToInteger@12@SAKAEBV12@@Z@DataStructures@@@RakNet@@YAXPEAUNode@?$Hash@VRakString@RakNet@@PEAUTimeAndValueQueue@StatisticsHistory@2@$0CA@$1?ToInteger@12@SAKAEBV12@@Z@DataStructures@@PEBDI@Z @32
??$OP_DELETE@UNode@?$Hash@VRakString@RakNet@@V12@$0BA@$1?ToInteger@12@SAKAEBV12@@Z@DataStructures@@@RakNet@@YAXPEAUNode@?$Hash@VRakString@RakNet@@V12@$0BA@$1?ToInteger@12@SAKAEBV12@@Z@DataStructures@@PEBDI@Z @33
??$OP_DELETE@UNode@?$Hash@_KPEAVTM_Team@RakNet@@$0BAA@$1?ToUint32@12@SAKAEB_K@Z@DataStructures@@@RakNet@@YAXPEAUNode@?$Hash@_KPEAVTM_Team@RakNet@@$0BAA@$1?ToUint32@12@SAKAEB_K@Z@DataStructures@@PEBDI@Z @34
??$OP_DELETE@UNode@?$Hash@_KPEAVTM_TeamMember@RakNet@@$0BAA@$1?ToUint32@12@SAKAEB_K@Z@DataStructures@@@RakNet@@YAXPEAUNode@?$Hash@_KPEAVTM_TeamMember@RakNet@@$0BAA@$1?ToUint32@12@SAKAEB_K@Z@DataStructures@@PEBDI@Z @35
??$OP_DELETE@UNonceAndRemoteSystemRequest@TwoWayAuthentication@RakNet@@@RakNet@@YAXPEAUNonceAndRemoteSystemRequest@TwoWayAuthentication@0@PEBDI@Z @36
??$OP_DELETE@UPacket@RakNet@@@RakNet@@YAXPEAUPacket@0@PEBDI@Z @37
??$OP_DELETE@UPingServerGroup@UDPProxyClient@RakNet@@@RakNet@@YAXPEAUPingServerGroup@UDPProxyClient@0@PEBDI@Z @38
??$OP_DELETE@URM3World@ReplicaManager3@RakNet@@@RakNet@@YAXPEAURM3World@ReplicaManager3@0@PEBDI@Z @39
??$OP_DELETE@URNS2RecvStruct@RakNet@@@RakNet@@YAXPEAURNS2RecvStruct@0@PEBDI@Z @40
??$OP_DELETE@URP_Group@RelayPlugin@RakNet@@@RakNet@@YAXPEAURP_Group@RelayPlugin@0@PEBDI@Z @41
??$OP_DELETE@UReadyEventNode@ReadyEvent@RakNet@@@RakNet@@YAXPEAUReadyEventNode@ReadyEvent@0@PEBDI@Z @42
??$OP_DELETE@URemoteCloudClient@CloudServer@RakNet@@@RakNet@@YAXPEAURemoteCloudClient@CloudServer@0@PEBDI@Z @43
??$OP_DELETE@URemoteServer@CloudServer@RakNet@@@RakNet@@YAXPEAURemoteServer@CloudServer@0@PEBDI@Z @44
??$OP_DELETE@URemoteSystem@ConnectionGraph2@RakNet@@@RakNet@@YAXPEAURemoteSystem@ConnectionGraph2@0@PEBDI@Z @45
??$OP_DELETE@URequest@HTTPConnection2@RakNet@@@RakNet@@YAXPEAURequest@HTTPConnection2@0@PEBDI@Z @46
??$OP_DELETE@URequestedConnectionStruct@RakPeer@RakNet@@@RakNet@@YAXPEAURequestedConnectionStruct@RakPeer@0@PEBDI@Z @47
??$OP_DELETE@URow@Table@DataStructures@@@RakNet@@YAXPEAURow@Table@DataStructures@@PEBDI@Z @48
??$OP_DELETE@USplitPacketChannel@RakNet@@@RakNet@@YAXPEAUSplitPacketChannel@0@PEBDI@Z @49
??$OP_DELETE@UStrAndGuidAndRoom@RelayPlugin@RakNet@@@RakNet@@YAXPEAUStrAndGuidAndRoom@RelayPlugin@0@PEBDI@Z @50
??$OP_DELETE@UTelnetClient@TelnetTransport@RakNet@@@RakNet@@YAXPEAUTelnetClient@TelnetTransport@0@PEBDI@Z @51
??$OP_DELETE@UThisPtrPlusSysAddr@TCPInterface@RakNet@@@RakNet@@YAXPEAUThisPtrPlusSysAddr@TCPInterface@0@PEBDI@Z @52
??$OP_DELETE@UTimeAndValueQueue@StatisticsHistory@RakNet@@@RakNet@@YAXPEAUTimeAndValueQueue@StatisticsHistory@0@PEBDI@Z @53
??$OP_DELETE@UTrackedObject@StatisticsHistory@RakNet@@@RakNet@@YAXPEAUTrackedObject@StatisticsHistory@0@PEBDI@Z @54
??$OP_DELETE@UUser@NatPunchthroughServer@RakNet@@@RakNet@@YAXPEAUUser@NatPunchthroughServer@0@PEBDI@Z @55
??$OP_DELETE@UVerifiedJoinInProgress@FullyConnectedMesh2@RakNet@@@RakNet@@YAXPEAUVerifiedJoinInProgress@FullyConnectedMesh2@0@PEBDI@Z @56
??$OP_DELETE@UVoiceChannel@RakNet@@@RakNet@@YAXPEAUVoiceChannel@0@PEBDI@Z @57
??$OP_DELETE@Unode@?$CircularLinkedList@PEAUHuffmanEncodingTreeNode@@@DataStructures@@@RakNet@@YAXPEAUnode@?$CircularLinkedList@PEAUHuffmanEncodingTreeNode@@@DataStructures@@PEBDI@Z @58
??$OP_DELETE@VBitStream@RakNet@@@RakNet@@YAXPEAVBitStream@0@PEBDI@Z @59
??$OP_DELETE@VByteQueue@DataStructures@@@RakNet@@YAXPEAVByteQueue@DataStructures@@PEBDI@Z @60
??$OP_DELETE@VCloudClient@RakNet@@@RakNet@@YAXPEAVCloudClient@0@PEBDI@Z @61
??$OP_DELETE@VConnectionGraph2@RakNet@@@RakNet@@YAXPEAVConnectionGraph2@0@PEBDI@Z @62
??$OP_DELETE@VConsoleServer@RakNet@@@RakNet@@YAXPEAVConsoleServer@0@PEBDI@Z @63
??$OP_DELETE@VDataCompressor@RakNet@@@RakNet@@YAXPEAVDataCompressor@0@PEBDI@Z @64
??$OP_DELETE@VDirectoryDeltaTransfer@RakNet@@@RakNet@@YAXPEAVDirectoryDeltaTransfer@0@PEBDI@Z @65
??$OP_DELETE@VEmailSender@RakNet@@@RakNet@@YAXPEAVEmailSender@0@PEBDI@Z @66
??$OP_DELETE@VFLP_Printf@RakNet@@@RakNet@@YAXPEAVFLP_Printf@0@PEBDI@Z @67
??$OP_DELETE@VFileList@RakNet@@@RakNet@@YAXPEAVFileList@0@PEBDI@Z @68
??$OP_DELETE@VFileListProgress@RakNet@@@RakNet@@YAXPEAVFileListProgress@0@PEBDI@Z @69
??$OP_DELETE@VFileListTransfer@RakNet@@@RakNet@@YAXPEAVFileListTransfer@0@PEBDI@Z @70
??$OP_DELETE@VFileListTransferCBInterface@RakNet@@@RakNet@@YAXPEAVFileListTransferCBInterface@0@PEBDI@Z @71
??$OP_DELETE@VFullyConnectedMesh2@RakNet@@@RakNet@@YAXPEAVFullyConnectedMesh2@0@PEBDI@Z @72
??$OP_DELETE@VHTTPConnection2@RakNet@@@RakNet@@YAXPEAVHTTPConnection2@0@PEBDI@Z @73
??$OP_DELETE@VHTTPConnection@RakNet@@@RakNet@@YAXPEAVHTTPConnection@0@PEBDI@Z @74
??$OP_DELETE@VHuffmanEncodingTree@RakNet@@@RakNet@@YAXPEAVHuffmanEncodingTree@0@PEBDI@Z @75
??$OP_DELETE@VLogCommandParser@RakNet@@@RakNet@@YAXPEAVLogCommandParser@0@PEBDI@Z @76
??$OP_DELETE@VMessageFilter@RakNet@@@RakNet@@YAXPEAVMessageFilter@0@PEBDI@Z @77
??$OP_DELETE@VNatPunchthroughClient@RakNet@@@RakNet@@YAXPEAVNatPunchthroughClient@0@PEBDI@Z @78
??$OP_DELETE@VNatPunchthroughServer@RakNet@@@RakNet@@YAXPEAVNatPunchthroughServer@0@PEBDI@Z @79
??$OP_DELETE@VNatTypeDetectionClient@RakNet@@@RakNet@@YAXPEAVNatTypeDetectionClient@0@PEBDI@Z @80
??$OP_DELETE@VNatTypeDetectionServer@RakNet@@@RakNet@@YAXPEAVNatTypeDetectionServer@0@PEBDI@Z @81
??$OP_DELETE@VNetworkIDManager@RakNet@@@RakNet@@YAXPEAVNetworkIDManager@0@PEBDI@Z @82
??$OP_DELETE@VPacketLogger@RakNet@@@RakNet@@YAXPEAVPacketLogger@0@PEBDI@Z @83
??$OP_DELETE@VPacketizedTCP@RakNet@@@RakNet@@YAXPEAVPacketizedTCP@0@PEBDI@Z @84
??$OP_DELETE@VRPC4@RakNet@@@RakNet@@YAXPEAVRPC4@0@PEBDI@Z @85
??$OP_DELETE@VRakNetCommandParser@RakNet@@@RakNet@@YAXPEAVRakNetCommandParser@0@PEBDI@Z @86
??$OP_DELETE@VRakNetSocket2@RakNet@@@RakNet@@YAXPEAVRakNetSocket2@0@PEBDI@Z @87
??$OP_DELETE@VRakNetTransport2@RakNet@@@RakNet@@YAXPEAVRakNetTransport2@0@PEBDI@Z @88
??$OP_DELETE@VRakPeer@RakNet@@@RakNet@@YAXPEAVRakPeer@0@PEBDI@Z @89
??$OP_DELETE@VReadyEvent@RakNet@@@RakNet@@YAXPEAVReadyEvent@0@PEBDI@Z @90
??$OP_DELETE@VRelayPlugin@RakNet@@@RakNet@@YAXPEAVRelayPlugin@0@PEBDI@Z @91
??$OP_DELETE@VRouter2@RakNet@@@RakNet@@YAXPEAVRouter2@0@PEBDI@Z @92
??$OP_DELETE@VSimpleMutex@RakNet@@@RakNet@@YAXPEAVSimpleMutex@0@PEBDI@Z @93
??$OP_DELETE@VStatisticsHistory@RakNet@@@RakNet@@YAXPEAVStatisticsHistory@0@PEBDI@Z @94
??$OP_DELETE@VStatisticsHistoryPlugin@RakNet@@@RakNet@@YAXPEAVStatisticsHistoryPlugin@0@PEBDI@Z @95
??$OP_DELETE@VStringCompressor@RakNet@@@RakNet@@YAXPEAVStringCompressor@0@PEBDI@Z @96
??$OP_DELETE@VStringTable@RakNet@@@RakNet@@YAXPEAVStringTable@0@PEBDI@Z @97
??$OP_DELETE@VTCPInterface@RakNet@@@RakNet@@YAXPEAVTCPInterface@0@PEBDI@Z @98
??$OP_DELETE@VTM_Team@RakNet@@@RakNet@@YAXPEAVTM_Team@0@PEBDI@Z @99
??$OP_DELETE@VTM_TeamMember@RakNet@@@RakNet@@YAXPEAVTM_TeamMember@0@PEBDI@Z @100
??$OP_DELETE@VTM_World@RakNet@@@RakNet@@YAXPEAVTM_World@0@PEBDI@Z @101
??$OP_DELETE@VTeamBalancer@RakNet@@@RakNet@@YAXPEAVTeamBalancer@0@PEBDI@Z @102
??$OP_DELETE@VTeamManager@RakNet@@@RakNet@@YAXPEAVTeamManager@0@PEBDI@Z @103
??$OP_DELETE@VTelnetTransport@RakNet@@@RakNet@@YAXPEAVTelnetTransport@0@PEBDI@Z @104
??$OP_DELETE@VUDPForwarder@RakNet@@@RakNet@@YAXPEAVUDPForwarder@0@PEBDI@Z @105
??$OP_DELETE@VUDPProxyClient@RakNet@@@RakNet@@YAXPEAVUDPProxyClient@0@PEBDI@Z @106
??$OP_DELETE@VUDPProxyCoordinator@RakNet@@@RakNet@@YAXPEAVUDPProxyCoordinator@0@PEBDI@Z @107
??$OP_DELETE@VUDPProxyServer@RakNet@@@RakNet@@YAXPEAVUDPProxyServer@0@PEBDI@Z @108
??$OP_DELETE_ARRAY@E@RakNet@@YAXPEAEPEBDI@Z @109
??$OP_DELETE_ARRAY@G@RakNet@@YAXPEAGPEBDI@Z @110
??$OP_DELETE_ARRAY@H@RakNet@@YAXPEAHPEBDI@Z @111
??$OP_DELETE_ARRAY@I@RakNet@@YAXPEAIPEBDI@Z @112
??$OP_DELETE_ARRAY@P6AHUThreadData@FileListTransfer@RakNet@@PEA_NPEAX@Z@RakNet@@YAXPEAP6AHUThreadData@FileListTransfer@0@PEA_NPEAX@ZPEBDI@Z @113
??$OP_DELETE_ARRAY@PEAD@RakNet@@YAXPEAPEADPEBDI@Z @114
??$OP_DELETE_ARRAY@PEAPEAURemoteClient@RakNet@@@RakNet@@YAXPEAPEAPEAURemoteClient@0@PEBDI@Z @115
??$OP_DELETE_ARRAY@PEAU?$Page@IPEAURow@Table@DataStructures@@$0BA@@DataStructures@@@RakNet@@YAXPEAPEAU?$Page@IPEAURow@Table@DataStructures@@$0BA@@DataStructures@@PEBDI@Z @116
??$OP_DELETE_ARRAY@PEAUBanStruct@RakPeer@RakNet@@@RakNet@@YAXPEAPEAUBanStruct@RakPeer@0@PEBDI@Z @117
??$OP_DELETE_ARRAY@PEAUBufferedCommandStruct@RakPeer@RakNet@@@RakNet@@YAXPEAPEAUBufferedCommandStruct@RakPeer@0@PEBDI@Z @118
??$OP_DELETE_ARRAY@PEAUBufferedGetResponseFromServer@CloudServer@RakNet@@@RakNet@@YAXPEAPEAUBufferedGetResponseFromServer@CloudServer@0@PEBDI@Z @119
??$OP_DELETE_ARRAY@PEAUCell@Table@DataStructures@@@RakNet@@YAXPEAPEAUCell@Table@DataStructures@@PEBDI@Z @120
??$OP_DELETE_ARRAY@PEAUChangedVariablesList@VariableDeltaSerializer@RakNet@@@RakNet@@YAXPEAPEAUChangedVariablesList@VariableDeltaSerializer@0@PEBDI@Z @121
??$OP_DELETE_ARRAY@PEAUCloudData@CloudServer@RakNet@@@RakNet@@YAXPEAPEAUCloudData@CloudServer@0@PEBDI@Z @122
??$OP_DELETE_ARRAY@PEAUCloudDataList@CloudServer@RakNet@@@RakNet@@YAXPEAPEAUCloudDataList@CloudServer@0@PEBDI@Z @123
??$OP_DELETE_ARRAY@PEAUCloudQueryRow@RakNet@@@RakNet@@YAXPEAPEAUCloudQueryRow@0@PEBDI@Z @124
??$OP_DELETE_ARRAY@PEAUConnectionAttempt@NatPunchthroughServer@RakNet@@@RakNet@@YAXPEAPEAUConnectionAttempt@NatPunchthroughServer@0@PEBDI@Z @125
??$OP_DELETE_ARRAY@PEAUConnnectRequest@Router2@RakNet@@@RakNet@@YAXPEAPEAUConnnectRequest@Router2@0@PEBDI@Z @126
??$OP_DELETE_ARRAY@PEAUFCM2Participant@FullyConnectedMesh2@RakNet@@@RakNet@@YAXPEAPEAUFCM2Participant@FullyConnectedMesh2@0@PEBDI@Z @127
??$OP_DELETE_ARRAY@PEAUFileToPush@FileListTransfer@RakNet@@@RakNet@@YAXPEAPEAUFileToPush@FileListTransfer@0@PEBDI@Z @128
??$OP_DELETE_ARRAY@PEAUFileToPushRecipient@FileListTransfer@RakNet@@@RakNet@@YAXPEAPEAUFileToPushRecipient@FileListTransfer@0@PEBDI@Z @129
??$OP_DELETE_ARRAY@PEAUFilterSet@RakNet@@@RakNet@@YAXPEAPEAUFilterSet@0@PEBDI@Z @130
??$OP_DELETE_ARRAY@PEAUForwardEntry@UDPForwarder@RakNet@@@RakNet@@YAXPEAPEAUForwardEntry@UDPForwarder@0@PEBDI@Z @131
??$OP_DELETE_ARRAY@PEAUForwardingRequest@UDPProxyCoordinator@RakNet@@@RakNet@@YAXPEAPEAUForwardingRequest@UDPProxyCoordinator@0@PEBDI@Z @132
??$OP_DELETE_ARRAY@PEAUGetRequest@CloudServer@RakNet@@@RakNet@@YAXPEAPEAUGetRequest@CloudServer@0@PEBDI@Z @133
??$OP_DELETE_ARRAY@PEAUHuffmanEncodingTreeNode@@@RakNet@@YAXPEAPEAUHuffmanEncodingTreeNode@@PEBDI@Z @134
??$OP_DELETE_ARRAY@PEAUInternalPacket@RakNet@@@RakNet@@YAXPEAPEAUInternalPacket@0@PEBDI@Z @135
??$OP_DELETE_ARRAY@PEAUKeySubscriberID@CloudServer@RakNet@@@RakNet@@YAXPEAPEAUKeySubscriberID@CloudServer@0@PEBDI@Z @136
??$OP_DELETE_ARRAY@PEAULastSerializationResult@RakNet@@@RakNet@@YAXPEAPEAULastSerializationResult@0@PEBDI@Z @137
??$OP_DELETE_ARRAY@PEAULocalCallback@RPC4@RakNet@@@RakNet@@YAXPEAPEAULocalCallback@RPC4@0@PEBDI@Z @138
??$OP_DELETE_ARRAY@PEAULocalSlot@RPC4@RakNet@@@RakNet@@YAXPEAPEAULocalSlot@RPC4@0@PEBDI@Z @139
??$OP_DELETE_ARRAY@PEAUNode@?$Hash@UAddressOrGUID@RakNet@@UFilteredSystem@2@$0IAA@$1?ToInteger@12@SAKAEBU12@@Z@DataStructures@@@RakNet@@YAXPEAPEAUNode@?$Hash@UAddressOrGUID@RakNet@@UFilteredSystem@2@$0IAA@$1?ToInteger@12@SAKAEBU12@@Z@DataStructures@@PEBDI@Z @140
??$OP_DELETE_ARRAY@PEAUNode@?$Hash@URakNetGUID@RakNet@@PEAURemoteCloudClient@CloudServer@2@$0IAA@$1?ToUint32@12@SAKAEBU12@@Z@DataStructures@@@RakNet@@YAXPEAPEAUNode@?$Hash@URakNetGUID@RakNet@@PEAURemoteCloudClient@CloudServer@2@$0IAA@$1?ToUint32@12@SAKAEBU12@@Z@DataStructures@@PEBDI@Z @141
??$OP_DELETE_ARRAY@PEAUNode@?$Hash@URakNetGUID@RakNet@@PEAUStrAndGuidAndRoom@RelayPlugin@2@$0BPKA@$1?ToUint32@12@SAKAEBU12@@Z@DataStructures@@@RakNet@@YAXPEAPEAUNode@?$Hash@URakNetGUID@RakNet@@PEAUStrAndGuidAndRoom@RelayPlugin@2@$0BPKA@$1?ToUint32@12@SAKAEBU12@@Z@DataStructures@@PEBDI@Z @142
??$OP_DELETE_ARRAY@PEAUNode@?$Hash@USystemAddress@RakNet@@UClientState@@$0BAA@$1?SystemAddressHash@@YAKAEBU12@@Z@DataStructures@@@RakNet@@YAXPEAPEAUNode@?$Hash@USystemAddress@RakNet@@UClientState@@$0BAA@$1?SystemAddressHash@@YAKAEBU12@@Z@DataStructures@@PEBDI@Z @143
??$OP_DELETE_ARRAY@PEAUNode@?$Hash@VRakString@RakNet@@P6AXPEAVBitStream@2@0PEAUPacket@2@@Z$0EA@$1?ToInteger@12@SAKAEBV12@@Z@DataStructures@@@RakNet@@YAXPEAPEAUNode@?$Hash@VRakString@RakNet@@P6AXPEAVBitStream@2@0PEAUPacket@2@@Z$0EA@$1?ToInteger@12@SAKAEBV12@@Z@DataStructures@@PEBDI@Z @144
??$OP_DELETE_ARRAY@PEAUNode@?$Hash@VRakString@RakNet@@P6AXPEAVBitStream@2@PEAUPacket@2@@Z$0EA@$1?ToInteger@12@SAKAEBV12@@Z@DataStructures@@@RakNet@@YAXPEAPEAUNode@?$Hash@VRakString@RakNet@@P6AXPEAVBitStream@2@PEAUPacket@2@@Z$0EA@$1?ToInteger@12@SAKAEBV12@@Z@DataStructures@@PEBDI@Z @145
??$OP_DELETE_ARRAY@PEAUNode@?$Hash@VRakString@RakNet@@PEAULocalSlot@RPC4@2@$0BAA@$1?ToInteger@12@SAKAEBV12@@Z@DataStructures@@@RakNet@@YAXPEAPEAUNode@?$Hash@VRakString@RakNet@@PEAULocalSlot@RPC4@2@$0BAA@$1?ToInteger@12@SAKAEBV12@@Z@DataStructures@@PEBDI@Z @146
??$OP_DELETE_ARRAY@PEAUNode@?$Hash@VRakString@RakNet@@PEAUStrAndGuidAndRoom@RelayPlugin@2@$0BPKA@$1?ToInteger@12@SAKAEBV12@@Z@DataStructures@@@RakNet@@YAXPEAPEAUNode@?$Hash@VRakString@RakNet@@PEAUStrAndGuidAndRoom@RelayPlugin@2@$0BPKA@$1?ToInteger@12@SAKAEBV12@@Z@DataStructures@@PEBDI@Z @147
??$OP_DELETE_ARRAY@PEAUNode@?$Hash@VRakString@RakNet@@PEAUTimeAndValueQueue@StatisticsHistory@2@$0CA@$1?ToInteger@12@SAKAEBV12@@Z@DataStructures@@@RakNet@@YAXPEAPEAUNode@?$Hash@VRakString@RakNet@@PEAUTimeAndValueQueue@StatisticsHistory@2@$0CA@$1?ToInteger@12@SAKAEBV12@@Z@DataStructures@@PEBDI@Z @148
??$OP_DELETE_ARRAY@PEAUNode@?$Hash@VRakString@RakNet@@V12@$0BA@$1?ToInteger@12@SAKAEBV12@@Z@DataStructures@@@RakNet@@YAXPEAPEAUNode@?$Hash@VRakString@RakNet@@V12@$0BA@$1?ToInteger@12@SAKAEBV12@@Z@DataStructures@@PEBDI@Z @149
??$OP_DELETE_ARRAY@PEAUNode@?$Hash@_KPEAVTM_Team@RakNet@@$0BAA@$1?ToUint32@12@SAKAEB_K@Z@DataStructures@@@RakNet@@YAXPEAPEAUNode@?$Hash@_KPEAVTM_Team@RakNet@@$0BAA@$1?ToUint32@12@SAKAEB_K@Z@DataStructures@@PEBDI@Z @150
??$OP_DELETE_ARRAY@PEAUNode@?$Hash@_KPEAVTM_TeamMember@RakNet@@$0BAA@$1?ToUint32@12@SAKAEB_K@Z@DataStructures@@@RakNet@@YAXPEAPEAUNode@?$Hash@_KPEAVTM_TeamMember@RakNet@@$0BAA@$1?ToUint32@12@SAKAEB_K@Z@DataStructures@@PEBDI@Z @151
??$OP_DELETE_ARRAY@PEAUNonceAndRemoteSystemRequest@TwoWayAuthentication@RakNet@@@RakNet@@YAXPEAPEAUNonceAndRemoteSystemRequest@TwoWayAuthentication@0@PEBDI@Z @152
??$OP_DELETE_ARRAY@PEAUPacket@RakNet@@@RakNet@@YAXPEAPEAUPacket@0@PEBDI@Z @153
??$OP_DELETE_ARRAY@PEAUPingServerGroup@UDPProxyClient@RakNet@@@RakNet@@YAXPEAPEAUPingServerGroup@UDPProxyClient@0@PEBDI@Z @154
??$OP_DELETE_ARRAY@PEAURM3World@ReplicaManager3@RakNet@@@RakNet@@YAXPEAPEAURM3World@ReplicaManager3@0@PEBDI@Z @155
??$OP_DELETE_ARRAY@PEAURNS2RecvStruct@RakNet@@@RakNet@@YAXPEAPEAURNS2RecvStruct@0@PEBDI@Z @156
??$OP_DELETE_ARRAY@PEAURP_Group@RelayPlugin@RakNet@@@RakNet@@YAXPEAPEAURP_Group@RelayPlugin@0@PEBDI@Z @157
??$OP_DELETE_ARRAY@PEAUReadyEventNode@ReadyEvent@RakNet@@@RakNet@@YAXPEAPEAUReadyEventNode@ReadyEvent@0@PEBDI@Z @158
??$OP_DELETE_ARRAY@PEAURemoteCloudClient@CloudServer@RakNet@@@RakNet@@YAXPEAPEAURemoteCloudClient@CloudServer@0@PEBDI@Z @159
??$OP_DELETE_ARRAY@PEAURemoteServer@CloudServer@RakNet@@@RakNet@@YAXPEAPEAURemoteServer@CloudServer@0@PEBDI@Z @160
??$OP_DELETE_ARRAY@PEAURemoteSystem@ConnectionGraph2@RakNet@@@RakNet@@YAXPEAPEAURemoteSystem@ConnectionGraph2@0@PEBDI@Z @161
??$OP_DELETE_ARRAY@PEAURemoteSystemIndex@RakNet@@@RakNet@@YAXPEAPEAURemoteSystemIndex@0@PEBDI@Z @162
??$OP_DELETE_ARRAY@PEAURemoteSystemStruct@RakPeer@RakNet@@@RakNet@@YAXPEAPEAURemoteSystemStruct@RakPeer@0@PEBDI@Z @163
??$OP_DELETE_ARRAY@PEAURemoteSystemVariableHistory@VariableDeltaSerializer@RakNet@@@RakNet@@YAXPEAPEAURemoteSystemVariableHistory@VariableDeltaSerializer@0@PEBDI@Z @164
??$OP_DELETE_ARRAY@PEAURequest@HTTPConnection2@RakNet@@@RakNet@@YAXPEAPEAURequest@HTTPConnection2@0@PEBDI@Z @165
??$OP_DELETE_ARRAY@PEAURequestedConnectionStruct@RakPeer@RakNet@@@RakNet@@YAXPEAPEAURequestedConnectionStruct@RakPeer@0@PEBDI@Z @166
??$OP_DELETE_ARRAY@PEAURow@Table@DataStructures@@@RakNet@@YAXPEAPEAURow@Table@DataStructures@@PEBDI@Z @167
??$OP_DELETE_ARRAY@PEAUSharedString@RakString@RakNet@@@RakNet@@YAXPEAPEAUSharedString@RakString@0@PEBDI@Z @168
??$OP_DELETE_ARRAY@PEAUSocketQueryOutput@RakPeer@RakNet@@@RakNet@@YAXPEAPEAUSocketQueryOutput@RakPeer@0@PEBDI@Z @169
??$OP_DELETE_ARRAY@PEAUSplitPacketChannel@RakNet@@@RakNet@@YAXPEAPEAUSplitPacketChannel@0@PEBDI@Z @170
??$OP_DELETE_ARRAY@PEAUStartForwardingInputStruct@UDPForwarder@RakNet@@@RakNet@@YAXPEAPEAUStartForwardingInputStruct@UDPForwarder@0@PEBDI@Z @171
??$OP_DELETE_ARRAY@PEAUStopForwardingStruct@UDPForwarder@RakNet@@@RakNet@@YAXPEAPEAUStopForwardingStruct@UDPForwarder@0@PEBDI@Z @172
??$OP_DELETE_ARRAY@PEAUStrAndGuidAndRoom@RelayPlugin@RakNet@@@RakNet@@YAXPEAPEAUStrAndGuidAndRoom@RelayPlugin@0@PEBDI@Z @173
??$OP_DELETE_ARRAY@PEAUSystemAddress@RakNet@@@RakNet@@YAXPEAPEAUSystemAddress@0@PEBDI@Z @174
??$OP_DELETE_ARRAY@PEAUTelnetClient@TelnetTransport@RakNet@@@RakNet@@YAXPEAPEAUTelnetClient@TelnetTransport@0@PEBDI@Z @175
??$OP_DELETE_ARRAY@PEAUTimeAndValueQueue@StatisticsHistory@RakNet@@@RakNet@@YAXPEAPEAUTimeAndValueQueue@StatisticsHistory@0@PEBDI@Z @176
??$OP_DELETE_ARRAY@PEAUTrackedObject@StatisticsHistory@RakNet@@@RakNet@@YAXPEAPEAUTrackedObject@StatisticsHistory@0@PEBDI@Z @177
??$OP_DELETE_ARRAY@PEAUUser@NatPunchthroughServer@RakNet@@@RakNet@@YAXPEAPEAUUser@NatPunchthroughServer@0@PEBDI@Z @178
??$OP_DELETE_ARRAY@PEAUVerifiedJoinInProgress@FullyConnectedMesh2@RakNet@@@RakNet@@YAXPEAPEAUVerifiedJoinInProgress@FullyConnectedMesh2@0@PEBDI@Z @179
??$OP_DELETE_ARRAY@PEAUVoiceBuffer@RakNet@@@RakNet@@YAXPEAPEAUVoiceBuffer@0@PEBDI@Z @180
??$OP_DELETE_ARRAY@PEAUVoiceChannel@RakNet@@@RakNet@@YAXPEAPEAUVoiceChannel@0@PEBDI@Z @181
??$OP_DELETE_ARRAY@PEAVBitStream@RakNet@@@RakNet@@YAXPEAPEAVBitStream@0@PEBDI@Z @182
??$OP_DELETE_ARRAY@PEAVCloudServerQueryFilter@RakNet@@@RakNet@@YAXPEAPEAVCloudServerQueryFilter@0@PEBDI@Z @183
??$OP_DELETE_ARRAY@PEAVCommandParserInterface@RakNet@@@RakNet@@YAXPEAPEAVCommandParserInterface@0@PEBDI@Z @184
??$OP_DELETE_ARRAY@PEAVConnection_RM3@RakNet@@@RakNet@@YAXPEAPEAVConnection_RM3@0@PEBDI@Z @185
??$OP_DELETE_ARRAY@PEAVFileListProgress@RakNet@@@RakNet@@YAXPEAPEAVFileListProgress@0@PEBDI@Z @186
??$OP_DELETE_ARRAY@PEAVPluginInterface2@RakNet@@@RakNet@@YAXPEAPEAVPluginInterface2@0@PEBDI@Z @187
??$OP_DELETE_ARRAY@PEAVRackspace2EventCallback@RakNet@@@RakNet@@YAXPEAPEAVRackspace2EventCallback@0@PEBDI@Z @188
??$OP_DELETE_ARRAY@PEAVRakNetSocket2@RakNet@@@RakNet@@YAXPEAPEAVRakNetSocket2@0@PEBDI@Z @189
??$OP_DELETE_ARRAY@PEAVReplica3@RakNet@@@RakNet@@YAXPEAPEAVReplica3@0@PEBDI@Z @190
??$OP_DELETE_ARRAY@PEAVTM_Team@RakNet@@@RakNet@@YAXPEAPEAVTM_Team@0@PEBDI@Z @191
??$OP_DELETE_ARRAY@PEAVTM_TeamMember@RakNet@@@RakNet@@YAXPEAPEAVTM_TeamMember@0@PEBDI@Z @192
??$OP_DELETE_ARRAY@PEAVTM_World@RakNet@@@RakNet@@YAXPEAPEAVTM_World@0@PEBDI@Z @193
??$OP_DELETE_ARRAY@PEAX@RakNet@@YAXPEAPEAXPEBDI@Z @194
??$OP_DELETE_ARRAY@U?$RangeNode@Uuint24_t@RakNet@@@DataStructures@@@RakNet@@YAXPEAU?$RangeNode@Uuint24_t@RakNet@@@DataStructures@@PEBDI@Z @195
??$OP_DELETE_ARRAY@UAddrAndGuid@NatPunchthroughClient@RakNet@@@RakNet@@YAXPEAUAddrAndGuid@NatPunchthroughClient@0@PEBDI@Z @196
??$OP_DELETE_ARRAY@UAddressOrGUID@RakNet@@@RakNet@@YAXPEAUAddressOrGUID@0@PEBDI@Z @197
??$OP_DELETE_ARRAY@UBadResponse@HTTPConnection@RakNet@@@RakNet@@YAXPEAUBadResponse@HTTPConnection@0@PEBDI@Z @198
??$OP_DELETE_ARRAY@UClientState@@@RakNet@@YAXPEAUClientState@@PEBDI@Z @199
??$OP_DELETE_ARRAY@UCloudKey@RakNet@@@RakNet@@YAXPEAUCloudKey@0@PEBDI@Z @200
??$OP_DELETE_ARRAY@UColumnDescriptor@Table@DataStructures@@@RakNet@@YAXPEAUColumnDescriptor@Table@DataStructures@@PEBDI@Z @201
??$OP_DELETE_ARRAY@UConnectionRequestSystem@Router2@RakNet@@@RakNet@@YAXPEAUConnectionRequestSystem@Router2@0@PEBDI@Z @202
??$OP_DELETE_ARRAY@UDSTAndFac@NatPunchthroughClient@RakNet@@@RakNet@@YAXPEAUDSTAndFac@NatPunchthroughClient@0@PEBDI@Z @203
??$OP_DELETE_ARRAY@UDatagramHistoryNode@ReliabilityLayer@RakNet@@@RakNet@@YAXPEAUDatagramHistoryNode@ReliabilityLayer@0@PEBDI@Z @204
??$OP_DELETE_ARRAY@UFileListNode@RakNet@@@RakNet@@YAXPEAUFileListNode@0@PEBDI@Z @205
??$OP_DELETE_ARRAY@UFilterQuery@Table@DataStructures@@@RakNet@@YAXPEAUFilterQuery@Table@DataStructures@@PEBDI@Z @206
??$OP_DELETE_ARRAY@UFilteredSystem@RakNet@@@RakNet@@YAXPEAUFilteredSystem@0@PEBDI@Z @207
??$OP_DELETE_ARRAY@UForwardedConnection@Router2@RakNet@@@RakNet@@YAXPEAUForwardedConnection@Router2@0@PEBDI@Z @208
??$OP_DELETE_ARRAY@UHeapNode@?$Heap@_KPEAUInternalPacket@RakNet@@$0A@@DataStructures@@@RakNet@@YAXPEAUHeapNode@?$Heap@_KPEAUInternalPacket@RakNet@@$0A@@DataStructures@@PEBDI@Z @209
??$OP_DELETE_ARRAY@UIndexAndType@VariadicSQLParser@@@RakNet@@YAXPEAUIndexAndType@VariadicSQLParser@@PEBDI@Z @210
??$OP_DELETE_ARRAY@UJoinRequestHelper@TM_World@RakNet@@@RakNet@@YAXPEAUJoinRequestHelper@TM_World@0@PEBDI@Z @211
??$OP_DELETE_ARRAY@ULocalSlotObject@RPC4@RakNet@@@RakNet@@YAXPEAULocalSlotObject@RPC4@0@PEBDI@Z @212
??$OP_DELETE_ARRAY@UMapNode@?$Map@GPEAUFileListReceiver@RakNet@@$1??$defaultMapKeyComparison@G@DataStructures@@YAHAEBG0@Z@DataStructures@@@RakNet@@YAXPEAUMapNode@?$Map@GPEAUFileListReceiver@RakNet@@$1??$defaultMapKeyComparison@G@DataStructures@@YAHAEBG0@Z@DataStructures@@PEBDI@Z @213
??$OP_DELETE_ARRAY@UMapNode@?$Map@HPEAVHuffmanEncodingTree@RakNet@@$1??$defaultMapKeyComparison@H@DataStructures@@YAHAEBH0@Z@DataStructures@@@RakNet@@YAXPEAUMapNode@?$Map@HPEAVHuffmanEncodingTree@RakNet@@$1??$defaultMapKeyComparison@H@DataStructures@@YAHAEBH0@Z@DataStructures@@PEBDI@Z @214
??$OP_DELETE_ARRAY@UMapNode@?$Map@IUFLR_MemoryBlock@RakNet@@$1??$defaultMapKeyComparison@I@DataStructures@@YAHAEBI0@Z@DataStructures@@@RakNet@@YAXPEAUMapNode@?$Map@IUFLR_MemoryBlock@RakNet@@$1??$defaultMapKeyComparison@I@DataStructures@@YAHAEBI0@Z@DataStructures@@PEBDI@Z @215
??$OP_DELETE_ARRAY@UMapNode@?$Map@USystemAddress@RakNet@@PEAVByteQueue@DataStructures@@$1??$defaultMapKeyComparison@USystemAddress@RakNet@@@4@YAHAEBU12@0@Z@DataStructures@@@RakNet@@YAXPEAUMapNode@?$Map@USystemAddress@RakNet@@PEAVByteQueue@DataStructures@@$1??$defaultMapKeyComparison@USystemAddress@RakNet@@@4@YAHAEBU12@0@Z@DataStructures@@PEBDI@Z @216
??$OP_DELETE_ARRAY@UMiniPunchRequest@Router2@RakNet@@@RakNet@@YAXPEAUMiniPunchRequest@Router2@0@PEBDI@Z @217
??$OP_DELETE_ARRAY@UMyTeamMembers@TeamBalancer@RakNet@@@RakNet@@YAXPEAUMyTeamMembers@TeamBalancer@0@PEBDI@Z @218
??$OP_DELETE_ARRAY@UNATDetectionAttempt@NatTypeDetectionServer@RakNet@@@RakNet@@YAXPEAUNATDetectionAttempt@NatTypeDetectionServer@0@PEBDI@Z @219
??$OP_DELETE_ARRAY@UOutgoingCommand@HTTPConnection@RakNet@@@RakNet@@YAXPEAUOutgoingCommand@HTTPConnection@0@PEBDI@Z @220
??$OP_DELETE_ARRAY@UPendingChallenge@TwoWayAuthentication@RakNet@@@RakNet@@YAXPEAUPendingChallenge@TwoWayAuthentication@0@PEBDI@Z @221
??$OP_DELETE_ARRAY@URackspaceOperation@Rackspace@RakNet@@@RakNet@@YAXPEAURackspaceOperation@Rackspace@0@PEBDI@Z @222
??$OP_DELETE_ARRAY@URakNetGUID@RakNet@@@RakNet@@YAXPEAURakNetGUID@0@PEBDI@Z @223
??$OP_DELETE_ARRAY@URakNetStatistics@RakNet@@@RakNet@@YAXPEAURakNetStatistics@0@PEBDI@Z @224
??$OP_DELETE_ARRAY@URegisteredCommand@RakNet@@@RakNet@@YAXPEAURegisteredCommand@0@PEBDI@Z @225
??$OP_DELETE_ARRAY@URemoteClient@RakNet@@@RakNet@@YAXPEAURemoteClient@0@PEBDI@Z @226
??$OP_DELETE_ARRAY@URemoteSystem@ReadyEvent@RakNet@@@RakNet@@YAXPEAURemoteSystem@ReadyEvent@0@PEBDI@Z @227
??$OP_DELETE_ARRAY@URemoteSystemStruct@RakPeer@RakNet@@@RakNet@@YAXPEAURemoteSystemStruct@RakPeer@0@PEBDI@Z @228
??$OP_DELETE_ARRAY@URequestedTeam@TM_TeamMember@RakNet@@@RakNet@@YAXPEAURequestedTeam@TM_TeamMember@0@PEBDI@Z @229
??$OP_DELETE_ARRAY@UServerWithPing@UDPProxyClient@RakNet@@@RakNet@@YAXPEAUServerWithPing@UDPProxyClient@0@PEBDI@Z @230
??$OP_DELETE_ARRAY@UServerWithPing@UDPProxyCoordinator@RakNet@@@RakNet@@YAXPEAUServerWithPing@UDPProxyCoordinator@0@PEBDI@Z @231
??$OP_DELETE_ARRAY@UStartForwardingOutputStruct@UDPForwarder@RakNet@@@RakNet@@YAXPEAUStartForwardingOutputStruct@UDPForwarder@0@PEBDI@Z @232
??$OP_DELETE_ARRAY@UStrAndBool@@@RakNet@@YAXPEAUStrAndBool@@PEBDI@Z @233
??$OP_DELETE_ARRAY@UStrAndGuid@RelayPlugin@RakNet@@@RakNet@@YAXPEAUStrAndGuid@RelayPlugin@0@PEBDI@Z @234
??$OP_DELETE_ARRAY@USystemAddress@RakNet@@@RakNet@@YAXPEAUSystemAddress@0@PEBDI@Z @235
??$OP_DELETE_ARRAY@USystemAddressAndChannel@LogCommandParser@RakNet@@@RakNet@@YAXPEAUSystemAddressAndChannel@LogCommandParser@0@PEBDI@Z @236
??$OP_DELETE_ARRAY@USystemAddressAndGuid@ConnectionGraph2@RakNet@@@RakNet@@YAXPEAUSystemAddressAndGuid@ConnectionGraph2@0@PEBDI@Z @237
??$OP_DELETE_ARRAY@UTeamMember@TeamBalancer@RakNet@@@RakNet@@YAXPEAUTeamMember@TeamBalancer@0@PEBDI@Z @238
??$OP_DELETE_ARRAY@UThreadData@FileListTransfer@RakNet@@@RakNet@@YAXPEAUThreadData@FileListTransfer@0@PEBDI@Z @239
??$OP_DELETE_ARRAY@UTimeAndValue2@BPSTracker@RakNet@@@RakNet@@YAXPEAUTimeAndValue2@BPSTracker@0@PEBDI@Z @240
??$OP_DELETE_ARRAY@UTimeAndValue@StatisticsHistory@RakNet@@@RakNet@@YAXPEAUTimeAndValue@StatisticsHistory@0@PEBDI@Z @241
??$OP_DELETE_ARRAY@UUnreliableWithAckReceiptNode@ReliabilityLayer@RakNet@@@RakNet@@YAXPEAUUnreliableWithAckReceiptNode@ReliabilityLayer@0@PEBDI@Z @242
??$OP_DELETE_ARRAY@UVariableLastValueNode@VariableListDeltaTracker@RakNet@@@RakNet@@YAXPEAUVariableLastValueNode@VariableListDeltaTracker@0@PEBDI@Z @243
??$OP_DELETE_ARRAY@UVerifiedJoinInProgressMember@FullyConnectedMesh2@RakNet@@@RakNet@@YAXPEAUVerifiedJoinInProgressMember@FullyConnectedMesh2@0@PEBDI@Z @244
??$OP_DELETE_ARRAY@V?$List@PEAX@DataStructures@@@RakNet@@YAXPEAV?$List@PEAX@DataStructures@@PEBDI@Z @245
??$OP_DELETE_ARRAY@VRakString@RakNet@@@RakNet@@YAXPEAVRakString@0@PEBDI@Z @246
??$OP_DELETE_ARRAY@_K@RakNet@@YAXPEA_KPEBDI@Z @247
??$OP_DELETE_ARRAY@_N@RakNet@@YAXPEA_NPEBDI@Z @248
??$OP_DELETE_ARRAY@_W@RakNet@@YAXPEA_WPEBDI@Z @249
??$OP_NEW@UBanStruct@RakPeer@RakNet@@@RakNet@@YAPEAUBanStruct@RakPeer@0@PEBDI@Z @250
??$OP_NEW@UBufferedGetResponseFromServer@CloudServer@RakNet@@@RakNet@@YAPEAUBufferedGetResponseFromServer@CloudServer@0@PEBDI@Z @251
??$OP_NEW@UCell@Table@DataStructures@@@RakNet@@YAPEAUCell@Table@DataStructures@@PEBDI@Z @252
??$OP_NEW@UCloudData@CloudServer@RakNet@@@RakNet@@YAPEAUCloudData@CloudServer@0@PEBDI@Z @253
??$OP_NEW@UCloudDataList@CloudServer@RakNet@@@RakNet@@YAPEAUCloudDataList@CloudServer@0@PEBDI@Z @254
??$OP_NEW@UCloudQueryRow@RakNet@@@RakNet@@YAPEAUCloudQueryRow@0@PEBDI@Z @255
??$OP_NEW@UConnectionAttempt@NatPunchthroughServer@RakNet@@@RakNet@@YAPEAUConnectionAttempt@NatPunchthroughServer@0@PEBDI@Z @256
??$OP_NEW@UConnnectRequest@Router2@RakNet@@@RakNet@@YAPEAUConnnectRequest@Router2@0@PEBDI@Z @257
??$OP_NEW@UDataPlusPtr@?$SingleProducerConsumer@PEAD@DataStructures@@@RakNet@@YAPEAUDataPlusPtr@?$SingleProducerConsumer@PEAD@DataStructures@@PEBDI@Z @258
??$OP_NEW@UFCM2Participant@FullyConnectedMesh2@RakNet@@@RakNet@@YAPEAUFCM2Participant@FullyConnectedMesh2@0@PEBDI@Z @259
??$OP_NEW@UFileListReceiver@RakNet@@@RakNet@@YAPEAUFileListReceiver@0@PEBDI@Z @260
??$OP_NEW@UFileToPush@FileListTransfer@RakNet@@@RakNet@@YAPEAUFileToPush@FileListTransfer@0@PEBDI@Z @261
??$OP_NEW@UFileToPushRecipient@FileListTransfer@RakNet@@@RakNet@@YAPEAUFileToPushRecipient@FileListTransfer@0@PEBDI@Z @262
??$OP_NEW@UFilterSet@RakNet@@@RakNet@@YAPEAUFilterSet@0@PEBDI@Z @263
??$OP_NEW@UForwardEntry@UDPForwarder@RakNet@@@RakNet@@YAPEAUForwardEntry@UDPForwarder@0@PEBDI@Z @264
??$OP_NEW@UForwardingRequest@UDPProxyCoordinator@RakNet@@@RakNet@@YAPEAUForwardingRequest@UDPProxyCoordinator@0@PEBDI@Z @265
??$OP_NEW@UGetRequest@CloudServer@RakNet@@@RakNet@@YAPEAUGetRequest@CloudServer@0@PEBDI@Z @266
??$OP_NEW@UHuffmanEncodingTreeNode@@@RakNet@@YAPEAUHuffmanEncodingTreeNode@@PEBDI@Z @267
??$OP_NEW@UKeySubscriberID@CloudServer@RakNet@@@RakNet@@YAPEAUKeySubscriberID@CloudServer@0@PEBDI@Z @268
??$OP_NEW@ULastSerializationResult@RakNet@@@RakNet@@YAPEAULastSerializationResult@0@PEBDI@Z @269
??$OP_NEW@ULastSerializationResultBS@RakNet@@@RakNet@@YAPEAULastSerializationResultBS@0@PEBDI@Z @270
??$OP_NEW@ULocalCallback@RPC4@RakNet@@@RakNet@@YAPEAULocalCallback@RPC4@0@PEBDI@Z @271
??$OP_NEW@ULocalSlot@RPC4@RakNet@@@RakNet@@YAPEAULocalSlot@RPC4@0@PEBDI@Z @272
??$OP_NEW@UNonceAndRemoteSystemRequest@TwoWayAuthentication@RakNet@@@RakNet@@YAPEAUNonceAndRemoteSystemRequest@TwoWayAuthentication@0@PEBDI@Z @273
??$OP_NEW@UPacket@RakNet@@@RakNet@@YAPEAUPacket@0@PEBDI@Z @274
??$OP_NEW@UPingServerGroup@UDPProxyClient@RakNet@@@RakNet@@YAPEAUPingServerGroup@UDPProxyClient@0@PEBDI@Z @275
??$OP_NEW@URM3World@ReplicaManager3@RakNet@@@RakNet@@YAPEAURM3World@ReplicaManager3@0@PEBDI@Z @276
??$OP_NEW@URNS2RecvStruct@RakNet@@@RakNet@@YAPEAURNS2RecvStruct@0@PEBDI@Z @277
??$OP_NEW@URP_Group@RelayPlugin@RakNet@@@RakNet@@YAPEAURP_Group@RelayPlugin@0@PEBDI@Z @278
??$OP_NEW@UReadyEventNode@ReadyEvent@RakNet@@@RakNet@@YAPEAUReadyEventNode@ReadyEvent@0@PEBDI@Z @279
??$OP_NEW@URemoteCloudClient@CloudServer@RakNet@@@RakNet@@YAPEAURemoteCloudClient@CloudServer@0@PEBDI@Z @280
??$OP_NEW@URemoteServer@CloudServer@RakNet@@@RakNet@@YAPEAURemoteServer@CloudServer@0@PEBDI@Z @281
??$OP_NEW@URemoteSystem@ConnectionGraph2@RakNet@@@RakNet@@YAPEAURemoteSystem@ConnectionGraph2@0@PEBDI@Z @282
??$OP_NEW@URequest@HTTPConnection2@RakNet@@@RakNet@@YAPEAURequest@HTTPConnection2@0@PEBDI@Z @283
??$OP_NEW@URequestedConnectionStruct@RakPeer@RakNet@@@RakNet@@YAPEAURequestedConnectionStruct@RakPeer@0@PEBDI@Z @284
??$OP_NEW@URow@Table@DataStructures@@@RakNet@@YAPEAURow@Table@DataStructures@@PEBDI@Z @285
??$OP_NEW@USplitPacketChannel@RakNet@@@RakNet@@YAPEAUSplitPacketChannel@0@PEBDI@Z @286
??$OP_NEW@UStrAndGuidAndRoom@RelayPlugin@RakNet@@@RakNet@@YAPEAUStrAndGuidAndRoom@RelayPlugin@0@PEBDI@Z @287
??$OP_NEW@UThisPtrPlusSysAddr@TCPInterface@RakNet@@@RakNet@@YAPEAUThisPtrPlusSysAddr@TCPInterface@0@PEBDI@Z @288
??$OP_NEW@UTimeAndValueQueue@StatisticsHistory@RakNet@@@RakNet@@YAPEAUTimeAndValueQueue@StatisticsHistory@0@PEBDI@Z @289
??$OP_NEW@UTrackedObject@StatisticsHistory@RakNet@@@RakNet@@YAPEAUTrackedObject@StatisticsHistory@0@PEBDI@Z @290
??$OP_NEW@UUser@NatPunchthroughServer@RakNet@@@RakNet@@YAPEAUUser@NatPunchthroughServer@0@PEBDI@Z @291
??$OP_NEW@UVerifiedJoinInProgress@FullyConnectedMesh2@RakNet@@@RakNet@@YAPEAUVerifiedJoinInProgress@FullyConnectedMesh2@0@PEBDI@Z @292
??$OP_NEW@UVoiceChannel@RakNet@@@RakNet@@YAPEAUVoiceChannel@0@PEBDI@Z @293
??$OP_NEW@Unode@?$CircularLinkedList@PEAUHuffmanEncodingTreeNode@@@DataStructures@@@RakNet@@YAPEAUnode@?$CircularLinkedList@PEAUHuffmanEncodingTreeNode@@@DataStructures@@PEBDI@Z @294
??$OP_NEW@VBitStream@RakNet@@@RakNet@@YAPEAVBitStream@0@PEBDI@Z @295
??$OP_NEW@VByteQueue@DataStructures@@@RakNet@@YAPEAVByteQueue@DataStructures@@PEBDI@Z @296
??$OP_NEW@VCloudClient@RakNet@@@RakNet@@YAPEAVCloudClient@0@PEBDI@Z @297
??$OP_NEW@VConnectionGraph2@RakNet@@@RakNet@@YAPEAVConnectionGraph2@0@PEBDI@Z @298
??$OP_NEW@VConsoleServer@RakNet@@@RakNet@@YAPEAVConsoleServer@0@PEBDI@Z @299
??$OP_NEW@VDDTCallback@@@RakNet@@YAPEAVDDTCallback@@PEBDI@Z @300
??$OP_NEW@VDataCompressor@RakNet@@@RakNet@@YAPEAVDataCompressor@0@PEBDI@Z @301
??$OP_NEW@VDirectoryDeltaTransfer@RakNet@@@RakNet@@YAPEAVDirectoryDeltaTransfer@0@PEBDI@Z @302
??$OP_NEW@VEmailSender@RakNet@@@RakNet@@YAPEAVEmailSender@0@PEBDI@Z @303
??$OP_NEW@VFLP_Printf@RakNet@@@RakNet@@YAPEAVFLP_Printf@0@PEBDI@Z @304
??$OP_NEW@VFileList@RakNet@@@RakNet@@YAPEAVFileList@0@PEBDI@Z @305
??$OP_NEW@VFileListProgress@RakNet@@@RakNet@@YAPEAVFileListProgress@0@PEBDI@Z @306
??$OP_NEW@VFileListTransfer@RakNet@@@RakNet@@YAPEAVFileListTransfer@0@PEBDI@Z @307
??$OP_NEW@VFullyConnectedMesh2@RakNet@@@RakNet@@YAPEAVFullyConnectedMesh2@0@PEBDI@Z @308
??$OP_NEW@VHTTPConnection2@RakNet@@@RakNet@@YAPEAVHTTPConnection2@0@PEBDI@Z @309
??$OP_NEW@VHTTPConnection@RakNet@@@RakNet@@YAPEAVHTTPConnection@0@PEBDI@Z @310
??$OP_NEW@VHuffmanEncodingTree@RakNet@@@RakNet@@YAPEAVHuffmanEncodingTree@0@PEBDI@Z @311
??$OP_NEW@VLogCommandParser@RakNet@@@RakNet@@YAPEAVLogCommandParser@0@PEBDI@Z @312
??$OP_NEW@VMessageFilter@RakNet@@@RakNet@@YAPEAVMessageFilter@0@PEBDI@Z @313
??$OP_NEW@VNatPunchthroughClient@RakNet@@@RakNet@@YAPEAVNatPunchthroughClient@0@PEBDI@Z @314
??$OP_NEW@VNatPunchthroughServer@RakNet@@@RakNet@@YAPEAVNatPunchthroughServer@0@PEBDI@Z @315
??$OP_NEW@VNatTypeDetectionClient@RakNet@@@RakNet@@YAPEAVNatTypeDetectionClient@0@PEBDI@Z @316
??$OP_NEW@VNatTypeDetectionServer@RakNet@@@RakNet@@YAPEAVNatTypeDetectionServer@0@PEBDI@Z @317
??$OP_NEW@VNetworkIDManager@RakNet@@@RakNet@@YAPEAVNetworkIDManager@0@PEBDI@Z @318
??$OP_NEW@VPacketLogger@RakNet@@@RakNet@@YAPEAVPacketLogger@0@PEBDI@Z @319
??$OP_NEW@VPacketizedTCP@RakNet@@@RakNet@@YAPEAVPacketizedTCP@0@PEBDI@Z @320
??$OP_NEW@VRNS2_Windows@RakNet@@@RakNet@@YAPEAVRNS2_Windows@0@PEBDI@Z @321
??$OP_NEW@VRPC4@RakNet@@@RakNet@@YAPEAVRPC4@0@PEBDI@Z @322
??$OP_NEW@VRakNetCommandParser@RakNet@@@RakNet@@YAPEAVRakNetCommandParser@0@PEBDI@Z @323
??$OP_NEW@VRakNetTransport2@RakNet@@@RakNet@@YAPEAVRakNetTransport2@0@PEBDI@Z @324
??$OP_NEW@VRakPeer@RakNet@@@RakNet@@YAPEAVRakPeer@0@PEBDI@Z @325
??$OP_NEW@VReadyEvent@RakNet@@@RakNet@@YAPEAVReadyEvent@0@PEBDI@Z @326
??$OP_NEW@VRelayPlugin@RakNet@@@RakNet@@YAPEAVRelayPlugin@0@PEBDI@Z @327
??$OP_NEW@VRouter2@RakNet@@@RakNet@@YAPEAVRouter2@0@PEBDI@Z @328
??$OP_NEW@VSimpleMutex@RakNet@@@RakNet@@YAPEAVSimpleMutex@0@PEBDI@Z @329
??$OP_NEW@VStatisticsHistory@RakNet@@@RakNet@@YAPEAVStatisticsHistory@0@PEBDI@Z @330
??$OP_NEW@VStatisticsHistoryPlugin@RakNet@@@RakNet@@YAPEAVStatisticsHistoryPlugin@0@PEBDI@Z @331
??$OP_NEW@VStringCompressor@RakNet@@@RakNet@@YAPEAVStringCompressor@0@PEBDI@Z @332
??$OP_NEW@VStringTable@RakNet@@@RakNet@@YAPEAVStringTable@0@PEBDI@Z @333
??$OP_NEW@VTCPInterface@RakNet@@@RakNet@@YAPEAVTCPInterface@0@PEBDI@Z @334
??$OP_NEW@VTM_Team@RakNet@@@RakNet@@YAPEAVTM_Team@0@PEBDI@Z @335
??$OP_NEW@VTM_TeamMember@RakNet@@@RakNet@@YAPEAVTM_TeamMember@0@PEBDI@Z @336
??$OP_NEW@VTM_World@RakNet@@@RakNet@@YAPEAVTM_World@0@PEBDI@Z @337
??$OP_NEW@VTeamBalancer@RakNet@@@RakNet@@YAPEAVTeamBalancer@0@PEBDI@Z @338
??$OP_NEW@VTeamManager@RakNet@@@RakNet@@YAPEAVTeamManager@0@PEBDI@Z @339
??$OP_NEW@VTelnetTransport@RakNet@@@RakNet@@YAPEAVTelnetTransport@0@PEBDI@Z @340
??$OP_NEW@VUDPForwarder@RakNet@@@RakNet@@YAPEAVUDPForwarder@0@PEBDI@Z @341
??$OP_NEW@VUDPProxyClient@RakNet@@@RakNet@@YAPEAVUDPProxyClient@0@PEBDI@Z @342
??$OP_NEW@VUDPProxyCoordinator@RakNet@@@RakNet@@YAPEAVUDPProxyCoordinator@0@PEBDI@Z @343
??$OP_NEW@VUDPProxyServer@RakNet@@@RakNet@@YAPEAVUDPProxyServer@0@PEBDI@Z @344
??$OP_NEW_2@UNode@?$Hash@UAddressOrGUID@RakNet@@UFilteredSystem@2@$0IAA@$1?ToInteger@12@SAKAEBU12@@Z@DataStructures@@UAddressOrGUID@RakNet@@UFilteredSystem@5@@RakNet@@YAPEAUNode@?$Hash@UAddressOrGUID@RakNet@@UFilteredSystem@2@$0IAA@$1?ToInteger@12@SAKAEBU12@@Z@DataStructures@@PEBDIAEBUAddressOrGUID@0@AEBUFilteredSystem@0@@Z @345
??$OP_NEW_2@UNode@?$Hash@URakNetGUID@RakNet@@PEAURemoteCloudClient@CloudServer@2@$0IAA@$1?ToUint32@12@SAKAEBU12@@Z@DataStructures@@URakNetGUID@RakNet@@PEAURemoteCloudClient@CloudServer@5@@RakNet@@YAPEAUNode@?$Hash@URakNetGUID@RakNet@@PEAURemoteCloudClient@CloudServer@2@$0IAA@$1?ToUint32@12@SAKAEBU12@@Z@DataStructures@@PEBDIAEBURakNetGUID@0@AEBQEAURemoteCloudClient@CloudServer@0@@Z @346
??$OP_NEW_2@UNode@?$Hash@URakNetGUID@RakNet@@PEAUStrAndGuidAndRoom@RelayPlugin@2@$0BPKA@$1?ToUint32@12@SAKAEBU12@@Z@DataStructures@@URakNetGUID@RakNet@@PEAUStrAndGuidAndRoom@RelayPlugin@5@@RakNet@@YAPEAUNode@?$Hash@URakNetGUID@RakNet@@PEAUStrAndGuidAndRoom@RelayPlugin@2@$0BPKA@$1?ToUint32@12@SAKAEBU12@@Z@DataStructures@@PEBDIAEBURakNetGUID@0@AEBQEAUStrAndGuidAndRoom@RelayPlugin@0@@Z @347
??$OP_NEW_2@UNode@?$Hash@USystemAddress@RakNet@@UClientState@@$0BAA@$1?SystemAddressHash@@YAKAEBU12@@Z@DataStructures@@USystemAddress@RakNet@@UClientState@@@RakNet@@YAPEAUNode@?$Hash@USystemAddress@RakNet@@UClientState@@$0BAA@$1?SystemAddressHash@@YAKAEBU12@@Z@DataStructures@@PEBDIAEBUSystemAddress@0@AEBUClientState@@@Z @348
??$OP_NEW_2@UNode@?$Hash@VRakString@RakNet@@P6AXPEAVBitStream@2@0PEAUPacket@2@@Z$0EA@$1?ToInteger@12@SAKAEBV12@@Z@DataStructures@@VRakString@RakNet@@P6AXPEAVBitStream@5@0PEAUPacket@5@@Z@RakNet@@YAPEAUNode@?$Hash@VRakString@RakNet@@P6AXPEAVBitStream@2@0PEAUPacket@2@@Z$0EA@$1?ToInteger@12@SAKAEBV12@@Z@DataStructures@@PEBDIAEBVRakString@0@AEBQ6AXPEAVBitStream@0@2PEAUPacket@0@@Z@Z @349
??$OP_NEW_2@UNode@?$Hash@VRakString@RakNet@@P6AXPEAVBitStream@2@PEAUPacket@2@@Z$0EA@$1?ToInteger@12@SAKAEBV12@@Z@DataStructures@@VRakString@RakNet@@P6AXPEAVBitStream@5@PEAUPacket@5@@Z@RakNet@@YAPEAUNode@?$Hash@VRakString@RakNet@@P6AXPEAVBitStream@2@PEAUPacket@2@@Z$0EA@$1?ToInteger@12@SAKAEBV12@@Z@DataStructures@@PEBDIAEBVRakString@0@AEBQ6AXPEAVBitStream@0@PEAUPacket@0@@Z@Z @350
??$OP_NEW_2@UNode@?$Hash@VRakString@RakNet@@PEAULocalSlot@RPC4@2@$0BAA@$1?ToInteger@12@SAKAEBV12@@Z@DataStructures@@VRakString@RakNet@@PEAULocalSlot@RPC4@5@@RakNet@@YAPEAUNode@?$Hash@VRakString@RakNet@@PEAULocalSlot@RPC4@2@$0BAA@$1?ToInteger@12@SAKAEBV12@@Z@DataStructures@@PEBDIAEBVRakString@0@AEBQEAULocalSlot@RPC4@0@@Z @351
??$OP_NEW_2@UNode@?$Hash@VRakString@RakNet@@PEAUStrAndGuidAndRoom@RelayPlugin@2@$0BPKA@$1?ToInteger@12@SAKAEBV12@@Z@DataStructures@@VRakString@RakNet@@PEAUStrAndGuidAndRoom@RelayPlugin@5@@RakNet@@YAPEAUNode@?$Hash@VRakString@RakNet@@PEAUStrAndGuidAndRoom@RelayPlugin@2@$0BPKA@$1?ToInteger@12@SAKAEBV12@@Z@DataStructures@@PEBDIAEBVRakString@0@AEBQEAUStrAndGuidAndRoom@RelayPlugin@0@@Z @352
??$OP_NEW_2@UNode@?$Hash@VRakString@RakNet@@PEAUTimeAndValueQueue@StatisticsHistory@2@$0CA@$1?ToInteger@12@SAKAEBV12@@Z@DataStructures@@VRakString@RakNet@@PEAUTimeAndValueQueue@StatisticsHistory@5@@RakNet@@YAPEAUNode@?$Hash@VRakString@RakNet@@PEAUTimeAndValueQueue@StatisticsHistory@2@$0CA@$1?ToInteger@12@SAKAEBV12@@Z@DataStructures@@PEBDIAEBVRakString@0@AEBQEAUTimeAndValueQueue@StatisticsHistory@0@@Z @353
??$OP_NEW_2@UNode@?$Hash@VRakString@RakNet@@V12@$0BA@$1?ToInteger@12@SAKAEBV12@@Z@DataStructures@@VRakString@RakNet@@V45@@RakNet@@YAPEAUNode@?$Hash@VRakString@RakNet@@V12@$0BA@$1?ToInteger@12@SAKAEBV12@@Z@DataStructures@@PEBDIAEBVRakString@0@1@Z @354
??$OP_NEW_2@UNode@?$Hash@_KPEAVTM_Team@RakNet@@$0BAA@$1?ToUint32@12@SAKAEB_K@Z@DataStructures@@_KPEAVTM_Team@RakNet@@@RakNet@@YAPEAUNode@?$Hash@_KPEAVTM_Team@RakNet@@$0BAA@$1?ToUint32@12@SAKAEB_K@Z@DataStructures@@PEBDIAEB_KAEBQEAVTM_Team@0@@Z @355
??$OP_NEW_2@UNode@?$Hash@_KPEAVTM_TeamMember@RakNet@@$0BAA@$1?ToUint32@12@SAKAEB_K@Z@DataStructures@@_KPEAVTM_TeamMember@RakNet@@@RakNet@@YAPEAUNode@?$Hash@_KPEAVTM_TeamMember@RakNet@@$0BAA@$1?ToUint32@12@SAKAEB_K@Z@DataStructures@@PEBDIAEB_KAEBQEAVTM_TeamMember@0@@Z @356
??$OP_NEW_4@UCell@Table@DataStructures@@NPEADPEAXW4ColumnType@23@@RakNet@@YAPEAUCell@Table@DataStructures@@PEBDIAEBNAEBQEADAEBQEAXAEBW4ColumnType@23@@Z @357
??$OP_NEW_ARRAY@D@RakNet@@YAPEADHPEBDI@Z @358
??$OP_NEW_ARRAY@E@RakNet@@YAPEAEHPEBDI@Z @359
??$OP_NEW_ARRAY@G@RakNet@@YAPEAGHPEBDI@Z @360
??$OP_NEW_ARRAY@H@RakNet@@YAPEAHHPEBDI@Z @361
??$OP_NEW_ARRAY@I@RakNet@@YAPEAIHPEBDI@Z @362
??$OP_NEW_ARRAY@P6AHUThreadData@FileListTransfer@RakNet@@PEA_NPEAX@Z@RakNet@@YAPEAP6AHUThreadData@FileListTransfer@0@PEA_NPEAX@ZHPEBDI@Z @363
??$OP_NEW_ARRAY@PEAD@RakNet@@YAPEAPEADHPEBDI@Z @364
??$OP_NEW_ARRAY@PEAPEAURemoteClient@RakNet@@@RakNet@@YAPEAPEAPEAURemoteClient@0@HPEBDI@Z @365
??$OP_NEW_ARRAY@PEAU?$Page@IPEAURow@Table@DataStructures@@$0BA@@DataStructures@@@RakNet@@YAPEAPEAU?$Page@IPEAURow@Table@DataStructures@@$0BA@@DataStructures@@HPEBDI@Z @366
??$OP_NEW_ARRAY@PEAUBanStruct@RakPeer@RakNet@@@RakNet@@YAPEAPEAUBanStruct@RakPeer@0@HPEBDI@Z @367
??$OP_NEW_ARRAY@PEAUBufferedCommandStruct@RakPeer@RakNet@@@RakNet@@YAPEAPEAUBufferedCommandStruct@RakPeer@0@HPEBDI@Z @368
??$OP_NEW_ARRAY@PEAUBufferedGetResponseFromServer@CloudServer@RakNet@@@RakNet@@YAPEAPEAUBufferedGetResponseFromServer@CloudServer@0@HPEBDI@Z @369
??$OP_NEW_ARRAY@PEAUCell@Table@DataStructures@@@RakNet@@YAPEAPEAUCell@Table@DataStructures@@HPEBDI@Z @370
??$OP_NEW_ARRAY@PEAUChangedVariablesList@VariableDeltaSerializer@RakNet@@@RakNet@@YAPEAPEAUChangedVariablesList@VariableDeltaSerializer@0@HPEBDI@Z @371
??$OP_NEW_ARRAY@PEAUCloudData@CloudServer@RakNet@@@RakNet@@YAPEAPEAUCloudData@CloudServer@0@HPEBDI@Z @372
??$OP_NEW_ARRAY@PEAUCloudDataList@CloudServer@RakNet@@@RakNet@@YAPEAPEAUCloudDataList@CloudServer@0@HPEBDI@Z @373
??$OP_NEW_ARRAY@PEAUCloudQueryRow@RakNet@@@RakNet@@YAPEAPEAUCloudQueryRow@0@HPEBDI@Z @374
??$OP_NEW_ARRAY@PEAUConnectionAttempt@NatPunchthroughServer@RakNet@@@RakNet@@YAPEAPEAUConnectionAttempt@NatPunchthroughServer@0@HPEBDI@Z @375
??$OP_NEW_ARRAY@PEAUConnnectRequest@Router2@RakNet@@@RakNet@@YAPEAPEAUConnnectRequest@Router2@0@HPEBDI@Z @376
??$OP_NEW_ARRAY@PEAUFCM2Participant@FullyConnectedMesh2@RakNet@@@RakNet@@YAPEAPEAUFCM2Participant@FullyConnectedMesh2@0@HPEBDI@Z @377
??$OP_NEW_ARRAY@PEAUFileToPush@FileListTransfer@RakNet@@@RakNet@@YAPEAPEAUFileToPush@FileListTransfer@0@HPEBDI@Z @378
??$OP_NEW_ARRAY@PEAUFileToPushRecipient@FileListTransfer@RakNet@@@RakNet@@YAPEAPEAUFileToPushRecipient@FileListTransfer@0@HPEBDI@Z @379
??$OP_NEW_ARRAY@PEAUFilterSet@RakNet@@@RakNet@@YAPEAPEAUFilterSet@0@HPEBDI@Z @380
??$OP_NEW_ARRAY@PEAUForwardEntry@UDPForwarder@RakNet@@@RakNet@@YAPEAPEAUForwardEntry@UDPForwarder@0@HPEBDI@Z @381
??$OP_NEW_ARRAY@PEAUForwardingRequest@UDPProxyCoordinator@RakNet@@@RakNet@@YAPEAPEAUForwardingRequest@UDPProxyCoordinator@0@HPEBDI@Z @382
??$OP_NEW_ARRAY@PEAUGetRequest@CloudServer@RakNet@@@RakNet@@YAPEAPEAUGetRequest@CloudServer@0@HPEBDI@Z @383
??$OP_NEW_ARRAY@PEAUHuffmanEncodingTreeNode@@@RakNet@@YAPEAPEAUHuffmanEncodingTreeNode@@HPEBDI@Z @384
??$OP_NEW_ARRAY@PEAUInternalPacket@RakNet@@@RakNet@@YAPEAPEAUInternalPacket@0@HPEBDI@Z @385
??$OP_NEW_ARRAY@PEAUKeySubscriberID@CloudServer@RakNet@@@RakNet@@YAPEAPEAUKeySubscriberID@CloudServer@0@HPEBDI@Z @386
??$OP_NEW_ARRAY@PEAULastSerializationResult@RakNet@@@RakNet@@YAPEAPEAULastSerializationResult@0@HPEBDI@Z @387
??$OP_NEW_ARRAY@PEAULocalCallback@RPC4@RakNet@@@RakNet@@YAPEAPEAULocalCallback@RPC4@0@HPEBDI@Z @388
??$OP_NEW_ARRAY@PEAULocalSlot@RPC4@RakNet@@@RakNet@@YAPEAPEAULocalSlot@RPC4@0@HPEBDI@Z @389
??$OP_NEW_ARRAY@PEAUNode@?$Hash@UAddressOrGUID@RakNet@@UFilteredSystem@2@$0IAA@$1?ToInteger@12@SAKAEBU12@@Z@DataStructures@@@RakNet@@YAPEAPEAUNode@?$Hash@UAddressOrGUID@RakNet@@UFilteredSystem@2@$0IAA@$1?ToInteger@12@SAKAEBU12@@Z@DataStructures@@HPEBDI@Z @390
??$OP_NEW_ARRAY@PEAUNode@?$Hash@URakNetGUID@RakNet@@PEAURemoteCloudClient@CloudServer@2@$0IAA@$1?ToUint32@12@SAKAEBU12@@Z@DataStructures@@@RakNet@@YAPEAPEAUNode@?$Hash@URakNetGUID@RakNet@@PEAURemoteCloudClient@CloudServer@2@$0IAA@$1?ToUint32@12@SAKAEBU12@@Z@DataStructures@@HPEBDI@Z @391
??$OP_NEW_ARRAY@PEAUNode@?$Hash@URakNetGUID@RakNet@@PEAUStrAndGuidAndRoom@RelayPlugin@2@$0BPKA@$1?ToUint32@12@SAKAEBU12@@Z@DataStructures@@@RakNet@@YAPEAPEAUNode@?$Hash@URakNetGUID@RakNet@@PEAUStrAndGuidAndRoom@RelayPlugin@2@$0BPKA@$1?ToUint32@12@SAKAEBU12@@Z@DataStructures@@HPEBDI@Z @392
??$OP_NEW_ARRAY@PEAUNode@?$Hash@USystemAddress@RakNet@@UClientState@@$0BAA@$1?SystemAddressHash@@YAKAEBU12@@Z@DataStructures@@@RakNet@@YAPEAPEAUNode@?$Hash@USystemAddress@RakNet@@UClientState@@$0BAA@$1?SystemAddressHash@@YAKAEBU12@@Z@DataStructures@@HPEBDI@Z @393
??$OP_NEW_ARRAY@PEAUNode@?$Hash@VRakString@RakNet@@P6AXPEAVBitStream@2@0PEAUPacket@2@@Z$0EA@$1?ToInteger@12@SAKAEBV12@@Z@DataStructures@@@RakNet@@YAPEAPEAUNode@?$Hash@VRakString@RakNet@@P6AXPEAVBitStream@2@0PEAUPacket@2@@Z$0EA@$1?ToInteger@12@SAKAEBV12@@Z@DataStructures@@HPEBDI@Z @394
??$OP_NEW_ARRAY@PEAUNode@?$Hash@VRakString@RakNet@@P6AXPEAVBitStream@2@PEAUPacket@2@@Z$0EA@$1?ToInteger@12@SAKAEBV12@@Z@DataStructures@@@RakNet@@YAPEAPEAUNode@?$Hash@VRakString@RakNet@@P6AXPEAVBitStream@2@PEAUPacket@2@@Z$0EA@$1?ToInteger@12@SAKAEBV12@@Z@DataStructures@@HPEBDI@Z @395
??$OP_NEW_ARRAY@PEAUNode@?$Hash@VRakString@RakNet@@PEAULocalSlot@RPC4@2@$0BAA@$1?ToInteger@12@SAKAEBV12@@Z@DataStructures@@@RakNet@@YAPEAPEAUNode@?$Hash@VRakString@RakNet@@PEAULocalSlot@RPC4@2@$0BAA@$1?ToInteger@12@SAKAEBV12@@Z@DataStructures@@HPEBDI@Z @396
??$OP_NEW_ARRAY@PEAUNode@?$Hash@VRakString@RakNet@@PEAUStrAndGuidAndRoom@RelayPlugin@2@$0BPKA@$1?ToInteger@12@SAKAEBV12@@Z@DataStructures@@@RakNet@@YAPEAPEAUNode@?$Hash@VRakString@RakNet@@PEAUStrAndGuidAndRoom@RelayPlugin@2@$0BPKA@$1?ToInteger@12@SAKAEBV12@@Z@DataStructures@@HPEBDI@Z @397
??$OP_NEW_ARRAY@PEAUNode@?$Hash@VRakString@RakNet@@PEAUTimeAndValueQueue@StatisticsHistory@2@$0CA@$1?ToInteger@12@SAKAEBV12@@Z@DataStructures@@@RakNet@@YAPEAPEAUNode@?$Hash@VRakString@RakNet@@PEAUTimeAndValueQueue@StatisticsHistory@2@$0CA@$1?ToInteger@12@SAKAEBV12@@Z@DataStructures@@HPEBDI@Z @398
??$OP_NEW_ARRAY@PEAUNode@?$Hash@VRakString@RakNet@@V12@$0BA@$1?ToInteger@12@SAKAEBV12@@Z@DataStructures@@@RakNet@@YAPEAPEAUNode@?$Hash@VRakString@RakNet@@V12@$0BA@$1?ToInteger@12@SAKAEBV12@@Z@DataStructures@@HPEBDI@Z @399
??$OP_NEW_ARRAY@PEAUNode@?$Hash@_KPEAVTM_Team@RakNet@@$0BAA@$1?ToUint32@12@SAKAEB_K@Z@DataStructures@@@RakNet@@YAPEAPEAUNode@?$Hash@_KPEAVTM_Team@RakNet@@$0BAA@$1?ToUint32@12@SAKAEB_K@Z@DataStructures@@HPEBDI@Z @400
??$OP_NEW_ARRAY@PEAUNode@?$Hash@_KPEAVTM_TeamMember@RakNet@@$0BAA@$1?ToUint32@12@SAKAEB_K@Z@DataStructures@@@RakNet@@YAPEAPEAUNode@?$Hash@_KPEAVTM_TeamMember@RakNet@@$0BAA@$1?ToUint32@12@SAKAEB_K@Z@DataStructures@@HPEBDI@Z @401
??$OP_NEW_ARRAY@PEAUNonceAndRemoteSystemRequest@TwoWayAuthentication@RakNet@@@RakNet@@YAPEAPEAUNonceAndRemoteSystemRequest@TwoWayAuthentication@0@HPEBDI@Z @402
??$OP_NEW_ARRAY@PEAUPacket@RakNet@@@RakNet@@YAPEAPEAUPacket@0@HPEBDI@Z @403
??$OP_NEW_ARRAY@PEAUPingServerGroup@UDPProxyClient@RakNet@@@RakNet@@YAPEAPEAUPingServerGroup@UDPProxyClient@0@HPEBDI@Z @404
??$OP_NEW_ARRAY@PEAURM3World@ReplicaManager3@RakNet@@@RakNet@@YAPEAPEAURM3World@ReplicaManager3@0@HPEBDI@Z @405
??$OP_NEW_ARRAY@PEAURNS2RecvStruct@RakNet@@@RakNet@@YAPEAPEAURNS2RecvStruct@0@HPEBDI@Z @406
??$OP_NEW_ARRAY@PEAURP_Group@RelayPlugin@RakNet@@@RakNet@@YAPEAPEAURP_Group@RelayPlugin@0@HPEBDI@Z @407
??$OP_NEW_ARRAY@PEAUReadyEventNode@ReadyEvent@RakNet@@@RakNet@@YAPEAPEAUReadyEventNode@ReadyEvent@0@HPEBDI@Z @408
??$OP_NEW_ARRAY@PEAURemoteCloudClient@CloudServer@RakNet@@@RakNet@@YAPEAPEAURemoteCloudClient@CloudServer@0@HPEBDI@Z @409
??$OP_NEW_ARRAY@PEAURemoteServer@CloudServer@RakNet@@@RakNet@@YAPEAPEAURemoteServer@CloudServer@0@HPEBDI@Z @410
??$OP_NEW_ARRAY@PEAURemoteSystem@ConnectionGraph2@RakNet@@@RakNet@@YAPEAPEAURemoteSystem@ConnectionGraph2@0@HPEBDI@Z @411
??$OP_NEW_ARRAY@PEAURemoteSystemIndex@RakNet@@@RakNet@@YAPEAPEAURemoteSystemIndex@0@HPEBDI@Z @412
??$OP_NEW_ARRAY@PEAURemoteSystemStruct@RakPeer@RakNet@@@RakNet@@YAPEAPEAURemoteSystemStruct@RakPeer@0@HPEBDI@Z @413
??$OP_NEW_ARRAY@PEAURemoteSystemVariableHistory@VariableDeltaSerializer@RakNet@@@RakNet@@YAPEAPEAURemoteSystemVariableHistory@VariableDeltaSerializer@0@HPEBDI@Z @414
??$OP_NEW_ARRAY@PEAURequest@HTTPConnection2@RakNet@@@RakNet@@YAPEAPEAURequest@HTTPConnection2@0@HPEBDI@Z @415
??$OP_NEW_ARRAY@PEAURequestedConnectionStruct@RakPeer@RakNet@@@RakNet@@YAPEAPEAURequestedConnectionStruct@RakPeer@0@HPEBDI@Z @416
??$OP_NEW_ARRAY@PEAURow@Table@DataStructures@@@RakNet@@YAPEAPEAURow@Table@DataStructures@@HPEBDI@Z @417
??$OP_NEW_ARRAY@PEAUSharedString@RakString@RakNet@@@RakNet@@YAPEAPEAUSharedString@RakString@0@HPEBDI@Z @418
??$OP_NEW_ARRAY@PEAUSocketQueryOutput@RakPeer@RakNet@@@RakNet@@YAPEAPEAUSocketQueryOutput@RakPeer@0@HPEBDI@Z @419
??$OP_NEW_ARRAY@PEAUSplitPacketChannel@RakNet@@@RakNet@@YAPEAPEAUSplitPacketChannel@0@HPEBDI@Z @420
??$OP_NEW_ARRAY@PEAUStartForwardingInputStruct@UDPForwarder@RakNet@@@RakNet@@YAPEAPEAUStartForwardingInputStruct@UDPForwarder@0@HPEBDI@Z @421
??$OP_NEW_ARRAY@PEAUStopForwardingStruct@UDPForwarder@RakNet@@@RakNet@@YAPEAPEAUStopForwardingStruct@UDPForwarder@0@HPEBDI@Z @422
??$OP_NEW_ARRAY@PEAUStrAndGuidAndRoom@RelayPlugin@RakNet@@@RakNet@@YAPEAPEAUStrAndGuidAndRoom@RelayPlugin@0@HPEBDI@Z @423
??$OP_NEW_ARRAY@PEAUSystemAddress@RakNet@@@RakNet@@YAPEAPEAUSystemAddress@0@HPEBDI@Z @424
??$OP_NEW_ARRAY@PEAUTelnetClient@TelnetTransport@RakNet@@@RakNet@@YAPEAPEAUTelnetClient@TelnetTransport@0@HPEBDI@Z @425
??$OP_NEW_ARRAY@PEAUTimeAndValueQueue@StatisticsHistory@RakNet@@@RakNet@@YAPEAPEAUTimeAndValueQueue@StatisticsHistory@0@HPEBDI@Z @426
??$OP_NEW_ARRAY@PEAUTrackedObject@StatisticsHistory@RakNet@@@RakNet@@YAPEAPEAUTrackedObject@StatisticsHistory@0@HPEBDI@Z @427
??$OP_NEW_ARRAY@PEAUUser@NatPunchthroughServer@RakNet@@@RakNet@@YAPEAPEAUUser@NatPunchthroughServer@0@HPEBDI@Z @428
??$OP_NEW_ARRAY@PEAUVerifiedJoinInProgress@FullyConnectedMesh2@RakNet@@@RakNet@@YAPEAPEAUVerifiedJoinInProgress@FullyConnectedMesh2@0@HPEBDI@Z @429
??$OP_NEW_ARRAY@PEAUVoiceBuffer@RakNet@@@RakNet@@YAPEAPEAUVoiceBuffer@0@HPEBDI@Z @430
??$OP_NEW_ARRAY@PEAUVoiceChannel@RakNet@@@RakNet@@YAPEAPEAUVoiceChannel@0@HPEBDI@Z @431
??$OP_NEW_ARRAY@PEAVBitStream@RakNet@@@RakNet@@YAPEAPEAVBitStream@0@HPEBDI@Z @432
??$OP_NEW_ARRAY@PEAVCloudServerQueryFilter@RakNet@@@RakNet@@YAPEAPEAVCloudServerQueryFilter@0@HPEBDI@Z @433
??$OP_NEW_ARRAY@PEAVCommandParserInterface@RakNet@@@RakNet@@YAPEAPEAVCommandParserInterface@0@HPEBDI@Z @434
??$OP_NEW_ARRAY@PEAVConnection_RM3@RakNet@@@RakNet@@YAPEAPEAVConnection_RM3@0@HPEBDI@Z @435
??$OP_NEW_ARRAY@PEAVFileListProgress@RakNet@@@RakNet@@YAPEAPEAVFileListProgress@0@HPEBDI@Z @436
??$OP_NEW_ARRAY@PEAVPluginInterface2@RakNet@@@RakNet@@YAPEAPEAVPluginInterface2@0@HPEBDI@Z @437
??$OP_NEW_ARRAY@PEAVRackspace2EventCallback@RakNet@@@RakNet@@YAPEAPEAVRackspace2EventCallback@0@HPEBDI@Z @438
??$OP_NEW_ARRAY@PEAVRakNetSocket2@RakNet@@@RakNet@@YAPEAPEAVRakNetSocket2@0@HPEBDI@Z @439
??$OP_NEW_ARRAY@PEAVReplica3@RakNet@@@RakNet@@YAPEAPEAVReplica3@0@HPEBDI@Z @440
??$OP_NEW_ARRAY@PEAVTM_Team@RakNet@@@RakNet@@YAPEAPEAVTM_Team@0@HPEBDI@Z @441
??$OP_NEW_ARRAY@PEAVTM_TeamMember@RakNet@@@RakNet@@YAPEAPEAVTM_TeamMember@0@HPEBDI@Z @442
??$OP_NEW_ARRAY@PEAVTM_World@RakNet@@@RakNet@@YAPEAPEAVTM_World@0@HPEBDI@Z @443
??$OP_NEW_ARRAY@PEAX@RakNet@@YAPEAPEAXHPEBDI@Z @444
??$OP_NEW_ARRAY@U?$RangeNode@Uuint24_t@RakNet@@@DataStructures@@@RakNet@@YAPEAU?$RangeNode@Uuint24_t@RakNet@@@DataStructures@@HPEBDI@Z @445
??$OP_NEW_ARRAY@UAddrAndGuid@NatPunchthroughClient@RakNet@@@RakNet@@YAPEAUAddrAndGuid@NatPunchthroughClient@0@HPEBDI@Z @446
??$OP_NEW_ARRAY@UAddressOrGUID@RakNet@@@RakNet@@YAPEAUAddressOrGUID@0@HPEBDI@Z @447
??$OP_NEW_ARRAY@UBadResponse@HTTPConnection@RakNet@@@RakNet@@YAPEAUBadResponse@HTTPConnection@0@HPEBDI@Z @448
??$OP_NEW_ARRAY@UClientState@@@RakNet@@YAPEAUClientState@@HPEBDI@Z @449
??$OP_NEW_ARRAY@UCloudKey@RakNet@@@RakNet@@YAPEAUCloudKey@0@HPEBDI@Z @450
??$OP_NEW_ARRAY@UColumnDescriptor@Table@DataStructures@@@RakNet@@YAPEAUColumnDescriptor@Table@DataStructures@@HPEBDI@Z @451
??$OP_NEW_ARRAY@UConnectionRequestSystem@Router2@RakNet@@@RakNet@@YAPEAUConnectionRequestSystem@Router2@0@HPEBDI@Z @452
??$OP_NEW_ARRAY@UDSTAndFac@NatPunchthroughClient@RakNet@@@RakNet@@YAPEAUDSTAndFac@NatPunchthroughClient@0@HPEBDI@Z @453
??$OP_NEW_ARRAY@UDatagramHistoryNode@ReliabilityLayer@RakNet@@@RakNet@@YAPEAUDatagramHistoryNode@ReliabilityLayer@0@HPEBDI@Z @454
??$OP_NEW_ARRAY@UFileListNode@RakNet@@@RakNet@@YAPEAUFileListNode@0@HPEBDI@Z @455
??$OP_NEW_ARRAY@UFilteredSystem@RakNet@@@RakNet@@YAPEAUFilteredSystem@0@HPEBDI@Z @456
??$OP_NEW_ARRAY@UForwardedConnection@Router2@RakNet@@@RakNet@@YAPEAUForwardedConnection@Router2@0@HPEBDI@Z @457
??$OP_NEW_ARRAY@UHeapNode@?$Heap@_KPEAUInternalPacket@RakNet@@$0A@@DataStructures@@@RakNet@@YAPEAUHeapNode@?$Heap@_KPEAUInternalPacket@RakNet@@$0A@@DataStructures@@HPEBDI@Z @458
??$OP_NEW_ARRAY@UIndexAndType@VariadicSQLParser@@@RakNet@@YAPEAUIndexAndType@VariadicSQLParser@@HPEBDI@Z @459
??$OP_NEW_ARRAY@UJoinRequestHelper@TM_World@RakNet@@@RakNet@@YAPEAUJoinRequestHelper@TM_World@0@HPEBDI@Z @460
??$OP_NEW_ARRAY@ULocalSlotObject@RPC4@RakNet@@@RakNet@@YAPEAULocalSlotObject@RPC4@0@HPEBDI@Z @461
??$OP_NEW_ARRAY@UMapNode@?$Map@GPEAUFileListReceiver@RakNet@@$1??$defaultMapKeyComparison@G@DataStructures@@YAHAEBG0@Z@DataStructures@@@RakNet@@YAPEAUMapNode@?$Map@GPEAUFileListReceiver@RakNet@@$1??$defaultMapKeyComparison@G@DataStructures@@YAHAEBG0@Z@DataStructures@@HPEBDI@Z @462
??$OP_NEW_ARRAY@UMapNode@?$Map@HPEAVHuffmanEncodingTree@RakNet@@$1??$defaultMapKeyComparison@H@DataStructures@@YAHAEBH0@Z@DataStructures@@@RakNet@@YAPEAUMapNode@?$Map@HPEAVHuffmanEncodingTree@RakNet@@$1??$defaultMapKeyComparison@H@DataStructures@@YAHAEBH0@Z@DataStructures@@HPEBDI@Z @463
??$OP_NEW_ARRAY@UMapNode@?$Map@IUFLR_MemoryBlock@RakNet@@$1??$defaultMapKeyComparison@I@DataStructures@@YAHAEBI0@Z@DataStructures@@@RakNet@@YAPEAUMapNode@?$Map@IUFLR_MemoryBlock@RakNet@@$1??$defaultMapKeyComparison@I@DataStructures@@YAHAEBI0@Z@DataStructures@@HPEBDI@Z @464
??$OP_NEW_ARRAY@UMapNode@?$Map@USystemAddress@RakNet@@PEAVByteQueue@DataStructures@@$1??$defaultMapKeyComparison@USystemAddress@RakNet@@@4@YAHAEBU12@0@Z@DataStructures@@@RakNet@@YAPEAUMapNode@?$Map@USystemAddress@RakNet@@PEAVByteQueue@DataStructures@@$1??$defaultMapKeyComparison@USystemAddress@RakNet@@@4@YAHAEBU12@0@Z@DataStructures@@HPEBDI@Z @465
??$OP_NEW_ARRAY@UMiniPunchRequest@Router2@RakNet@@@RakNet@@YAPEAUMiniPunchRequest@Router2@0@HPEBDI@Z @466
??$OP_NEW_ARRAY@UMyTeamMembers@TeamBalancer@RakNet@@@RakNet@@YAPEAUMyTeamMembers@TeamBalancer@0@HPEBDI@Z @467
??$OP_NEW_ARRAY@UNATDetectionAttempt@NatTypeDetectionServer@RakNet@@@RakNet@@YAPEAUNATDetectionAttempt@NatTypeDetectionServer@0@HPEBDI@Z @468
??$OP_NEW_ARRAY@UOutgoingCommand@HTTPConnection@RakNet@@@RakNet@@YAPEAUOutgoingCommand@HTTPConnection@0@HPEBDI@Z @469
??$OP_NEW_ARRAY@UPendingChallenge@TwoWayAuthentication@RakNet@@@RakNet@@YAPEAUPendingChallenge@TwoWayAuthentication@0@HPEBDI@Z @470
??$OP_NEW_ARRAY@URackspaceOperation@Rackspace@RakNet@@@RakNet@@YAPEAURackspaceOperation@Rackspace@0@HPEBDI@Z @471
??$OP_NEW_ARRAY@URakNetGUID@RakNet@@@RakNet@@YAPEAURakNetGUID@0@HPEBDI@Z @472
??$OP_NEW_ARRAY@URakNetStatistics@RakNet@@@RakNet@@YAPEAURakNetStatistics@0@HPEBDI@Z @473
??$OP_NEW_ARRAY@URegisteredCommand@RakNet@@@RakNet@@YAPEAURegisteredCommand@0@HPEBDI@Z @474
??$OP_NEW_ARRAY@URemoteClient@RakNet@@@RakNet@@YAPEAURemoteClient@0@HPEBDI@Z @475
??$OP_NEW_ARRAY@URemoteSystem@ReadyEvent@RakNet@@@RakNet@@YAPEAURemoteSystem@ReadyEvent@0@HPEBDI@Z @476
??$OP_NEW_ARRAY@URemoteSystemStruct@RakPeer@RakNet@@@RakNet@@YAPEAURemoteSystemStruct@RakPeer@0@HPEBDI@Z @477
??$OP_NEW_ARRAY@URequestedTeam@TM_TeamMember@RakNet@@@RakNet@@YAPEAURequestedTeam@TM_TeamMember@0@HPEBDI@Z @478
??$OP_NEW_ARRAY@UServerWithPing@UDPProxyClient@RakNet@@@RakNet@@YAPEAUServerWithPing@UDPProxyClient@0@HPEBDI@Z @479
??$OP_NEW_ARRAY@UServerWithPing@UDPProxyCoordinator@RakNet@@@RakNet@@YAPEAUServerWithPing@UDPProxyCoordinator@0@HPEBDI@Z @480
??$OP_NEW_ARRAY@UStartForwardingOutputStruct@UDPForwarder@RakNet@@@RakNet@@YAPEAUStartForwardingOutputStruct@UDPForwarder@0@HPEBDI@Z @481
??$OP_NEW_ARRAY@UStrAndBool@@@RakNet@@YAPEAUStrAndBool@@HPEBDI@Z @482
??$OP_NEW_ARRAY@UStrAndGuid@RelayPlugin@RakNet@@@RakNet@@YAPEAUStrAndGuid@RelayPlugin@0@HPEBDI@Z @483
??$OP_NEW_ARRAY@USystemAddress@RakNet@@@RakNet@@YAPEAUSystemAddress@0@HPEBDI@Z @484
??$OP_NEW_ARRAY@USystemAddressAndChannel@LogCommandParser@RakNet@@@RakNet@@YAPEAUSystemAddressAndChannel@LogCommandParser@0@HPEBDI@Z @485
??$OP_NEW_ARRAY@USystemAddressAndGuid@ConnectionGraph2@RakNet@@@RakNet@@YAPEAUSystemAddressAndGuid@ConnectionGraph2@0@HPEBDI@Z @486
??$OP_NEW_ARRAY@UTeamMember@TeamBalancer@RakNet@@@RakNet@@YAPEAUTeamMember@TeamBalancer@0@HPEBDI@Z @487
??$OP_NEW_ARRAY@UThreadData@FileListTransfer@RakNet@@@RakNet@@YAPEAUThreadData@FileListTransfer@0@HPEBDI@Z @488
??$OP_NEW_ARRAY@UTimeAndValue2@BPSTracker@RakNet@@@RakNet@@YAPEAUTimeAndValue2@BPSTracker@0@HPEBDI@Z @489
??$OP_NEW_ARRAY@UTimeAndValue@StatisticsHistory@RakNet@@@RakNet@@YAPEAUTimeAndValue@StatisticsHistory@0@HPEBDI@Z @490
??$OP_NEW_ARRAY@UUnreliableWithAckReceiptNode@ReliabilityLayer@RakNet@@@RakNet@@YAPEAUUnreliableWithAckReceiptNode@ReliabilityLayer@0@HPEBDI@Z @491
??$OP_NEW_ARRAY@UVerifiedJoinInProgressMember@FullyConnectedMesh2@RakNet@@@RakNet@@YAPEAUVerifiedJoinInProgressMember@FullyConnectedMesh2@0@HPEBDI@Z @492
??$OP_NEW_ARRAY@V?$List@PEAX@DataStructures@@@RakNet@@YAPEAV?$List@PEAX@DataStructures@@HPEBDI@Z @493
??$OP_NEW_ARRAY@VRakString@RakNet@@@RakNet@@YAPEAVRakString@0@HPEBDI@Z @494
??$OP_NEW_ARRAY@_K@RakNet@@YAPEA_KHPEBDI@Z @495
??$OP_NEW_ARRAY@_N@RakNet@@YAPEA_NHPEBDI@Z @496
??$OP_NEW_ARRAY@_W@RakNet@@YAPEA_WHPEBDI@Z @497
??0?$BPlusTree@IPEAURow@Table@DataStructures@@$0BA@@DataStructures@@QEAA@XZ @498
??0?$CircularLinkedList@PEAUHuffmanEncodingTreeNode@@@DataStructures@@QEAA@AEBV01@@Z @499
??0?$CircularLinkedList@PEAUHuffmanEncodingTreeNode@@@DataStructures@@QEAA@XZ @500
??0?$Hash@UAddressOrGUID@RakNet@@UFilteredSystem@2@$0IAA@$1?ToInteger@12@SAKAEBU12@@Z@DataStructures@@QEAA@XZ @501
??0?$Hash@URakNetGUID@RakNet@@PEAURemoteCloudClient@CloudServer@2@$0IAA@$1?ToUint32@12@SAKAEBU12@@Z@DataStructures@@QEAA@XZ @502
??0?$Hash@URakNetGUID@RakNet@@PEAUStrAndGuidAndRoom@RelayPlugin@2@$0BPKA@$1?ToUint32@12@SAKAEBU12@@Z@DataStructures@@QEAA@XZ @503
??0?$Hash@USystemAddress@RakNet@@UClientState@@$0BAA@$1?SystemAddressHash@@YAKAEBU12@@Z@DataStructures@@QEAA@XZ @504
??0?$Hash@VRakString@RakNet@@P6AXPEAVBitStream@2@0PEAUPacket@2@@Z$0EA@$1?ToInteger@12@SAKAEBV12@@Z@DataStructures@@QEAA@XZ @505
??0?$Hash@VRakString@RakNet@@P6AXPEAVBitStream@2@PEAUPacket@2@@Z$0EA@$1?ToInteger@12@SAKAEBV12@@Z@DataStructures@@QEAA@XZ @506
??0?$Hash@VRakString@RakNet@@PEAULocalSlot@RPC4@2@$0BAA@$1?ToInteger@12@SAKAEBV12@@Z@DataStructures@@QEAA@XZ @507
??0?$Hash@VRakString@RakNet@@PEAUStrAndGuidAndRoom@RelayPlugin@2@$0BPKA@$1?ToInteger@12@SAKAEBV12@@Z@DataStructures@@QEAA@XZ @508
??0?$Hash@VRakString@RakNet@@PEAUTimeAndValueQueue@StatisticsHistory@2@$0CA@$1?ToInteger@12@SAKAEBV12@@Z@DataStructures@@QEAA@XZ @509
??0?$Hash@VRakString@RakNet@@V12@$0BA@$1?ToInteger@12@SAKAEBV12@@Z@DataStructures@@QEAA@XZ @510
??0?$Hash@_KPEAVTM_Team@RakNet@@$0BAA@$1?ToUint32@12@SAKAEB_K@Z@DataStructures@@QEAA@XZ @511
??0?$Hash@_KPEAVTM_TeamMember@RakNet@@$0BAA@$1?ToUint32@12@SAKAEB_K@Z@DataStructures@@QEAA@XZ @512
??0?$Heap@_KPEAUInternalPacket@RakNet@@$0A@@DataStructures@@QEAA@AEBV01@@Z @513
??0?$Heap@_KPEAUInternalPacket@RakNet@@$0A@@DataStructures@@QEAA@XZ @514
??0?$LinkedList@PEAUHuffmanEncodingTreeNode@@@DataStructures@@QEAA@XZ @515
??0?$List@E@DataStructures@@QEAA@XZ @516
??0?$List@G@DataStructures@@QEAA@AEBV01@@Z @517
??0?$List@G@DataStructures@@QEAA@XZ @518
??0?$List@I@DataStructures@@QEAA@AEBV01@@Z @519
??0?$List@I@DataStructures@@QEAA@XZ @520
??0?$List@PEAUBanStruct@RakPeer@RakNet@@@DataStructures@@QEAA@XZ @521
??0?$List@PEAUBufferedGetResponseFromServer@CloudServer@RakNet@@@DataStructures@@QEAA@XZ @522
??0?$List@PEAUCell@Table@DataStructures@@@DataStructures@@QEAA@AEBV01@@Z @523
??0?$List@PEAUCell@Table@DataStructures@@@DataStructures@@QEAA@XZ @524
??0?$List@PEAUChangedVariablesList@VariableDeltaSerializer@RakNet@@@DataStructures@@QEAA@XZ @525
??0?$List@PEAUCloudData@CloudServer@RakNet@@@DataStructures@@QEAA@XZ @526
??0?$List@PEAUCloudDataList@CloudServer@RakNet@@@DataStructures@@QEAA@XZ @527
??0?$List@PEAUCloudQueryRow@RakNet@@@DataStructures@@QEAA@AEBV01@@Z @528
??0?$List@PEAUCloudQueryRow@RakNet@@@DataStructures@@QEAA@XZ @529
??0?$List@PEAUConnectionAttempt@NatPunchthroughServer@RakNet@@@DataStructures@@QEAA@XZ @530
??0?$List@PEAUConnnectRequest@Router2@RakNet@@@DataStructures@@QEAA@AEBV01@@Z @531
??0?$List@PEAUConnnectRequest@Router2@RakNet@@@DataStructures@@QEAA@XZ @532
??0?$List@PEAUFCM2Participant@FullyConnectedMesh2@RakNet@@@DataStructures@@QEAA@XZ @533
??0?$List@PEAUFileToPushRecipient@FileListTransfer@RakNet@@@DataStructures@@QEAA@AEBV01@@Z @534
??0?$List@PEAUFileToPushRecipient@FileListTransfer@RakNet@@@DataStructures@@QEAA@XZ @535
??0?$List@PEAUFilterSet@RakNet@@@DataStructures@@QEAA@XZ @536
??0?$List@PEAUForwardEntry@UDPForwarder@RakNet@@@DataStructures@@QEAA@AEBV01@@Z @537
??0?$List@PEAUForwardEntry@UDPForwarder@RakNet@@@DataStructures@@QEAA@XZ @538
??0?$List@PEAUForwardingRequest@UDPProxyCoordinator@RakNet@@@DataStructures@@QEAA@XZ @539
??0?$List@PEAUGetRequest@CloudServer@RakNet@@@DataStructures@@QEAA@XZ @540
??0?$List@PEAUInternalPacket@RakNet@@@DataStructures@@QEAA@XZ @541
??0?$List@PEAUKeySubscriberID@CloudServer@RakNet@@@DataStructures@@QEAA@XZ @542
??0?$List@PEAULastSerializationResult@RakNet@@@DataStructures@@QEAA@AEBV01@@Z @543
??0?$List@PEAULastSerializationResult@RakNet@@@DataStructures@@QEAA@XZ @544
??0?$List@PEAULocalCallback@RPC4@RakNet@@@DataStructures@@QEAA@XZ @545
??0?$List@PEAULocalSlot@RPC4@RakNet@@@DataStructures@@QEAA@XZ @546
??0?$List@PEAUNonceAndRemoteSystemRequest@TwoWayAuthentication@RakNet@@@DataStructures@@QEAA@AEBV01@@Z @547
??0?$List@PEAUNonceAndRemoteSystemRequest@TwoWayAuthentication@RakNet@@@DataStructures@@QEAA@XZ @548
??0?$List@PEAUPingServerGroup@UDPProxyClient@RakNet@@@DataStructures@@QEAA@AEBV01@@Z @549
??0?$List@PEAUPingServerGroup@UDPProxyClient@RakNet@@@DataStructures@@QEAA@XZ @550
??0?$List@PEAURM3World@ReplicaManager3@RakNet@@@DataStructures@@QEAA@AEBV01@@Z @551
??0?$List@PEAURM3World@ReplicaManager3@RakNet@@@DataStructures@@QEAA@XZ @552
??0?$List@PEAURP_Group@RelayPlugin@RakNet@@@DataStructures@@QEAA@AEBV01@@Z @553
??0?$List@PEAURP_Group@RelayPlugin@RakNet@@@DataStructures@@QEAA@XZ @554
??0?$List@PEAUReadyEventNode@ReadyEvent@RakNet@@@DataStructures@@QEAA@XZ @555
??0?$List@PEAURemoteCloudClient@CloudServer@RakNet@@@DataStructures@@QEAA@XZ @556
??0?$List@PEAURemoteServer@CloudServer@RakNet@@@DataStructures@@QEAA@XZ @557
??0?$List@PEAURemoteSystem@ConnectionGraph2@RakNet@@@DataStructures@@QEAA@XZ @558
??0?$List@PEAURemoteSystemVariableHistory@VariableDeltaSerializer@RakNet@@@DataStructures@@QEAA@XZ @559
??0?$List@PEAURequest@HTTPConnection2@RakNet@@@DataStructures@@QEAA@AEBV01@@Z @560
??0?$List@PEAURequest@HTTPConnection2@RakNet@@@DataStructures@@QEAA@XZ @561
??0?$List@PEAURow@Table@DataStructures@@@DataStructures@@QEAA@XZ @562
??0?$List@PEAUSharedString@RakString@RakNet@@@DataStructures@@QEAA@XZ @563
??0?$List@PEAUSplitPacketChannel@RakNet@@@DataStructures@@QEAA@XZ @564
??0?$List@PEAUStrAndGuidAndRoom@RelayPlugin@RakNet@@@DataStructures@@QEAA@XZ @565
??0?$List@PEAUTelnetClient@TelnetTransport@RakNet@@@DataStructures@@QEAA@AEBV01@@Z @566
??0?$List@PEAUTelnetClient@TelnetTransport@RakNet@@@DataStructures@@QEAA@XZ @567
??0?$List@PEAUTimeAndValueQueue@StatisticsHistory@RakNet@@@DataStructures@@QEAA@XZ @568
??0?$List@PEAUTrackedObject@StatisticsHistory@RakNet@@@DataStructures@@QEAA@XZ @569
??0?$List@PEAUUser@NatPunchthroughServer@RakNet@@@DataStructures@@QEAA@XZ @570
??0?$List@PEAUVerifiedJoinInProgress@FullyConnectedMesh2@RakNet@@@DataStructures@@QEAA@XZ @571
??0?$List@PEAUVoiceBuffer@RakNet@@@DataStructures@@QEAA@XZ @572
??0?$List@PEAUVoiceChannel@RakNet@@@DataStructures@@QEAA@XZ @573
??0?$List@PEAVCloudServerQueryFilter@RakNet@@@DataStructures@@QEAA@AEBV01@@Z @574
??0?$List@PEAVCloudServerQueryFilter@RakNet@@@DataStructures@@QEAA@XZ @575
??0?$List@PEAVCommandParserInterface@RakNet@@@DataStructures@@QEAA@AEBV01@@Z @576
??0?$List@PEAVCommandParserInterface@RakNet@@@DataStructures@@QEAA@XZ @577
??0?$List@PEAVConnection_RM3@RakNet@@@DataStructures@@QEAA@XZ @578
??0?$List@PEAVFileListProgress@RakNet@@@DataStructures@@QEAA@AEBV01@@Z @579
??0?$List@PEAVFileListProgress@RakNet@@@DataStructures@@QEAA@XZ @580
??0?$List@PEAVPluginInterface2@RakNet@@@DataStructures@@QEAA@AEBV01@@Z @581
??0?$List@PEAVPluginInterface2@RakNet@@@DataStructures@@QEAA@XZ @582
??0?$List@PEAVRackspace2EventCallback@RakNet@@@DataStructures@@QEAA@AEBV01@@Z @583
??0?$List@PEAVRackspace2EventCallback@RakNet@@@DataStructures@@QEAA@XZ @584
??0?$List@PEAVRakNetSocket2@RakNet@@@DataStructures@@QEAA@XZ @585
??0?$List@PEAVReplica3@RakNet@@@DataStructures@@QEAA@AEBV01@@Z @586
??0?$List@PEAVReplica3@RakNet@@@DataStructures@@QEAA@XZ @587
??0?$List@PEAVTM_Team@RakNet@@@DataStructures@@QEAA@AEBV01@@Z @588
??0?$List@PEAVTM_Team@RakNet@@@DataStructures@@QEAA@XZ @589
??0?$List@PEAVTM_TeamMember@RakNet@@@DataStructures@@QEAA@AEBV01@@Z @590
??0?$List@PEAVTM_TeamMember@RakNet@@@DataStructures@@QEAA@XZ @591
??0?$List@PEAVTM_World@RakNet@@@DataStructures@@QEAA@AEBV01@@Z @592
??0?$List@PEAVTM_World@RakNet@@@DataStructures@@QEAA@XZ @593
??0?$List@PEAX@DataStructures@@QEAA@XZ @594
??0?$List@U?$RangeNode@Uuint24_t@RakNet@@@DataStructures@@@DataStructures@@QEAA@XZ @595
??0?$List@UAddrAndGuid@NatPunchthroughClient@RakNet@@@DataStructures@@QEAA@AEBV01@@Z @596
??0?$List@UAddrAndGuid@NatPunchthroughClient@RakNet@@@DataStructures@@QEAA@XZ @597
??0?$List@UAddressOrGUID@RakNet@@@DataStructures@@QEAA@XZ @598
??0?$List@UClientState@@@DataStructures@@QEAA@XZ @599
??0?$List@UCloudKey@RakNet@@@DataStructures@@QEAA@AEBV01@@Z @600
??0?$List@UCloudKey@RakNet@@@DataStructures@@QEAA@XZ @601
??0?$List@UColumnDescriptor@Table@DataStructures@@@DataStructures@@QEAA@AEBV01@@Z @602
??0?$List@UColumnDescriptor@Table@DataStructures@@@DataStructures@@QEAA@XZ @603
??0?$List@UConnectionRequestSystem@Router2@RakNet@@@DataStructures@@QEAA@XZ @604
??0?$List@UFileListNode@RakNet@@@DataStructures@@QEAA@AEBV01@@Z @605
??0?$List@UFileListNode@RakNet@@@DataStructures@@QEAA@XZ @606
??0?$List@UFilteredSystem@RakNet@@@DataStructures@@QEAA@XZ @607
??0?$List@UForwardedConnection@Router2@RakNet@@@DataStructures@@QEAA@AEBV01@@Z @608
??0?$List@UForwardedConnection@Router2@RakNet@@@DataStructures@@QEAA@XZ @609
??0?$List@UHeapNode@?$Heap@_KPEAUInternalPacket@RakNet@@$0A@@DataStructures@@@DataStructures@@QEAA@AEBV01@@Z @610
??0?$List@UHeapNode@?$Heap@_KPEAUInternalPacket@RakNet@@$0A@@DataStructures@@@DataStructures@@QEAA@XZ @611
??0?$List@UJoinRequestHelper@TM_World@RakNet@@@DataStructures@@QEAA@XZ @612
??0?$List@ULocalSlotObject@RPC4@RakNet@@@DataStructures@@QEAA@XZ @613
??0?$List@UMapNode@?$Map@GPEAUFileListReceiver@RakNet@@$1??$defaultMapKeyComparison@G@DataStructures@@YAHAEBG0@Z@DataStructures@@@DataStructures@@QEAA@XZ @614
??0?$List@UMapNode@?$Map@HPEAVHuffmanEncodingTree@RakNet@@$1??$defaultMapKeyComparison@H@DataStructures@@YAHAEBH0@Z@DataStructures@@@DataStructures@@QEAA@XZ @615
??0?$List@UMapNode@?$Map@IUFLR_MemoryBlock@RakNet@@$1??$defaultMapKeyComparison@I@DataStructures@@YAHAEBI0@Z@DataStructures@@@DataStructures@@QEAA@XZ @616
??0?$List@UMapNode@?$Map@USystemAddress@RakNet@@PEAVByteQueue@DataStructures@@$1??$defaultMapKeyComparison@USystemAddress@RakNet@@@4@YAHAEBU12@0@Z@DataStructures@@@DataStructures@@QEAA@XZ @617
??0?$List@UMiniPunchRequest@Router2@RakNet@@@DataStructures@@QEAA@AEBV01@@Z @618
??0?$List@UMiniPunchRequest@Router2@RakNet@@@DataStructures@@QEAA@XZ @619
??0?$List@UMyTeamMembers@TeamBalancer@RakNet@@@DataStructures@@QEAA@AEBV01@@Z @620
??0?$List@UMyTeamMembers@TeamBalancer@RakNet@@@DataStructures@@QEAA@XZ @621
??0?$List@UNATDetectionAttempt@NatTypeDetectionServer@RakNet@@@DataStructures@@QEAA@AEBV01@@Z @622
??0?$List@UNATDetectionAttempt@NatTypeDetectionServer@RakNet@@@DataStructures@@QEAA@XZ @623
??0?$List@URackspaceOperation@Rackspace@RakNet@@@DataStructures@@QEAA@AEBV01@@Z @624
??0?$List@URackspaceOperation@Rackspace@RakNet@@@DataStructures@@QEAA@XZ @625
??0?$List@URakNetGUID@RakNet@@@DataStructures@@QEAA@XZ @626
??0?$List@URakNetStatistics@RakNet@@@DataStructures@@QEAA@XZ @627
??0?$List@URegisteredCommand@RakNet@@@DataStructures@@QEAA@XZ @628
??0?$List@URemoteSystem@ReadyEvent@RakNet@@@DataStructures@@QEAA@XZ @629
??0?$List@URequestedTeam@TM_TeamMember@RakNet@@@DataStructures@@QEAA@AEBV01@@Z @630
??0?$List@URequestedTeam@TM_TeamMember@RakNet@@@DataStructures@@QEAA@XZ @631
??0?$List@UServerWithPing@UDPProxyClient@RakNet@@@DataStructures@@QEAA@XZ @632
??0?$List@UServerWithPing@UDPProxyCoordinator@RakNet@@@DataStructures@@QEAA@XZ @633
??0?$List@UStrAndBool@@@DataStructures@@QEAA@XZ @634
??0?$List@UStrAndGuid@RelayPlugin@RakNet@@@DataStructures@@QEAA@XZ @635
??0?$List@USystemAddress@RakNet@@@DataStructures@@QEAA@AEBV01@@Z @636
??0?$List@USystemAddress@RakNet@@@DataStructures@@QEAA@XZ @637
??0?$List@USystemAddressAndChannel@LogCommandParser@RakNet@@@DataStructures@@QEAA@AEBV01@@Z @638
??0?$List@USystemAddressAndChannel@LogCommandParser@RakNet@@@DataStructures@@QEAA@XZ @639
??0?$List@USystemAddressAndGuid@ConnectionGraph2@RakNet@@@DataStructures@@QEAA@XZ @640
??0?$List@UTeamMember@TeamBalancer@RakNet@@@DataStructures@@QEAA@AEBV01@@Z @641
??0?$List@UTeamMember@TeamBalancer@RakNet@@@DataStructures@@QEAA@XZ @642
??0?$List@UUnreliableWithAckReceiptNode@ReliabilityLayer@RakNet@@@DataStructures@@QEAA@XZ @643
??0?$List@UVariableLastValueNode@VariableListDeltaTracker@RakNet@@@DataStructures@@QEAA@XZ @644
??0?$List@UVerifiedJoinInProgressMember@FullyConnectedMesh2@RakNet@@@DataStructures@@QEAA@XZ @645
??0?$List@VRakString@RakNet@@@DataStructures@@QEAA@XZ @646
??0?$List@_K@DataStructures@@QEAA@AEBV01@@Z @647
??0?$List@_K@DataStructures@@QEAA@XZ @648
??0?$List@_N@DataStructures@@QEAA@XZ @649
??0?$Map@GPEAUFileListReceiver@RakNet@@$1??$defaultMapKeyComparison@G@DataStructures@@YAHAEBG0@Z@DataStructures@@QEAA@AEBV01@@Z @650
??0?$Map@GPEAUFileListReceiver@RakNet@@$1??$defaultMapKeyComparison@G@DataStructures@@YAHAEBG0@Z@DataStructures@@QEAA@XZ @651
??0?$Map@HPEAVHuffmanEncodingTree@RakNet@@$1??$defaultMapKeyComparison@H@DataStructures@@YAHAEBH0@Z@DataStructures@@QEAA@AEBV01@@Z @652
??0?$Map@HPEAVHuffmanEncodingTree@RakNet@@$1??$defaultMapKeyComparison@H@DataStructures@@YAHAEBH0@Z@DataStructures@@QEAA@XZ @653
??0?$Map@IUFLR_MemoryBlock@RakNet@@$1??$defaultMapKeyComparison@I@DataStructures@@YAHAEBI0@Z@DataStructures@@QEAA@XZ @654
??0?$Map@USystemAddress@RakNet@@PEAVByteQueue@DataStructures@@$1??$defaultMapKeyComparison@USystemAddress@RakNet@@@4@YAHAEBU12@0@Z@DataStructures@@QEAA@AEBV01@@Z @655
??0?$Map@USystemAddress@RakNet@@PEAVByteQueue@DataStructures@@$1??$defaultMapKeyComparison@USystemAddress@RakNet@@@4@YAHAEBU12@0@Z@DataStructures@@QEAA@XZ @656
??0?$MemoryPool@$$BY0CAA@E@DataStructures@@QEAA@XZ @657
??0?$MemoryPool@$$BY0CAAA@E@DataStructures@@QEAA@XZ @658
??0?$MemoryPool@$$BY0IA@E@DataStructures@@QEAA@XZ @659
??0?$MemoryPool@$$BY0IAA@E@DataStructures@@QEAA@XZ @660
??0?$MemoryPool@PEAURemoteClient@RakNet@@@DataStructures@@QEAA@XZ @661
??0?$MemoryPool@U?$Page@IPEAURow@Table@DataStructures@@$0BA@@DataStructures@@@DataStructures@@QEAA@XZ @662
??0?$MemoryPool@UBufferedCommandStruct@RakPeer@RakNet@@@DataStructures@@QEAA@XZ @663
??0?$MemoryPool@UChangedVariablesList@VariableDeltaSerializer@RakNet@@@DataStructures@@QEAA@XZ @664
??0?$MemoryPool@UInternalPacket@RakNet@@@DataStructures@@QEAA@XZ @665
??0?$MemoryPool@UInternalPacketRefCountedData@RakNet@@@DataStructures@@QEAA@XZ @666
??0?$MemoryPool@UMessageNumberNode@ReliabilityLayer@RakNet@@@DataStructures@@QEAA@XZ @667
??0?$MemoryPool@UPacket@RakNet@@@DataStructures@@QEAA@XZ @668
??0?$MemoryPool@URemoteSystemIndex@RakNet@@@DataStructures@@QEAA@XZ @669
??0?$MemoryPool@USocketQueryOutput@RakPeer@RakNet@@@DataStructures@@QEAA@XZ @670
??0?$MemoryPool@UStartForwardingInputStruct@UDPForwarder@RakNet@@@DataStructures@@QEAA@XZ @671
??0?$MemoryPool@UStopForwardingStruct@UDPForwarder@RakNet@@@DataStructures@@QEAA@XZ @672
??0?$MemoryPool@USystemAddress@RakNet@@@DataStructures@@QEAA@XZ @673
??0?$OrderedList@EPEAULocalCallback@RPC4@RakNet@@$1?LocalCallbackComp@23@SAHAEBEAEBQEAU123@@Z@DataStructures@@QEAA@XZ @674
??0?$OrderedList@GPEAUSplitPacketChannel@RakNet@@$1?SplitPacketChannelComp@2@YAHAEBGAEBQEAU12@@Z@DataStructures@@QEAA@XZ @675
??0?$OrderedList@GUMapNode@?$Map@GPEAUFileListReceiver@RakNet@@$1??$defaultMapKeyComparison@G@DataStructures@@YAHAEBG0@Z@DataStructures@@$1?NodeComparisonFunc@23@SAHAEBGAEBU123@@Z@DataStructures@@QEAA@XZ @676
??0?$OrderedList@GUServerWithPing@UDPProxyCoordinator@RakNet@@$1?ServerWithPingComp@23@KAHAEBGAEBU123@@Z@DataStructures@@QEAA@XZ @677
??0?$OrderedList@HPEAUFilterSet@RakNet@@$1?FilterSetComp@2@YAHAEBHAEBQEAU12@@Z@DataStructures@@QEAA@AEBV01@@Z @678
??0?$OrderedList@HPEAUFilterSet@RakNet@@$1?FilterSetComp@2@YAHAEBHAEBQEAU12@@Z@DataStructures@@QEAA@XZ @679
??0?$OrderedList@HPEAUReadyEventNode@ReadyEvent@RakNet@@$1?ReadyEventNodeComp@23@SAHAEBHAEBQEAU123@@Z@DataStructures@@QEAA@XZ @680
??0?$OrderedList@HPEAUVoiceBuffer@RakNet@@$1?VoiceBufferComp@2@YAHAEBHAEBQEAU12@@Z@DataStructures@@QEAA@XZ @681
??0?$OrderedList@HUMapNode@?$Map@HPEAVHuffmanEncodingTree@RakNet@@$1??$defaultMapKeyComparison@H@DataStructures@@YAHAEBH0@Z@DataStructures@@$1?NodeComparisonFunc@23@SAHAEBHAEBU123@@Z@DataStructures@@QEAA@XZ @682
??0?$OrderedList@IPEAUChangedVariablesList@VariableDeltaSerializer@RakNet@@$1?UpdatedVariablesListPtrComp@23@KAHAEBIAEBQEAU123@@Z@DataStructures@@QEAA@XZ @683
??0?$OrderedList@IPEAUGetRequest@CloudServer@RakNet@@$1?GetRequestComp@23@KAHAEBIAEBQEAU123@@Z@DataStructures@@QEAA@AEBV01@@Z @684
??0?$OrderedList@IPEAUGetRequest@CloudServer@RakNet@@$1?GetRequestComp@23@KAHAEBIAEBQEAU123@@Z@DataStructures@@QEAA@XZ @685
??0?$OrderedList@IUMapNode@?$Map@IUFLR_MemoryBlock@RakNet@@$1??$defaultMapKeyComparison@I@DataStructures@@YAHAEBI0@Z@DataStructures@@$1?NodeComparisonFunc@23@SAHAEBIAEBU123@@Z@DataStructures@@QEAA@XZ @686
??0?$OrderedList@PEADUStrAndBool@@$1?StrAndBoolComp@RakNet@@YAHAEBQEADAEBU1@@Z@DataStructures@@QEAA@AEBV01@@Z @687
??0?$OrderedList@PEADUStrAndBool@@$1?StrAndBoolComp@RakNet@@YAHAEBQEADAEBU1@@Z@DataStructures@@QEAA@XZ @688
??0?$OrderedList@PEAUFCM2Participant@FullyConnectedMesh2@RakNet@@PEAU123@$1?FCM2ParticipantComp@@YAHAEBQEAU123@0@Z@DataStructures@@QEAA@XZ @689
??0?$OrderedList@PEAURow@Table@DataStructures@@PEAU123@$1?RowSort@@YAHAEBQEAU123@0@Z@DataStructures@@QEAA@XZ @690
??0?$OrderedList@PEAUTimeAndValueQueue@StatisticsHistory@RakNet@@PEAU123@$1?TimeAndValueQueueCompAsc@@YAHAEBQEAU123@0@Z@DataStructures@@QEAA@XZ @691
??0?$OrderedList@PEAVReplica3@RakNet@@PEAULastSerializationResult@2@$1?Replica3LSRComp@Connection_RM3@2@SAHAEBQEAV12@AEBQEAU32@@Z@DataStructures@@QEAA@AEBV01@@Z @692
??0?$OrderedList@PEAVReplica3@RakNet@@PEAULastSerializationResult@2@$1?Replica3LSRComp@Connection_RM3@2@SAHAEBQEAV12@AEBQEAU32@@Z@DataStructures@@QEAA@XZ @693
??0?$OrderedList@PEBDURegisteredCommand@RakNet@@$1?RegisteredCommandComp@2@YAHAEBQEBDAEBU12@@Z@DataStructures@@QEAA@AEBV01@@Z @694
??0?$OrderedList@PEBDURegisteredCommand@RakNet@@$1?RegisteredCommandComp@2@YAHAEBQEBDAEBU12@@Z@DataStructures@@QEAA@XZ @695
??0?$OrderedList@UCloudKey@RakNet@@PEAUCloudDataList@CloudServer@2@$1?KeyDataListComp@42@KAHAEBU12@AEBQEAU342@@Z@DataStructures@@QEAA@AEBV01@@Z @696
??0?$OrderedList@UCloudKey@RakNet@@PEAUCloudDataList@CloudServer@2@$1?KeyDataListComp@42@KAHAEBU12@AEBQEAU342@@Z@DataStructures@@QEAA@XZ @697
??0?$OrderedList@UCloudKey@RakNet@@PEAUKeySubscriberID@CloudServer@2@$1?KeySubscriberIDComp@42@KAHAEBU12@AEBQEAU342@@Z@DataStructures@@QEAA@XZ @698
??0?$OrderedList@UCloudKey@RakNet@@U12@$1?CloudKeyComp@2@YAHAEBU12@0@Z@DataStructures@@QEAA@XZ @699
??0?$OrderedList@UConnectionRequestSystem@Router2@RakNet@@U123@$1?ConnectionRequestSystemComp@@YAHAEBU123@0@Z@DataStructures@@QEAA@XZ @700
??0?$OrderedList@UJoinRequestHelper@TM_World@RakNet@@U123@$1?JoinRequestHelperComp@23@SAHAEBU123@0@Z@DataStructures@@QEAA@XZ @701
??0?$OrderedList@ULocalSlotObject@RPC4@RakNet@@U123@$1?LocalSlotObjectComp@23@SAHAEBU123@0@Z@DataStructures@@QEAA@XZ @702
??0?$OrderedList@URakNetGUID@RakNet@@PEAUBufferedGetResponseFromServer@CloudServer@2@$1?BufferedGetResponseFromServerComp@42@KAHAEBU12@AEBQEAU342@@Z@DataStructures@@QEAA@XZ @703
??0?$OrderedList@URakNetGUID@RakNet@@PEAUCloudData@CloudServer@2@$1?KeyDataPtrComp@42@KAHAEBU12@AEBQEAU342@@Z@DataStructures@@QEAA@XZ @704
??0?$OrderedList@URakNetGUID@RakNet@@PEAURemoteServer@CloudServer@2@$1?RemoteServerComp@42@KAHAEBU12@AEBQEAU342@@Z@DataStructures@@QEAA@AEBV01@@Z @705
??0?$OrderedList@URakNetGUID@RakNet@@PEAURemoteServer@CloudServer@2@$1?RemoteServerComp@42@KAHAEBU12@AEBQEAU342@@Z@DataStructures@@QEAA@XZ @706
??0?$OrderedList@URakNetGUID@RakNet@@PEAURemoteSystem@ConnectionGraph2@2@$1?RemoteSystemComp@42@SAHAEBU12@AEBQEAU342@@Z@DataStructures@@QEAA@AEBV01@@Z @707
??0?$OrderedList@URakNetGUID@RakNet@@PEAURemoteSystem@ConnectionGraph2@2@$1?RemoteSystemComp@42@SAHAEBU12@AEBQEAU342@@Z@DataStructures@@QEAA@XZ @708
??0?$OrderedList@URakNetGUID@RakNet@@PEAUUser@NatPunchthroughServer@2@$1?NatPunchthroughUserComp@42@SAHAEBU12@AEBQEAU342@@Z@DataStructures@@QEAA@AEBV01@@Z @709
??0?$OrderedList@URakNetGUID@RakNet@@PEAUUser@NatPunchthroughServer@2@$1?NatPunchthroughUserComp@42@SAHAEBU12@AEBQEAU342@@Z@DataStructures@@QEAA@XZ @710
??0?$OrderedList@URakNetGUID@RakNet@@PEAUVoiceChannel@2@$1?VoiceChannelComp@2@YAHAEBU12@AEBQEAU32@@Z@DataStructures@@QEAA@AEBV01@@Z @711
??0?$OrderedList@URakNetGUID@RakNet@@PEAUVoiceChannel@2@$1?VoiceChannelComp@2@YAHAEBU12@AEBQEAU32@@Z@DataStructures@@QEAA@XZ @712
??0?$OrderedList@URakNetGUID@RakNet@@U12@$1??$defaultOrderedListComparison@URakNetGUID@RakNet@@U12@@DataStructures@@YAHAEBU12@0@Z@DataStructures@@QEAA@XZ @713
??0?$OrderedList@URakNetGUID@RakNet@@URemoteSystem@ReadyEvent@2@$1?RemoteSystemCompByGuid@42@SAHAEBU12@AEBU342@@Z@DataStructures@@QEAA@XZ @714
??0?$OrderedList@USenderAndTargetAddress@UDPProxyCoordinator@RakNet@@PEAUForwardingRequest@23@$1?ForwardingRequestComp@23@KAHAEBU123@AEBQEAU423@@Z@DataStructures@@QEAA@AEBV01@@Z @715
??0?$OrderedList@USenderAndTargetAddress@UDPProxyCoordinator@RakNet@@PEAUForwardingRequest@23@$1?ForwardingRequestComp@23@KAHAEBU123@AEBQEAU423@@Z@DataStructures@@QEAA@XZ @716
??0?$OrderedList@USystemAddress@RakNet@@U12@$1??$defaultOrderedListComparison@USystemAddress@RakNet@@U12@@DataStructures@@YAHAEBU12@0@Z@DataStructures@@QEAA@AEBV01@@Z @717
??0?$OrderedList@USystemAddress@RakNet@@U12@$1??$defaultOrderedListComparison@USystemAddress@RakNet@@U12@@DataStructures@@YAHAEBU12@0@Z@DataStructures@@QEAA@XZ @718
??0?$OrderedList@USystemAddress@RakNet@@UMapNode@?$Map@USystemAddress@RakNet@@PEAVByteQueue@DataStructures@@$1??$defaultMapKeyComparison@USystemAddress@RakNet@@@4@YAHAEBU12@0@Z@DataStructures@@$1?NodeComparisonFunc@45@SAHAEBU12@AEBU345@@Z@DataStructures@@QEAA@XZ @719
??0?$OrderedList@USystemAddressAndGuid@ConnectionGraph2@RakNet@@U123@$1?SystemAddressAndGuidComp@23@SAHAEBU123@0@Z@DataStructures@@QEAA@XZ @720
??0?$OrderedList@Uuint24_t@RakNet@@U?$RangeNode@Uuint24_t@RakNet@@@DataStructures@@$1??$RangeNodeComp@Uuint24_t@RakNet@@@4@YAHAEBU12@AEBU34@@Z@DataStructures@@QEAA@AEBV01@@Z @721
??0?$OrderedList@Uuint24_t@RakNet@@U?$RangeNode@Uuint24_t@RakNet@@@DataStructures@@$1??$RangeNodeComp@Uuint24_t@RakNet@@@4@YAHAEBU12@AEBU34@@Z@DataStructures@@QEAA@XZ @722
??0?$OrderedList@VRakString@RakNet@@V12@$1??$defaultOrderedListComparison@VRakString@RakNet@@V12@@DataStructures@@YAHAEBV12@0@Z@DataStructures@@QEAA@XZ @723
??0?$OrderedList@_KPEAUTrackedObject@StatisticsHistory@RakNet@@$1?TrackedObjectComp@23@SAHAEB_KAEBQEAU123@@Z@DataStructures@@QEAA@AEBV01@@Z @724
??0?$OrderedList@_KPEAUTrackedObject@StatisticsHistory@RakNet@@$1?TrackedObjectComp@23@SAHAEB_KAEBQEAU123@@Z@DataStructures@@QEAA@XZ @725
??0?$Queue@H@DataStructures@@QEAA@AEAV01@@Z @726
??0?$Queue@H@DataStructures@@QEAA@XZ @727
??0?$Queue@I@DataStructures@@QEAA@AEAV01@@Z @728
??0?$Queue@I@DataStructures@@QEAA@XZ @729
??0?$Queue@P6AHUThreadData@FileListTransfer@RakNet@@PEA_NPEAX@Z@DataStructures@@QEAA@AEAV01@@Z @730
??0?$Queue@P6AHUThreadData@FileListTransfer@RakNet@@PEA_NPEAX@Z@DataStructures@@QEAA@XZ @731
??0?$Queue@PEAD@DataStructures@@QEAA@XZ @732
??0?$Queue@PEAPEAURemoteClient@RakNet@@@DataStructures@@QEAA@AEAV01@@Z @733
??0?$Queue@PEAPEAURemoteClient@RakNet@@@DataStructures@@QEAA@XZ @734
??0?$Queue@PEAU?$Page@IPEAURow@Table@DataStructures@@$0BA@@DataStructures@@@DataStructures@@QEAA@XZ @735
??0?$Queue@PEAUBufferedCommandStruct@RakPeer@RakNet@@@DataStructures@@QEAA@AEAV01@@Z @736
??0?$Queue@PEAUBufferedCommandStruct@RakPeer@RakNet@@@DataStructures@@QEAA@XZ @737
??0?$Queue@PEAUFileToPush@FileListTransfer@RakNet@@@DataStructures@@QEAA@XZ @738
??0?$Queue@PEAUHuffmanEncodingTreeNode@@@DataStructures@@QEAA@XZ @739
??0?$Queue@PEAUInternalPacket@RakNet@@@DataStructures@@QEAA@XZ @740
??0?$Queue@PEAUPacket@RakNet@@@DataStructures@@QEAA@AEAV01@@Z @741
??0?$Queue@PEAUPacket@RakNet@@@DataStructures@@QEAA@XZ @742
??0?$Queue@PEAURNS2RecvStruct@RakNet@@@DataStructures@@QEAA@AEAV01@@Z @743
??0?$Queue@PEAURNS2RecvStruct@RakNet@@@DataStructures@@QEAA@XZ @744
??0?$Queue@PEAURequest@HTTPConnection2@RakNet@@@DataStructures@@QEAA@AEAV01@@Z @745
??0?$Queue@PEAURequest@HTTPConnection2@RakNet@@@DataStructures@@QEAA@XZ @746
??0?$Queue@PEAURequestedConnectionStruct@RakPeer@RakNet@@@DataStructures@@QEAA@XZ @747
??0?$Queue@PEAUSocketQueryOutput@RakPeer@RakNet@@@DataStructures@@QEAA@AEAV01@@Z @748
??0?$Queue@PEAUSocketQueryOutput@RakPeer@RakNet@@@DataStructures@@QEAA@XZ @749
??0?$Queue@PEAUStartForwardingInputStruct@UDPForwarder@RakNet@@@DataStructures@@QEAA@AEAV01@@Z @750
??0?$Queue@PEAUStartForwardingInputStruct@UDPForwarder@RakNet@@@DataStructures@@QEAA@XZ @751
??0?$Queue@PEAUStopForwardingStruct@UDPForwarder@RakNet@@@DataStructures@@QEAA@AEAV01@@Z @752
??0?$Queue@PEAUStopForwardingStruct@UDPForwarder@RakNet@@@DataStructures@@QEAA@XZ @753
??0?$Queue@PEAUSystemAddress@RakNet@@@DataStructures@@QEAA@AEAV01@@Z @754
??0?$Queue@PEAUSystemAddress@RakNet@@@DataStructures@@QEAA@XZ @755
??0?$Queue@UBadResponse@HTTPConnection@RakNet@@@DataStructures@@QEAA@AEAV01@@Z @756
??0?$Queue@UBadResponse@HTTPConnection@RakNet@@@DataStructures@@QEAA@XZ @757
??0?$Queue@UDSTAndFac@NatPunchthroughClient@RakNet@@@DataStructures@@QEAA@AEAV01@@Z @758
??0?$Queue@UDSTAndFac@NatPunchthroughClient@RakNet@@@DataStructures@@QEAA@XZ @759
??0?$Queue@UDatagramHistoryNode@ReliabilityLayer@RakNet@@@DataStructures@@QEAA@XZ @760
??0?$Queue@UOutgoingCommand@HTTPConnection@RakNet@@@DataStructures@@QEAA@AEAV01@@Z @761
??0?$Queue@UOutgoingCommand@HTTPConnection@RakNet@@@DataStructures@@QEAA@XZ @762
??0?$Queue@UPendingChallenge@TwoWayAuthentication@RakNet@@@DataStructures@@QEAA@AEAV01@@Z @763
??0?$Queue@UPendingChallenge@TwoWayAuthentication@RakNet@@@DataStructures@@QEAA@XZ @764
??0?$Queue@UStartForwardingOutputStruct@UDPForwarder@RakNet@@@DataStructures@@QEAA@AEAV01@@Z @765
??0?$Queue@UStartForwardingOutputStruct@UDPForwarder@RakNet@@@DataStructures@@QEAA@XZ @766
??0?$Queue@USystemAddress@RakNet@@@DataStructures@@QEAA@AEAV01@@Z @767
??0?$Queue@USystemAddress@RakNet@@@DataStructures@@QEAA@XZ @768
??0?$Queue@UThreadData@FileListTransfer@RakNet@@@DataStructures@@QEAA@AEAV01@@Z @769
??0?$Queue@UThreadData@FileListTransfer@RakNet@@@DataStructures@@QEAA@XZ @770
??0?$Queue@UTimeAndValue2@BPSTracker@RakNet@@@DataStructures@@QEAA@XZ @771
??0?$Queue@UTimeAndValue@StatisticsHistory@RakNet@@@DataStructures@@QEAA@XZ @772
??0?$Queue@VRakString@RakNet@@@DataStructures@@QEAA@AEAV01@@Z @773
??0?$Queue@VRakString@RakNet@@@DataStructures@@QEAA@XZ @774
??0?$Queue@_N@DataStructures@@QEAA@XZ @775
??0?$RangeList@Uuint24_t@RakNet@@@DataStructures@@QEAA@AEBV01@@Z @776
??0?$RangeList@Uuint24_t@RakNet@@@DataStructures@@QEAA@XZ @777
??0?$SingleProducerConsumer@PEAD@DataStructures@@QEAA@XZ @778
??0?$ThreadPool@UThreadData@FileListTransfer@RakNet@@H@@QEAA@AEAU0@@Z @779
??0?$ThreadPool@UThreadData@FileListTransfer@RakNet@@H@@QEAA@XZ @780
??0?$ThreadsafeAllocatingQueue@PEAURemoteClient@RakNet@@@DataStructures@@QEAA@$$QEAV01@@Z @781
??0?$ThreadsafeAllocatingQueue@PEAURemoteClient@RakNet@@@DataStructures@@QEAA@AEAV01@@Z @782
??0?$ThreadsafeAllocatingQueue@PEAURemoteClient@RakNet@@@DataStructures@@QEAA@XZ @783
??0?$ThreadsafeAllocatingQueue@UBufferedCommandStruct@RakPeer@RakNet@@@DataStructures@@QEAA@$$QEAV01@@Z @784
??0?$ThreadsafeAllocatingQueue@UBufferedCommandStruct@RakPeer@RakNet@@@DataStructures@@QEAA@AEAV01@@Z @785
??0?$ThreadsafeAllocatingQueue@UBufferedCommandStruct@RakPeer@RakNet@@@DataStructures@@QEAA@XZ @786
??0?$ThreadsafeAllocatingQueue@UPacket@RakNet@@@DataStructures@@QEAA@$$QEAV01@@Z @787
??0?$ThreadsafeAllocatingQueue@UPacket@RakNet@@@DataStructures@@QEAA@AEAV01@@Z @788
??0?$ThreadsafeAllocatingQueue@UPacket@RakNet@@@DataStructures@@QEAA@XZ @789
??0?$ThreadsafeAllocatingQueue@USocketQueryOutput@RakPeer@RakNet@@@DataStructures@@QEAA@$$QEAV01@@Z @790
??0?$ThreadsafeAllocatingQueue@USocketQueryOutput@RakPeer@RakNet@@@DataStructures@@QEAA@AEAV01@@Z @791
??0?$ThreadsafeAllocatingQueue@USocketQueryOutput@RakPeer@RakNet@@@DataStructures@@QEAA@XZ @792
??0?$ThreadsafeAllocatingQueue@UStartForwardingInputStruct@UDPForwarder@RakNet@@@DataStructures@@QEAA@$$QEAV01@@Z @793
??0?$ThreadsafeAllocatingQueue@UStartForwardingInputStruct@UDPForwarder@RakNet@@@DataStructures@@QEAA@AEAV01@@Z @794
??0?$ThreadsafeAllocatingQueue@UStartForwardingInputStruct@UDPForwarder@RakNet@@@DataStructures@@QEAA@XZ @795
??0?$ThreadsafeAllocatingQueue@UStopForwardingStruct@UDPForwarder@RakNet@@@DataStructures@@QEAA@$$QEAV01@@Z @796
??0?$ThreadsafeAllocatingQueue@UStopForwardingStruct@UDPForwarder@RakNet@@@DataStructures@@QEAA@AEAV01@@Z @797
??0?$ThreadsafeAllocatingQueue@UStopForwardingStruct@UDPForwarder@RakNet@@@DataStructures@@QEAA@XZ @798
??0?$ThreadsafeAllocatingQueue@USystemAddress@RakNet@@@DataStructures@@QEAA@$$QEAV01@@Z @799
??0?$ThreadsafeAllocatingQueue@USystemAddress@RakNet@@@DataStructures@@QEAA@AEAV01@@Z @800
??0?$ThreadsafeAllocatingQueue@USystemAddress@RakNet@@@DataStructures@@QEAA@XZ @801
??0AddressOrGUID@RakNet@@QEAA@AEBU01@@Z @802
??0AddressOrGUID@RakNet@@QEAA@AEBURakNetGUID@1@@Z @803
??0AddressOrGUID@RakNet@@QEAA@AEBUSystemAddress@1@@Z @804
??0AddressOrGUID@RakNet@@QEAA@PEAUPacket@1@@Z @805
??0AddressOrGUID@RakNet@@QEAA@XZ @806
??0BitStream@RakNet@@AEAA@AEBV01@@Z @807
??0BitStream@RakNet@@QEAA@I@Z @808
??0BitStream@RakNet@@QEAA@PEAEI_N@Z @809
??0BitStream@RakNet@@QEAA@XZ @810
??0BytePool@DataStructures@@QEAA@XZ @811
??0CSHA1@@QEAA@XZ @812
??0Cell@Table@DataStructures@@QEAA@AEBU012@@Z @813
??0Cell@Table@DataStructures@@QEAA@NPEADPEAXW4ColumnType@12@@Z @814
??0Cell@Table@DataStructures@@QEAA@XZ @815
??0CloudAllocator@RakNet@@QEAA@AEBV01@@Z @816
??0CloudAllocator@RakNet@@QEAA@XZ @817
??0CloudClient@RakNet@@QEAA@AEBV01@@Z @818
??0CloudClient@RakNet@@QEAA@XZ @819
??0CloudClientCallback@RakNet@@QEAA@AEBV01@@Z @820
??0CloudClientCallback@RakNet@@QEAA@XZ @821
??0CloudKey@RakNet@@QEAA@AEBU01@@Z @822
??0CloudKey@RakNet@@QEAA@VRakString@1@I@Z @823
??0CloudKey@RakNet@@QEAA@XZ @824
??0CloudQuery@RakNet@@QEAA@$$QEAU01@@Z @825
??0CloudQuery@RakNet@@QEAA@AEBU01@@Z @826
??0CloudQuery@RakNet@@QEAA@XZ @827
??0CloudQueryResult@RakNet@@QEAA@$$QEAU01@@Z @828
??0CloudQueryResult@RakNet@@QEAA@AEBU01@@Z @829
??0CloudQueryResult@RakNet@@QEAA@XZ @830
??0CloudQueryRow@RakNet@@QEAA@$$QEAU01@@Z @831
??0CloudQueryRow@RakNet@@QEAA@AEBU01@@Z @832
??0CloudQueryRow@RakNet@@QEAA@XZ @833
??0CloudServer@RakNet@@QEAA@AEBV01@@Z @834
??0CloudServer@RakNet@@QEAA@XZ @835
??0CloudServerQueryFilter@RakNet@@QEAA@AEBV01@@Z @836
??0CloudServerQueryFilter@RakNet@@QEAA@XZ @837
??0ColumnDescriptor@Table@DataStructures@@QEAA@QEBDW4ColumnType@12@@Z @838
??0ColumnDescriptor@Table@DataStructures@@QEAA@XZ @839
??0CommandParserInterface@RakNet@@QEAA@AEBV01@@Z @840
??0CommandParserInterface@RakNet@@QEAA@XZ @841
??0ConnectionGraph2@RakNet@@QEAA@AEBV01@@Z @842
??0ConnectionGraph2@RakNet@@QEAA@XZ @843
??0Connection_RM3@RakNet@@AEAA@XZ @844
??0Connection_RM3@RakNet@@QEAA@AEAV01@@Z @845
??0Connection_RM3@RakNet@@QEAA@AEBUSystemAddress@1@URakNetGUID@1@@Z @846
??0ConsoleServer@RakNet@@QEAA@AEBV01@@Z @847
??0ConsoleServer@RakNet@@QEAA@XZ @848
??0DirectoryDeltaTransfer@RakNet@@QEAA@AEBV01@@Z @849
??0DirectoryDeltaTransfer@RakNet@@QEAA@XZ @850
??0DynDNS@RakNet@@QEAA@AEBV01@@Z @851
??0DynDNS@RakNet@@QEAA@XZ @852
??0EmailSender@RakNet@@QEAA@XZ @853
??0FLP_Printf@RakNet@@QEAA@AEBV01@@Z @854
??0FLP_Printf@RakNet@@QEAA@XZ @855
??0FileList@RakNet@@QEAA@AEBV01@@Z @856
??0FileList@RakNet@@QEAA@XZ @857
??0FileListProgress@RakNet@@QEAA@AEBV01@@Z @858
??0FileListProgress@RakNet@@QEAA@XZ @859
??0FileListTransfer@RakNet@@QEAA@AEAV01@@Z @860
??0FileListTransfer@RakNet@@QEAA@XZ @861
??0FilterQuery@Table@DataStructures@@QEAA@IPEAUCell@12@W4FilterQueryType@12@@Z @862
??0FilterQuery@Table@DataStructures@@QEAA@XZ @863
??0FullyConnectedMesh2@RakNet@@QEAA@XZ @864
??0HTTPConnection2@RakNet@@QEAA@AEAV01@@Z @865
??0HTTPConnection2@RakNet@@QEAA@XZ @866
??0HTTPConnection@RakNet@@QEAA@AEAV01@@Z @867
??0HTTPConnection@RakNet@@QEAA@XZ @868
??0HuffmanEncodingTree@RakNet@@QEAA@XZ @869
??0IRNS2_Berkley@RakNet@@QEAA@$$QEAV01@@Z @870
??0IRNS2_Berkley@RakNet@@QEAA@AEBV01@@Z @871
??0IRNS2_Berkley@RakNet@@QEAA@XZ @872
??0IncrementalReadInterface@RakNet@@QEAA@AEBV01@@Z @873
??0IncrementalReadInterface@RakNet@@QEAA@XZ @874
??0LocklessUint32_t@RakNet@@QEAA@$$QEAV01@@Z @875
??0LocklessUint32_t@RakNet@@QEAA@AEBV01@@Z @876
??0LocklessUint32_t@RakNet@@QEAA@I@Z @877
??0LocklessUint32_t@RakNet@@QEAA@XZ @878
??0LogCommandParser@RakNet@@QEAA@AEBV01@@Z @879
??0LogCommandParser@RakNet@@QEAA@XZ @880
??0MessageFilter@RakNet@@QEAA@AEBV01@@Z @881
??0MessageFilter@RakNet@@QEAA@XZ @882
??0NatPunchthroughClient@RakNet@@QEAA@AEAV01@@Z @883
??0NatPunchthroughClient@RakNet@@QEAA@XZ @884
??0NatPunchthroughDebugInterface@RakNet@@QEAA@AEBU01@@Z @885
??0NatPunchthroughDebugInterface@RakNet@@QEAA@XZ @886
??0NatPunchthroughDebugInterface_PacketLogger@RakNet@@QEAA@AEBU01@@Z @887
??0NatPunchthroughDebugInterface_PacketLogger@RakNet@@QEAA@XZ @888
??0NatPunchthroughDebugInterface_Printf@RakNet@@QEAA@$$QEAU01@@Z @889
??0NatPunchthroughDebugInterface_Printf@RakNet@@QEAA@AEBU01@@Z @890
??0NatPunchthroughDebugInterface_Printf@RakNet@@QEAA@XZ @891
??0NatPunchthroughServer@RakNet@@QEAA@AEBV01@@Z @892
??0NatPunchthroughServer@RakNet@@QEAA@XZ @893
??0NatPunchthroughServerDebugInterface@RakNet@@QEAA@AEBU01@@Z @894
??0NatPunchthroughServerDebugInterface@RakNet@@QEAA@XZ @895
??0NatPunchthroughServerDebugInterface_PacketLogger@RakNet@@QEAA@AEBU01@@Z @896
??0NatPunchthroughServerDebugInterface_PacketLogger@RakNet@@QEAA@XZ @897
??0NatPunchthroughServerDebugInterface_Printf@RakNet@@QEAA@$$QEAU01@@Z @898
??0NatPunchthroughServerDebugInterface_Printf@RakNet@@QEAA@AEBU01@@Z @899
??0NatPunchthroughServerDebugInterface_Printf@RakNet@@QEAA@XZ @900
??0NatTypeDetectionClient@RakNet@@QEAA@AEAV01@@Z @901
??0NatTypeDetectionClient@RakNet@@QEAA@XZ @902
??0NatTypeDetectionServer@RakNet@@QEAA@AEAV01@@Z @903
??0NatTypeDetectionServer@RakNet@@QEAA@XZ @904
??0NetworkIDManager@RakNet@@QEAA@AEBV01@@Z @905
??0NetworkIDManager@RakNet@@QEAA@XZ @906
??0NetworkIDObject@RakNet@@QEAA@AEBV01@@Z @907
??0NetworkIDObject@RakNet@@QEAA@XZ @908
??0NonceGenerator@TwoWayAuthentication@RakNet@@QEAA@AEBU012@@Z @909
??0NonceGenerator@TwoWayAuthentication@RakNet@@QEAA@XZ @910
??0PacketConsoleLogger@RakNet@@QEAA@$$QEAV01@@Z @911
??0PacketConsoleLogger@RakNet@@QEAA@AEBV01@@Z @912
??0PacketConsoleLogger@RakNet@@QEAA@XZ @913
??0PacketFileLogger@RakNet@@QEAA@AEBV01@@Z @914
??0PacketFileLogger@RakNet@@QEAA@XZ @915
??0PacketLogger@RakNet@@QEAA@AEBV01@@Z @916
??0PacketLogger@RakNet@@QEAA@XZ @917
??0PacketOutputWindowLogger@RakNet@@QEAA@AEBV01@@Z @918
??0PacketOutputWindowLogger@RakNet@@QEAA@XZ @919
??0PacketizedTCP@RakNet@@QEAA@AEAV01@@Z @920
??0PacketizedTCP@RakNet@@QEAA@XZ @921
??0PluginInterface2@RakNet@@QEAA@AEBV01@@Z @922
??0PluginInterface2@RakNet@@QEAA@XZ @923
??0PunchthroughConfiguration@RakNet@@QEAA@XZ @924
??0RNS2EventHandler@RakNet@@QEAA@AEBV01@@Z @925
??0RNS2EventHandler@RakNet@@QEAA@XZ @926
??0RNS2_Berkley@RakNet@@QEAA@AEBV01@@Z @927
??0RNS2_Berkley@RakNet@@QEAA@XZ @928
??0RNS2_Windows@RakNet@@QEAA@AEBV01@@Z @929
??0RNS2_Windows@RakNet@@QEAA@XZ @930
??0RPC4@RakNet@@QEAA@XZ @931
??0RPC4GlobalRegistration@RakNet@@QEAA@PEBDE@Z @932
??0RPC4GlobalRegistration@RakNet@@QEAA@PEBDP6AXPEAVBitStream@1@1PEAUPacket@1@@Z@Z @933
??0RPC4GlobalRegistration@RakNet@@QEAA@PEBDP6AXPEAVBitStream@1@PEAUPacket@1@@Z@Z @934
??0RPC4GlobalRegistration@RakNet@@QEAA@PEBDP6AXPEAVBitStream@1@PEAUPacket@1@@ZH@Z @935
??0Rackspace2EventCallback@RakNet@@QEAA@AEBV01@@Z @936
??0Rackspace2EventCallback@RakNet@@QEAA@XZ @937
??0Rackspace@RakNet@@QEAA@AEBV01@@Z @938
??0Rackspace@RakNet@@QEAA@XZ @939
??0RackspaceEventCallback_Default@RakNet@@QEAA@$$QEAV01@@Z @940
??0RackspaceEventCallback_Default@RakNet@@QEAA@AEBV01@@Z @941
??0RackspaceEventCallback_Default@RakNet@@QEAA@XZ @942
??0RakNetCommandParser@RakNet@@QEAA@AEBV01@@Z @943
??0RakNetCommandParser@RakNet@@QEAA@XZ @944
??0RakNetGUID@RakNet@@QEAA@XZ @945
??0RakNetGUID@RakNet@@QEAA@_K@Z @946
??0RakNetRandom@RakNet@@QEAA@XZ @947
??0RakNetRandomSync@RakNet@@QEAA@AEAV01@@Z @948
??0RakNetRandomSync@RakNet@@QEAA@XZ @949
??0RakNetSocket2@RakNet@@QEAA@AEBV01@@Z @950
??0RakNetSocket2@RakNet@@QEAA@XZ @951
??0RakNetTransport2@RakNet@@QEAA@AEAV01@@Z @952
??0RakNetTransport2@RakNet@@QEAA@XZ @953
??0RakPeer@RakNet@@QEAA@XZ @954
??0RakPeerInterface@RakNet@@QEAA@AEBV01@@Z @955
??0RakPeerInterface@RakNet@@QEAA@XZ @956
??0RakString@RakNet@@QEAA@AEBV01@@Z @957
??0RakString@RakNet@@QEAA@D@Z @958
??0RakString@RakNet@@QEAA@E@Z @959
??0RakString@RakNet@@QEAA@PEAUSharedString@01@@Z @960
??0RakString@RakNet@@QEAA@PEBDZZ @961
??0RakString@RakNet@@QEAA@PEBEZZ @962
??0RakString@RakNet@@QEAA@XZ @963
??0RakVoice@RakNet@@QEAA@AEBV01@@Z @964
??0RakVoice@RakNet@@QEAA@XZ @965
??0RakWString@RakNet@@QEAA@AEBV01@@Z @966
??0RakWString@RakNet@@QEAA@AEBVRakString@1@@Z @967
??0RakWString@RakNet@@QEAA@PEBD@Z @968
??0RakWString@RakNet@@QEAA@PEB_W@Z @969
??0RakWString@RakNet@@QEAA@XZ @970
??0ReferenceCounter@RakNet@@QEAA@XZ @971
??0RelayPlugin@RakNet@@QEAA@AEBV01@@Z @972
??0RelayPlugin@RakNet@@QEAA@XZ @973
??0Replica3@RakNet@@QEAA@XZ @974
??0ReplicaManager3@RakNet@@QEAA@AEBV01@@Z @975
??0ReplicaManager3@RakNet@@QEAA@XZ @976
??0Router2@RakNet@@QEAA@AEBV01@@Z @977
??0Router2@RakNet@@QEAA@XZ @978
??0Row@Table@DataStructures@@QEAA@$$QEAU012@@Z @979
??0Row@Table@DataStructures@@QEAA@AEBU012@@Z @980
??0Row@Table@DataStructures@@QEAA@XZ @981
??0SignaledEvent@RakNet@@QEAA@XZ @982
??0SimpleMutex@RakNet@@QEAA@XZ @983
??0SocketDescriptor@RakNet@@QEAA@GPEBD@Z @984
??0SocketDescriptor@RakNet@@QEAA@XZ @985
??0SocketLayerOverride@RakNet@@QEAA@AEBV01@@Z @986
??0SocketLayerOverride@RakNet@@QEAA@XZ @987
??0StatisticsHistory@RakNet@@QEAA@AEBV01@@Z @988
??0StatisticsHistory@RakNet@@QEAA@XZ @989
??0StatisticsHistoryPlugin@RakNet@@QEAA@AEBV01@@Z @990
??0StatisticsHistoryPlugin@RakNet@@QEAA@XZ @991
??0StringCompressor@RakNet@@QEAA@AEBV01@@Z @992
??0StringCompressor@RakNet@@QEAA@XZ @993
??0StringTable@RakNet@@QEAA@AEBV01@@Z @994
??0StringTable@RakNet@@QEAA@XZ @995
??0SystemAddress@RakNet@@QEAA@PEBD@Z @996
??0SystemAddress@RakNet@@QEAA@PEBDG@Z @997
??0SystemAddress@RakNet@@QEAA@XZ @998
??0TCPInterface@RakNet@@QEAA@AEAV01@@Z @999
??0TCPInterface@RakNet@@QEAA@XZ @1000
??0TM_Team@RakNet@@QEAA@AEBV01@@Z @1001
??0TM_Team@RakNet@@QEAA@XZ @1002
??0TM_TeamMember@RakNet@@QEAA@AEBV01@@Z @1003
??0TM_TeamMember@RakNet@@QEAA@XZ @1004
??0Table@DataStructures@@QEAA@AEBV01@@Z @1005
??0Table@DataStructures@@QEAA@XZ @1006
??0TeamBalancer@RakNet@@QEAA@AEBV01@@Z @1007
??0TeamBalancer@RakNet@@QEAA@XZ @1008
??0TeamManager@RakNet@@QEAA@AEBV01@@Z @1009
??0TeamManager@RakNet@@QEAA@XZ @1010
??0TelnetTransport@RakNet@@QEAA@AEBV01@@Z @1011
??0TelnetTransport@RakNet@@QEAA@XZ @1012
??0ThreadsafePacketLogger@RakNet@@QEAA@AEBV01@@Z @1013
??0ThreadsafePacketLogger@RakNet@@QEAA@XZ @1014
??0TransportInterface@RakNet@@QEAA@AEBV01@@Z @1015
??0TransportInterface@RakNet@@QEAA@XZ @1016
??0TwoWayAuthentication@RakNet@@QEAA@AEAV01@@Z @1017
??0TwoWayAuthentication@RakNet@@QEAA@XZ @1018
??0UDPForwarder@RakNet@@QEAA@AEAV01@@Z @1019
??0UDPForwarder@RakNet@@QEAA@XZ @1020
??0UDPProxyClient@RakNet@@QEAA@AEBV01@@Z @1021
??0UDPProxyClient@RakNet@@QEAA@XZ @1022
??0UDPProxyCoordinator@RakNet@@QEAA@AEBV01@@Z @1023
??0UDPProxyCoordinator@RakNet@@QEAA@XZ @1024
??0UDPProxyServer@RakNet@@QEAA@AEAV01@@Z @1025
??0UDPProxyServer@RakNet@@QEAA@XZ @1026
??0VariableDeltaSerializer@RakNet@@QEAA@XZ @1027
??0uint24_t@RakNet@@QEAA@AEBI@Z @1028
??0uint24_t@RakNet@@QEAA@AEBU01@@Z @1029
??0uint24_t@RakNet@@QEAA@XZ @1030
??1?$BPlusTree@IPEAURow@Table@DataStructures@@$0BA@@DataStructures@@QEAA@XZ @1031
??1?$CircularLinkedList@PEAUHuffmanEncodingTreeNode@@@DataStructures@@QEAA@XZ @1032
??1?$Hash@UAddressOrGUID@RakNet@@UFilteredSystem@2@$0IAA@$1?ToInteger@12@SAKAEBU12@@Z@DataStructures@@QEAA@XZ @1033
??1?$Hash@URakNetGUID@RakNet@@PEAURemoteCloudClient@CloudServer@2@$0IAA@$1?ToUint32@12@SAKAEBU12@@Z@DataStructures@@QEAA@XZ @1034
??1?$Hash@URakNetGUID@RakNet@@PEAUStrAndGuidAndRoom@RelayPlugin@2@$0BPKA@$1?ToUint32@12@SAKAEBU12@@Z@DataStructures@@QEAA@XZ @1035
??1?$Hash@USystemAddress@RakNet@@UClientState@@$0BAA@$1?SystemAddressHash@@YAKAEBU12@@Z@DataStructures@@QEAA@XZ @1036
??1?$Hash@VRakString@RakNet@@P6AXPEAVBitStream@2@0PEAUPacket@2@@Z$0EA@$1?ToInteger@12@SAKAEBV12@@Z@DataStructures@@QEAA@XZ @1037
??1?$Hash@VRakString@RakNet@@P6AXPEAVBitStream@2@PEAUPacket@2@@Z$0EA@$1?ToInteger@12@SAKAEBV12@@Z@DataStructures@@QEAA@XZ @1038
??1?$Hash@VRakString@RakNet@@PEAULocalSlot@RPC4@2@$0BAA@$1?ToInteger@12@SAKAEBV12@@Z@DataStructures@@QEAA@XZ @1039
??1?$Hash@VRakString@RakNet@@PEAUStrAndGuidAndRoom@RelayPlugin@2@$0BPKA@$1?ToInteger@12@SAKAEBV12@@Z@DataStructures@@QEAA@XZ @1040
??1?$Hash@VRakString@RakNet@@PEAUTimeAndValueQueue@StatisticsHistory@2@$0CA@$1?ToInteger@12@SAKAEBV12@@Z@DataStructures@@QEAA@XZ @1041
??1?$Hash@VRakString@RakNet@@V12@$0BA@$1?ToInteger@12@SAKAEBV12@@Z@DataStructures@@QEAA@XZ @1042
??1?$Hash@_KPEAVTM_Team@RakNet@@$0BAA@$1?ToUint32@12@SAKAEB_K@Z@DataStructures@@QEAA@XZ @1043
??1?$Hash@_KPEAVTM_TeamMember@RakNet@@$0BAA@$1?ToUint32@12@SAKAEB_K@Z@DataStructures@@QEAA@XZ @1044
??1?$Heap@_KPEAUInternalPacket@RakNet@@$0A@@DataStructures@@QEAA@XZ @1045
??1?$LinkedList@PEAUHuffmanEncodingTreeNode@@@DataStructures@@QEAA@XZ @1046
??1?$List@E@DataStructures@@QEAA@XZ @1047
??1?$List@G@DataStructures@@QEAA@XZ @1048
??1?$List@I@DataStructures@@QEAA@XZ @1049
??1?$List@PEAUBanStruct@RakPeer@RakNet@@@DataStructures@@QEAA@XZ @1050
??1?$List@PEAUBufferedGetResponseFromServer@CloudServer@RakNet@@@DataStructures@@QEAA@XZ @1051
??1?$List@PEAUCell@Table@DataStructures@@@DataStructures@@QEAA@XZ @1052
??1?$List@PEAUChangedVariablesList@VariableDeltaSerializer@RakNet@@@DataStructures@@QEAA@XZ @1053
??1?$List@PEAUCloudData@CloudServer@RakNet@@@DataStructures@@QEAA@XZ @1054
??1?$List@PEAUCloudDataList@CloudServer@RakNet@@@DataStructures@@QEAA@XZ @1055
??1?$List@PEAUCloudQueryRow@RakNet@@@DataStructures@@QEAA@XZ @1056
??1?$List@PEAUConnectionAttempt@NatPunchthroughServer@RakNet@@@DataStructures@@QEAA@XZ @1057
??1?$List@PEAUConnnectRequest@Router2@RakNet@@@DataStructures@@QEAA@XZ @1058
??1?$List@PEAUFCM2Participant@FullyConnectedMesh2@RakNet@@@DataStructures@@QEAA@XZ @1059
??1?$List@PEAUFileToPushRecipient@FileListTransfer@RakNet@@@DataStructures@@QEAA@XZ @1060
??1?$List@PEAUFilterSet@RakNet@@@DataStructures@@QEAA@XZ @1061
??1?$List@PEAUForwardEntry@UDPForwarder@RakNet@@@DataStructures@@QEAA@XZ @1062
??1?$List@PEAUForwardingRequest@UDPProxyCoordinator@RakNet@@@DataStructures@@QEAA@XZ @1063
??1?$List@PEAUGetRequest@CloudServer@RakNet@@@DataStructures@@QEAA@XZ @1064
??1?$List@PEAUInternalPacket@RakNet@@@DataStructures@@QEAA@XZ @1065
??1?$List@PEAUKeySubscriberID@CloudServer@RakNet@@@DataStructures@@QEAA@XZ @1066
??1?$List@PEAULastSerializationResult@RakNet@@@DataStructures@@QEAA@XZ @1067
??1?$List@PEAULocalCallback@RPC4@RakNet@@@DataStructures@@QEAA@XZ @1068
??1?$List@PEAULocalSlot@RPC4@RakNet@@@DataStructures@@QEAA@XZ @1069
??1?$List@PEAUNonceAndRemoteSystemRequest@TwoWayAuthentication@RakNet@@@DataStructures@@QEAA@XZ @1070
??1?$List@PEAUPingServerGroup@UDPProxyClient@RakNet@@@DataStructures@@QEAA@XZ @1071
??1?$List@PEAURM3World@ReplicaManager3@RakNet@@@DataStructures@@QEAA@XZ @1072
??1?$List@PEAURP_Group@RelayPlugin@RakNet@@@DataStructures@@QEAA@XZ @1073
??1?$List@PEAUReadyEventNode@ReadyEvent@RakNet@@@DataStructures@@QEAA@XZ @1074
??1?$List@PEAURemoteCloudClient@CloudServer@RakNet@@@DataStructures@@QEAA@XZ @1075
??1?$List@PEAURemoteServer@CloudServer@RakNet@@@DataStructures@@QEAA@XZ @1076
??1?$List@PEAURemoteSystem@ConnectionGraph2@RakNet@@@DataStructures@@QEAA@XZ @1077
??1?$List@PEAURemoteSystemVariableHistory@VariableDeltaSerializer@RakNet@@@DataStructures@@QEAA@XZ @1078
??1?$List@PEAURequest@HTTPConnection2@RakNet@@@DataStructures@@QEAA@XZ @1079
??1?$List@PEAURow@Table@DataStructures@@@DataStructures@@QEAA@XZ @1080
??1?$List@PEAUSharedString@RakString@RakNet@@@DataStructures@@QEAA@XZ @1081
??1?$List@PEAUSplitPacketChannel@RakNet@@@DataStructures@@QEAA@XZ @1082
??1?$List@PEAUStrAndGuidAndRoom@RelayPlugin@RakNet@@@DataStructures@@QEAA@XZ @1083
??1?$List@PEAUTelnetClient@TelnetTransport@RakNet@@@DataStructures@@QEAA@XZ @1084
??1?$List@PEAUTimeAndValueQueue@StatisticsHistory@RakNet@@@DataStructures@@QEAA@XZ @1085
??1?$List@PEAUTrackedObject@StatisticsHistory@RakNet@@@DataStructures@@QEAA@XZ @1086
??1?$List@PEAUUser@NatPunchthroughServer@RakNet@@@DataStructures@@QEAA@XZ @1087
??1?$List@PEAUVerifiedJoinInProgress@FullyConnectedMesh2@RakNet@@@DataStructures@@QEAA@XZ @1088
??1?$List@PEAUVoiceBuffer@RakNet@@@DataStructures@@QEAA@XZ @1089
??1?$List@PEAUVoiceChannel@RakNet@@@DataStructures@@QEAA@XZ @1090
??1?$List@PEAVCloudServerQueryFilter@RakNet@@@DataStructures@@QEAA@XZ @1091
??1?$List@PEAVCommandParserInterface@RakNet@@@DataStructures@@QEAA@XZ @1092
??1?$List@PEAVConnection_RM3@RakNet@@@DataStructures@@QEAA@XZ @1093
??1?$List@PEAVFileListProgress@RakNet@@@DataStructures@@QEAA@XZ @1094
??1?$List@PEAVPluginInterface2@RakNet@@@DataStructures@@QEAA@XZ @1095
??1?$List@PEAVRackspace2EventCallback@RakNet@@@DataStructures@@QEAA@XZ @1096
??1?$List@PEAVRakNetSocket2@RakNet@@@DataStructures@@QEAA@XZ @1097
??1?$List@PEAVReplica3@RakNet@@@DataStructures@@QEAA@XZ @1098
??1?$List@PEAVTM_Team@RakNet@@@DataStructures@@QEAA@XZ @1099
??1?$List@PEAVTM_TeamMember@RakNet@@@DataStructures@@QEAA@XZ @1100
??1?$List@PEAVTM_World@RakNet@@@DataStructures@@QEAA@XZ @1101
??1?$List@PEAX@DataStructures@@QEAA@XZ @1102
??1?$List@U?$RangeNode@Uuint24_t@RakNet@@@DataStructures@@@DataStructures@@QEAA@XZ @1103
??1?$List@UAddrAndGuid@NatPunchthroughClient@RakNet@@@DataStructures@@QEAA@XZ @1104
??1?$List@UAddressOrGUID@RakNet@@@DataStructures@@QEAA@XZ @1105
??1?$List@UClientState@@@DataStructures@@QEAA@XZ @1106
??1?$List@UCloudKey@RakNet@@@DataStructures@@QEAA@XZ @1107
??1?$List@UColumnDescriptor@Table@DataStructures@@@DataStructures@@QEAA@XZ @1108
??1?$List@UConnectionRequestSystem@Router2@RakNet@@@DataStructures@@QEAA@XZ @1109
??1?$List@UFileListNode@RakNet@@@DataStructures@@QEAA@XZ @1110
??1?$List@UFilteredSystem@RakNet@@@DataStructures@@QEAA@XZ @1111
??1?$List@UForwardedConnection@Router2@RakNet@@@DataStructures@@QEAA@XZ @1112
??1?$List@UHeapNode@?$Heap@_KPEAUInternalPacket@RakNet@@$0A@@DataStructures@@@DataStructures@@QEAA@XZ @1113
??1?$List@UJoinRequestHelper@TM_World@RakNet@@@DataStructures@@QEAA@XZ @1114
??1?$List@ULocalSlotObject@RPC4@RakNet@@@DataStructures@@QEAA@XZ @1115
??1?$List@UMapNode@?$Map@GPEAUFileListReceiver@RakNet@@$1??$defaultMapKeyComparison@G@DataStructures@@YAHAEBG0@Z@DataStructures@@@DataStructures@@QEAA@XZ @1116
??1?$List@UMapNode@?$Map@HPEAVHuffmanEncodingTree@RakNet@@$1??$defaultMapKeyComparison@H@DataStructures@@YAHAEBH0@Z@DataStructures@@@DataStructures@@QEAA@XZ @1117
??1?$List@UMapNode@?$Map@IUFLR_MemoryBlock@RakNet@@$1??$defaultMapKeyComparison@I@DataStructures@@YAHAEBI0@Z@DataStructures@@@DataStructures@@QEAA@XZ @1118
??1?$List@UMapNode@?$Map@USystemAddress@RakNet@@PEAVByteQueue@DataStructures@@$1??$defaultMapKeyComparison@USystemAddress@RakNet@@@4@YAHAEBU12@0@Z@DataStructures@@@DataStructures@@QEAA@XZ @1119
??1?$List@UMiniPunchRequest@Router2@RakNet@@@DataStructures@@QEAA@XZ @1120
??1?$List@UMyTeamMembers@TeamBalancer@RakNet@@@DataStructures@@QEAA@XZ @1121
??1?$List@UNATDetectionAttempt@NatTypeDetectionServer@RakNet@@@DataStructures@@QEAA@XZ @1122
??1?$List@URackspaceOperation@Rackspace@RakNet@@@DataStructures@@QEAA@XZ @1123
??1?$List@URakNetGUID@RakNet@@@DataStructures@@QEAA@XZ @1124
??1?$List@URakNetStatistics@RakNet@@@DataStructures@@QEAA@XZ @1125
??1?$List@URegisteredCommand@RakNet@@@DataStructures@@QEAA@XZ @1126
??1?$List@URemoteSystem@ReadyEvent@RakNet@@@DataStructures@@QEAA@XZ @1127
??1?$List@URequestedTeam@TM_TeamMember@RakNet@@@DataStructures@@QEAA@XZ @1128
??1?$List@UServerWithPing@UDPProxyClient@RakNet@@@DataStructures@@QEAA@XZ @1129
??1?$List@UServerWithPing@UDPProxyCoordinator@RakNet@@@DataStructures@@QEAA@XZ @1130
??1?$List@UStrAndBool@@@DataStructures@@QEAA@XZ @1131
??1?$List@UStrAndGuid@RelayPlugin@RakNet@@@DataStructures@@QEAA@XZ @1132
??1?$List@USystemAddress@RakNet@@@DataStructures@@QEAA@XZ @1133
??1?$List@USystemAddressAndChannel@LogCommandParser@RakNet@@@DataStructures@@QEAA@XZ @1134
??1?$List@USystemAddressAndGuid@ConnectionGraph2@RakNet@@@DataStructures@@QEAA@XZ @1135
??1?$List@UTeamMember@TeamBalancer@RakNet@@@DataStructures@@QEAA@XZ @1136
??1?$List@UUnreliableWithAckReceiptNode@ReliabilityLayer@RakNet@@@DataStructures@@QEAA@XZ @1137
??1?$List@UVariableLastValueNode@VariableListDeltaTracker@RakNet@@@DataStructures@@QEAA@XZ @1138
??1?$List@UVerifiedJoinInProgressMember@FullyConnectedMesh2@RakNet@@@DataStructures@@QEAA@XZ @1139
??1?$List@VRakString@RakNet@@@DataStructures@@QEAA@XZ @1140
??1?$List@_K@DataStructures@@QEAA@XZ @1141
??1?$List@_N@DataStructures@@QEAA@XZ @1142
??1?$Map@GPEAUFileListReceiver@RakNet@@$1??$defaultMapKeyComparison@G@DataStructures@@YAHAEBG0@Z@DataStructures@@QEAA@XZ @1143
??1?$Map@HPEAVHuffmanEncodingTree@RakNet@@$1??$defaultMapKeyComparison@H@DataStructures@@YAHAEBH0@Z@DataStructures@@QEAA@XZ @1144
??1?$Map@IUFLR_MemoryBlock@RakNet@@$1??$defaultMapKeyComparison@I@DataStructures@@YAHAEBI0@Z@DataStructures@@QEAA@XZ @1145
??1?$Map@USystemAddress@RakNet@@PEAVByteQueue@DataStructures@@$1??$defaultMapKeyComparison@USystemAddress@RakNet@@@4@YAHAEBU12@0@Z@DataStructures@@QEAA@XZ @1146
??1?$MemoryPool@$$BY0CAA@E@DataStructures@@QEAA@XZ @1147
??1?$MemoryPool@$$BY0CAAA@E@DataStructures@@QEAA@XZ @1148
??1?$MemoryPool@$$BY0IA@E@DataStructures@@QEAA@XZ @1149
??1?$MemoryPool@$$BY0IAA@E@DataStructures@@QEAA@XZ @1150
??1?$MemoryPool@PEAURemoteClient@RakNet@@@DataStructures@@QEAA@XZ @1151
??1?$MemoryPool@U?$Page@IPEAURow@Table@DataStructures@@$0BA@@DataStructures@@@DataStructures@@QEAA@XZ @1152
??1?$MemoryPool@UBufferedCommandStruct@RakPeer@RakNet@@@DataStructures@@QEAA@XZ @1153
??1?$MemoryPool@UChangedVariablesList@VariableDeltaSerializer@RakNet@@@DataStructures@@QEAA@XZ @1154
??1?$MemoryPool@UInternalPacket@RakNet@@@DataStructures@@QEAA@XZ @1155
??1?$MemoryPool@UInternalPacketRefCountedData@RakNet@@@DataStructures@@QEAA@XZ @1156
??1?$MemoryPool@UMessageNumberNode@ReliabilityLayer@RakNet@@@DataStructures@@QEAA@XZ @1157
??1?$MemoryPool@UPacket@RakNet@@@DataStructures@@QEAA@XZ @1158
??1?$MemoryPool@URemoteSystemIndex@RakNet@@@DataStructures@@QEAA@XZ @1159
??1?$MemoryPool@USocketQueryOutput@RakPeer@RakNet@@@DataStructures@@QEAA@XZ @1160
??1?$MemoryPool@UStartForwardingInputStruct@UDPForwarder@RakNet@@@DataStructures@@QEAA@XZ @1161
??1?$MemoryPool@UStopForwardingStruct@UDPForwarder@RakNet@@@DataStructures@@QEAA@XZ @1162
??1?$MemoryPool@USystemAddress@RakNet@@@DataStructures@@QEAA@XZ @1163
??1?$OrderedList@EPEAULocalCallback@RPC4@RakNet@@$1?LocalCallbackComp@23@SAHAEBEAEBQEAU123@@Z@DataStructures@@QEAA@XZ @1164
??1?$OrderedList@GPEAUSplitPacketChannel@RakNet@@$1?SplitPacketChannelComp@2@YAHAEBGAEBQEAU12@@Z@DataStructures@@QEAA@XZ @1165
??1?$OrderedList@GUMapNode@?$Map@GPEAUFileListReceiver@RakNet@@$1??$defaultMapKeyComparison@G@DataStructures@@YAHAEBG0@Z@DataStructures@@$1?NodeComparisonFunc@23@SAHAEBGAEBU123@@Z@DataStructures@@QEAA@XZ @1166
??1?$OrderedList@GUServerWithPing@UDPProxyCoordinator@RakNet@@$1?ServerWithPingComp@23@KAHAEBGAEBU123@@Z@DataStructures@@QEAA@XZ @1167
??1?$OrderedList@HPEAUFilterSet@RakNet@@$1?FilterSetComp@2@YAHAEBHAEBQEAU12@@Z@DataStructures@@QEAA@XZ @1168
??1?$OrderedList@HPEAUReadyEventNode@ReadyEvent@RakNet@@$1?ReadyEventNodeComp@23@SAHAEBHAEBQEAU123@@Z@DataStructures@@QEAA@XZ @1169
??1?$OrderedList@HPEAUVoiceBuffer@RakNet@@$1?VoiceBufferComp@2@YAHAEBHAEBQEAU12@@Z@DataStructures@@QEAA@XZ @1170
??1?$OrderedList@HUMapNode@?$Map@HPEAVHuffmanEncodingTree@RakNet@@$1??$defaultMapKeyComparison@H@DataStructures@@YAHAEBH0@Z@DataStructures@@$1?NodeComparisonFunc@23@SAHAEBHAEBU123@@Z@DataStructures@@QEAA@XZ @1171
??1?$OrderedList@IPEAUChangedVariablesList@VariableDeltaSerializer@RakNet@@$1?UpdatedVariablesListPtrComp@23@KAHAEBIAEBQEAU123@@Z@DataStructures@@QEAA@XZ @1172
??1?$OrderedList@IPEAUGetRequest@CloudServer@RakNet@@$1?GetRequestComp@23@KAHAEBIAEBQEAU123@@Z@DataStructures@@QEAA@XZ @1173
??1?$OrderedList@IUMapNode@?$Map@IUFLR_MemoryBlock@RakNet@@$1??$defaultMapKeyComparison@I@DataStructures@@YAHAEBI0@Z@DataStructures@@$1?NodeComparisonFunc@23@SAHAEBIAEBU123@@Z@DataStructures@@QEAA@XZ @1174
??1?$OrderedList@PEADUStrAndBool@@$1?StrAndBoolComp@RakNet@@YAHAEBQEADAEBU1@@Z@DataStructures@@QEAA@XZ @1175
??1?$OrderedList@PEAUFCM2Participant@FullyConnectedMesh2@RakNet@@PEAU123@$1?FCM2ParticipantComp@@YAHAEBQEAU123@0@Z@DataStructures@@QEAA@XZ @1176
??1?$OrderedList@PEAURow@Table@DataStructures@@PEAU123@$1?RowSort@@YAHAEBQEAU123@0@Z@DataStructures@@QEAA@XZ @1177
??1?$OrderedList@PEAUTimeAndValueQueue@StatisticsHistory@RakNet@@PEAU123@$1?TimeAndValueQueueCompAsc@@YAHAEBQEAU123@0@Z@DataStructures@@QEAA@XZ @1178
??1?$OrderedList@PEAVReplica3@RakNet@@PEAULastSerializationResult@2@$1?Replica3LSRComp@Connection_RM3@2@SAHAEBQEAV12@AEBQEAU32@@Z@DataStructures@@QEAA@XZ @1179
??1?$OrderedList@PEBDURegisteredCommand@RakNet@@$1?RegisteredCommandComp@2@YAHAEBQEBDAEBU12@@Z@DataStructures@@QEAA@XZ @1180
??1?$OrderedList@UCloudKey@RakNet@@PEAUCloudDataList@CloudServer@2@$1?KeyDataListComp@42@KAHAEBU12@AEBQEAU342@@Z@DataStructures@@QEAA@XZ @1181
??1?$OrderedList@UCloudKey@RakNet@@PEAUKeySubscriberID@CloudServer@2@$1?KeySubscriberIDComp@42@KAHAEBU12@AEBQEAU342@@Z@DataStructures@@QEAA@XZ @1182
??1?$OrderedList@UCloudKey@RakNet@@U12@$1?CloudKeyComp@2@YAHAEBU12@0@Z@DataStructures@@QEAA@XZ @1183
??1?$OrderedList@UConnectionRequestSystem@Router2@RakNet@@U123@$1?ConnectionRequestSystemComp@@YAHAEBU123@0@Z@DataStructures@@QEAA@XZ @1184
??1?$OrderedList@UJoinRequestHelper@TM_World@RakNet@@U123@$1?JoinRequestHelperComp@23@SAHAEBU123@0@Z@DataStructures@@QEAA@XZ @1185
??1?$OrderedList@ULocalSlotObject@RPC4@RakNet@@U123@$1?LocalSlotObjectComp@23@SAHAEBU123@0@Z@DataStructures@@QEAA@XZ @1186
??1?$OrderedList@URakNetGUID@RakNet@@PEAUBufferedGetResponseFromServer@CloudServer@2@$1?BufferedGetResponseFromServerComp@42@KAHAEBU12@AEBQEAU342@@Z@DataStructures@@QEAA@XZ @1187
??1?$OrderedList@URakNetGUID@RakNet@@PEAUCloudData@CloudServer@2@$1?KeyDataPtrComp@42@KAHAEBU12@AEBQEAU342@@Z@DataStructures@@QEAA@XZ @1188
??1?$OrderedList@URakNetGUID@RakNet@@PEAURemoteServer@CloudServer@2@$1?RemoteServerComp@42@KAHAEBU12@AEBQEAU342@@Z@DataStructures@@QEAA@XZ @1189
??1?$OrderedList@URakNetGUID@RakNet@@PEAURemoteSystem@ConnectionGraph2@2@$1?RemoteSystemComp@42@SAHAEBU12@AEBQEAU342@@Z@DataStructures@@QEAA@XZ @1190
??1?$OrderedList@URakNetGUID@RakNet@@PEAUUser@NatPunchthroughServer@2@$1?NatPunchthroughUserComp@42@SAHAEBU12@AEBQEAU342@@Z@DataStructures@@QEAA@XZ @1191
??1?$OrderedList@URakNetGUID@RakNet@@PEAUVoiceChannel@2@$1?VoiceChannelComp@2@YAHAEBU12@AEBQEAU32@@Z@DataStructures@@QEAA@XZ @1192
??1?$OrderedList@URakNetGUID@RakNet@@U12@$1??$defaultOrderedListComparison@URakNetGUID@RakNet@@U12@@DataStructures@@YAHAEBU12@0@Z@DataStructures@@QEAA@XZ @1193
??1?$OrderedList@URakNetGUID@RakNet@@URemoteSystem@ReadyEvent@2@$1?RemoteSystemCompByGuid@42@SAHAEBU12@AEBU342@@Z@DataStructures@@QEAA@XZ @1194
??1?$OrderedList@USenderAndTargetAddress@UDPProxyCoordinator@RakNet@@PEAUForwardingRequest@23@$1?ForwardingRequestComp@23@KAHAEBU123@AEBQEAU423@@Z@DataStructures@@QEAA@XZ @1195
??1?$OrderedList@USystemAddress@RakNet@@U12@$1??$defaultOrderedListComparison@USystemAddress@RakNet@@U12@@DataStructures@@YAHAEBU12@0@Z@DataStructures@@QEAA@XZ @1196
??1?$OrderedList@USystemAddress@RakNet@@UMapNode@?$Map@USystemAddress@RakNet@@PEAVByteQueue@DataStructures@@$1??$defaultMapKeyComparison@USystemAddress@RakNet@@@4@YAHAEBU12@0@Z@DataStructures@@$1?NodeComparisonFunc@45@SAHAEBU12@AEBU345@@Z@DataStructures@@QEAA@XZ @1197
??1?$OrderedList@USystemAddressAndGuid@ConnectionGraph2@RakNet@@U123@$1?SystemAddressAndGuidComp@23@SAHAEBU123@0@Z@DataStructures@@QEAA@XZ @1198
??1?$OrderedList@Uuint24_t@RakNet@@U?$RangeNode@Uuint24_t@RakNet@@@DataStructures@@$1??$RangeNodeComp@Uuint24_t@RakNet@@@4@YAHAEBU12@AEBU34@@Z@DataStructures@@QEAA@XZ @1199
??1?$OrderedList@VRakString@RakNet@@V12@$1??$defaultOrderedListComparison@VRakString@RakNet@@V12@@DataStructures@@YAHAEBV12@0@Z@DataStructures@@QEAA@XZ @1200
??1?$OrderedList@_KPEAUTrackedObject@StatisticsHistory@RakNet@@$1?TrackedObjectComp@23@SAHAEB_KAEBQEAU123@@Z@DataStructures@@QEAA@XZ @1201
??1?$Queue@H@DataStructures@@QEAA@XZ @1202
??1?$Queue@I@DataStructures@@QEAA@XZ @1203
??1?$Queue@P6AHUThreadData@FileListTransfer@RakNet@@PEA_NPEAX@Z@DataStructures@@QEAA@XZ @1204
??1?$Queue@PEAD@DataStructures@@QEAA@XZ @1205
??1?$Queue@PEAPEAURemoteClient@RakNet@@@DataStructures@@QEAA@XZ @1206
??1?$Queue@PEAU?$Page@IPEAURow@Table@DataStructures@@$0BA@@DataStructures@@@DataStructures@@QEAA@XZ @1207
??1?$Queue@PEAUBufferedCommandStruct@RakPeer@RakNet@@@DataStructures@@QEAA@XZ @1208
??1?$Queue@PEAUFileToPush@FileListTransfer@RakNet@@@DataStructures@@QEAA@XZ @1209
??1?$Queue@PEAUHuffmanEncodingTreeNode@@@DataStructures@@QEAA@XZ @1210
??1?$Queue@PEAUInternalPacket@RakNet@@@DataStructures@@QEAA@XZ @1211
??1?$Queue@PEAUPacket@RakNet@@@DataStructures@@QEAA@XZ @1212
??1?$Queue@PEAURNS2RecvStruct@RakNet@@@DataStructures@@QEAA@XZ @1213
??1?$Queue@PEAURequest@HTTPConnection2@RakNet@@@DataStructures@@QEAA@XZ @1214
??1?$Queue@PEAURequestedConnectionStruct@RakPeer@RakNet@@@DataStructures@@QEAA@XZ @1215
??1?$Queue@PEAUSocketQueryOutput@RakPeer@RakNet@@@DataStructures@@QEAA@XZ @1216
??1?$Queue@PEAUStartForwardingInputStruct@UDPForwarder@RakNet@@@DataStructures@@QEAA@XZ @1217
??1?$Queue@PEAUStopForwardingStruct@UDPForwarder@RakNet@@@DataStructures@@QEAA@XZ @1218
??1?$Queue@PEAUSystemAddress@RakNet@@@DataStructures@@QEAA@XZ @1219
??1?$Queue@UBadResponse@HTTPConnection@RakNet@@@DataStructures@@QEAA@XZ @1220
??1?$Queue@UDSTAndFac@NatPunchthroughClient@RakNet@@@DataStructures@@QEAA@XZ @1221
??1?$Queue@UDatagramHistoryNode@ReliabilityLayer@RakNet@@@DataStructures@@QEAA@XZ @1222
??1?$Queue@UOutgoingCommand@HTTPConnection@RakNet@@@DataStructures@@QEAA@XZ @1223
??1?$Queue@UPendingChallenge@TwoWayAuthentication@RakNet@@@DataStructures@@QEAA@XZ @1224
??1?$Queue@UStartForwardingOutputStruct@UDPForwarder@RakNet@@@DataStructures@@QEAA@XZ @1225
??1?$Queue@USystemAddress@RakNet@@@DataStructures@@QEAA@XZ @1226
??1?$Queue@UThreadData@FileListTransfer@RakNet@@@DataStructures@@QEAA@XZ @1227
??1?$Queue@UTimeAndValue2@BPSTracker@RakNet@@@DataStructures@@QEAA@XZ @1228
??1?$Queue@UTimeAndValue@StatisticsHistory@RakNet@@@DataStructures@@QEAA@XZ @1229
??1?$Queue@VRakString@RakNet@@@DataStructures@@QEAA@XZ @1230
??1?$Queue@_N@DataStructures@@QEAA@XZ @1231
??1?$RangeList@Uuint24_t@RakNet@@@DataStructures@@QEAA@XZ @1232
??1?$SingleProducerConsumer@PEAD@DataStructures@@QEAA@XZ @1233
??1?$ThreadPool@UThreadData@FileListTransfer@RakNet@@H@@QEAA@XZ @1234
??1?$ThreadsafeAllocatingQueue@PEAURemoteClient@RakNet@@@DataStructures@@QEAA@XZ @1235
??1?$ThreadsafeAllocatingQueue@UBufferedCommandStruct@RakPeer@RakNet@@@DataStructures@@QEAA@XZ @1236
??1?$ThreadsafeAllocatingQueue@UPacket@RakNet@@@DataStructures@@QEAA@XZ @1237
??1?$ThreadsafeAllocatingQueue@USocketQueryOutput@RakPeer@RakNet@@@DataStructures@@QEAA@XZ @1238
??1?$ThreadsafeAllocatingQueue@UStartForwardingInputStruct@UDPForwarder@RakNet@@@DataStructures@@QEAA@XZ @1239
??1?$ThreadsafeAllocatingQueue@UStopForwardingStruct@UDPForwarder@RakNet@@@DataStructures@@QEAA@XZ @1240
??1?$ThreadsafeAllocatingQueue@USystemAddress@RakNet@@@DataStructures@@QEAA@XZ @1241
??1BitStream@RakNet@@QEAA@XZ @1242
??1BytePool@DataStructures@@QEAA@XZ @1243
??1CSHA1@@QEAA@XZ @1244
??1Cell@Table@DataStructures@@QEAA@XZ @1245
??1CloudAllocator@RakNet@@UEAA@XZ @1246
??1CloudClient@RakNet@@UEAA@XZ @1247
??1CloudClientCallback@RakNet@@UEAA@XZ @1248
??1CloudKey@RakNet@@QEAA@XZ @1249
??1CloudQuery@RakNet@@QEAA@XZ @1250
??1CloudQueryResult@RakNet@@QEAA@XZ @1251
??1CloudQueryRow@RakNet@@QEAA@XZ @1252
??1CloudServer@RakNet@@UEAA@XZ @1253
??1CloudServerQueryFilter@RakNet@@UEAA@XZ @1254
??1ColumnDescriptor@Table@DataStructures@@QEAA@XZ @1255
??1CommandParserInterface@RakNet@@UEAA@XZ @1256
??1ConnectionGraph2@RakNet@@UEAA@XZ @1257
??1Connection_RM3@RakNet@@UEAA@XZ @1258
??1ConsoleServer@RakNet@@QEAA@XZ @1259
??1DirectoryDeltaTransfer@RakNet@@UEAA@XZ @1260
??1DynDNS@RakNet@@QEAA@XZ @1261
??1EmailSender@RakNet@@QEAA@XZ @1262
??1FLP_Printf@RakNet@@UEAA@XZ @1263
??1FileList@RakNet@@QEAA@XZ @1264
??1FileListProgress@RakNet@@UEAA@XZ @1265
??1FileListTransfer@RakNet@@UEAA@XZ @1266
??1FilterQuery@Table@DataStructures@@QEAA@XZ @1267
??1FullyConnectedMesh2@RakNet@@UEAA@XZ @1268
??1HTTPConnection2@RakNet@@UEAA@XZ @1269
??1HTTPConnection@RakNet@@UEAA@XZ @1270
??1HuffmanEncodingTree@RakNet@@QEAA@XZ @1271
??1IRNS2_Berkley@RakNet@@UEAA@XZ @1272
??1IncrementalReadInterface@RakNet@@UEAA@XZ @1273
??1LogCommandParser@RakNet@@UEAA@XZ @1274
??1MessageFilter@RakNet@@UEAA@XZ @1275
??1NatPunchthroughClient@RakNet@@UEAA@XZ @1276
??1NatPunchthroughDebugInterface@RakNet@@UEAA@XZ @1277
??1NatPunchthroughDebugInterface_PacketLogger@RakNet@@UEAA@XZ @1278
??1NatPunchthroughDebugInterface_Printf@RakNet@@UEAA@XZ @1279
??1NatPunchthroughServer@RakNet@@UEAA@XZ @1280
??1NatPunchthroughServerDebugInterface@RakNet@@UEAA@XZ @1281
??1NatPunchthroughServerDebugInterface_PacketLogger@RakNet@@UEAA@XZ @1282
??1NatPunchthroughServerDebugInterface_Printf@RakNet@@UEAA@XZ @1283
??1NatTypeDetectionClient@RakNet@@UEAA@XZ @1284
??1NatTypeDetectionServer@RakNet@@UEAA@XZ @1285
??1NetworkIDManager@RakNet@@UEAA@XZ @1286
??1NetworkIDObject@RakNet@@UEAA@XZ @1287
??1NonceGenerator@TwoWayAuthentication@RakNet@@QEAA@XZ @1288
??1PacketConsoleLogger@RakNet@@UEAA@XZ @1289
??1PacketFileLogger@RakNet@@UEAA@XZ @1290
??1PacketLogger@RakNet@@UEAA@XZ @1291
??1PacketOutputWindowLogger@RakNet@@UEAA@XZ @1292
??1PacketizedTCP@RakNet@@UEAA@XZ @1293
??1PluginInterface2@RakNet@@UEAA@XZ @1294
??1RNS2EventHandler@RakNet@@UEAA@XZ @1295
??1RNS2_Berkley@RakNet@@UEAA@XZ @1296
??1RNS2_Windows@RakNet@@UEAA@XZ @1297
??1RPC4@RakNet@@UEAA@XZ @1298
??1Rackspace2EventCallback@RakNet@@UEAA@XZ @1299
??1Rackspace@RakNet@@QEAA@XZ @1300
??1RackspaceEventCallback_Default@RakNet@@UEAA@XZ @1301
??1RakNetCommandParser@RakNet@@UEAA@XZ @1302
??1RakNetRandom@RakNet@@QEAA@XZ @1303
??1RakNetRandomSync@RakNet@@UEAA@XZ @1304
??1RakNetSocket2@RakNet@@UEAA@XZ @1305
??1RakNetTransport2@RakNet@@UEAA@XZ @1306
??1RakPeer@RakNet@@UEAA@XZ @1307
??1RakPeerInterface@RakNet@@UEAA@XZ @1308
??1RakString@RakNet@@QEAA@XZ @1309
??1RakVoice@RakNet@@UEAA@XZ @1310
??1RakWString@RakNet@@QEAA@XZ @1311
??1ReferenceCounter@RakNet@@QEAA@XZ @1312
??1RelayPlugin@RakNet@@UEAA@XZ @1313
??1Replica3@RakNet@@UEAA@XZ @1314
??1ReplicaManager3@RakNet@@UEAA@XZ @1315
??1Router2@RakNet@@UEAA@XZ @1316
??1Row@Table@DataStructures@@QEAA@XZ @1317
??1SignaledEvent@RakNet@@QEAA@XZ @1318
??1SimpleMutex@RakNet@@QEAA@XZ @1319
??1SocketLayerOverride@RakNet@@UEAA@XZ @1320
??1StatisticsHistory@RakNet@@UEAA@XZ @1321
??1StatisticsHistoryPlugin@RakNet@@UEAA@XZ @1322
??1StringCompressor@RakNet@@QEAA@XZ @1323
??1StringTable@RakNet@@QEAA@XZ @1324
??1TCPInterface@RakNet@@UEAA@XZ @1325
??1TM_Team@RakNet@@UEAA@XZ @1326
??1TM_TeamMember@RakNet@@UEAA@XZ @1327
??1Table@DataStructures@@QEAA@XZ @1328
??1TeamBalancer@RakNet@@UEAA@XZ @1329
??1TeamManager@RakNet@@UEAA@XZ @1330
??1TelnetTransport@RakNet@@UEAA@XZ @1331
??1ThreadsafePacketLogger@RakNet@@UEAA@XZ @1332
??1TransportInterface@RakNet@@UEAA@XZ @1333
??1TwoWayAuthentication@RakNet@@UEAA@XZ @1334
??1UDPForwarder@RakNet@@UEAA@XZ @1335
??1UDPProxyClient@RakNet@@UEAA@XZ @1336
??1UDPProxyCoordinator@RakNet@@UEAA@XZ @1337
??1UDPProxyServer@RakNet@@UEAA@XZ @1338
??1VariableDeltaSerializer@RakNet@@QEAA@XZ @1339
??4?$BPlusTree@IPEAURow@Table@DataStructures@@$0BA@@DataStructures@@QEAAAEAV01@AEBV01@@Z @1340
??4?$CircularLinkedList@PEAUHuffmanEncodingTreeNode@@@DataStructures@@QEAA_NAEBV01@@Z @1341
??4?$Hash@UAddressOrGUID@RakNet@@UFilteredSystem@2@$0IAA@$1?ToInteger@12@SAKAEBU12@@Z@DataStructures@@QEAAAEAV01@AEBV01@@Z @1342
??4?$Hash@URakNetGUID@RakNet@@PEAURemoteCloudClient@CloudServer@2@$0IAA@$1?ToUint32@12@SAKAEBU12@@Z@DataStructures@@QEAAAEAV01@AEBV01@@Z @1343
??4?$Hash@URakNetGUID@RakNet@@PEAUStrAndGuidAndRoom@RelayPlugin@2@$0BPKA@$1?ToUint32@12@SAKAEBU12@@Z@DataStructures@@QEAAAEAV01@AEBV01@@Z @1344
??4?$Hash@USystemAddress@RakNet@@UClientState@@$0BAA@$1?SystemAddressHash@@YAKAEBU12@@Z@DataStructures@@QEAAAEAV01@AEBV01@@Z @1345
??4?$Hash@VRakString@RakNet@@P6AXPEAVBitStream@2@0PEAUPacket@2@@Z$0EA@$1?ToInteger@12@SAKAEBV12@@Z@DataStructures@@QEAAAEAV01@AEBV01@@Z @1346
??4?$Hash@VRakString@RakNet@@P6AXPEAVBitStream@2@PEAUPacket@2@@Z$0EA@$1?ToInteger@12@SAKAEBV12@@Z@DataStructures@@QEAAAEAV01@AEBV01@@Z @1347
??4?$Hash@VRakString@RakNet@@PEAULocalSlot@RPC4@2@$0BAA@$1?ToInteger@12@SAKAEBV12@@Z@DataStructures@@QEAAAEAV01@AEBV01@@Z @1348
??4?$Hash@VRakString@RakNet@@PEAUStrAndGuidAndRoom@RelayPlugin@2@$0BPKA@$1?ToInteger@12@SAKAEBV12@@Z@DataStructures@@QEAAAEAV01@AEBV01@@Z @1349
??4?$Hash@VRakString@RakNet@@PEAUTimeAndValueQueue@StatisticsHistory@2@$0CA@$1?ToInteger@12@SAKAEBV12@@Z@DataStructures@@QEAAAEAV01@AEBV01@@Z @1350
??4?$Hash@VRakString@RakNet@@V12@$0BA@$1?ToInteger@12@SAKAEBV12@@Z@DataStructures@@QEAAAEAV01@AEBV01@@Z @1351
??4?$Hash@_KPEAVTM_Team@RakNet@@$0BAA@$1?ToUint32@12@SAKAEB_K@Z@DataStructures@@QEAAAEAV01@AEBV01@@Z @1352
??4?$Hash@_KPEAVTM_TeamMember@RakNet@@$0BAA@$1?ToUint32@12@SAKAEB_K@Z@DataStructures@@QEAAAEAV01@AEBV01@@Z @1353
??4?$Heap@_KPEAUInternalPacket@RakNet@@$0A@@DataStructures@@QEAAAEAV01@AEBV01@@Z @1354
??4?$List@G@DataStructures@@QEAAAEAV01@AEBV01@@Z @1355
??4?$List@I@DataStructures@@QEAAAEAV01@AEBV01@@Z @1356
??4?$List@PEAUCell@Table@DataStructures@@@DataStructures@@QEAAAEAV01@AEBV01@@Z @1357
??4?$List@PEAUCloudDataList@CloudServer@RakNet@@@DataStructures@@QEAAAEAV01@AEBV01@@Z @1358
??4?$List@PEAUCloudQueryRow@RakNet@@@DataStructures@@QEAAAEAV01@AEBV01@@Z @1359
??4?$List@PEAUConnnectRequest@Router2@RakNet@@@DataStructures@@QEAAAEAV01@AEBV01@@Z @1360
??4?$List@PEAUFileToPushRecipient@FileListTransfer@RakNet@@@DataStructures@@QEAAAEAV01@AEBV01@@Z @1361
??4?$List@PEAUFilterSet@RakNet@@@DataStructures@@QEAAAEAV01@AEBV01@@Z @1362
??4?$List@PEAUForwardEntry@UDPForwarder@RakNet@@@DataStructures@@QEAAAEAV01@AEBV01@@Z @1363
??4?$List@PEAUForwardingRequest@UDPProxyCoordinator@RakNet@@@DataStructures@@QEAAAEAV01@AEBV01@@Z @1364
??4?$List@PEAUGetRequest@CloudServer@RakNet@@@DataStructures@@QEAAAEAV01@AEBV01@@Z @1365
??4?$List@PEAULastSerializationResult@RakNet@@@DataStructures@@QEAAAEAV01@AEBV01@@Z @1366
??4?$List@PEAUNonceAndRemoteSystemRequest@TwoWayAuthentication@RakNet@@@DataStructures@@QEAAAEAV01@AEBV01@@Z @1367
??4?$List@PEAUPingServerGroup@UDPProxyClient@RakNet@@@DataStructures@@QEAAAEAV01@AEBV01@@Z @1368
??4?$List@PEAURM3World@ReplicaManager3@RakNet@@@DataStructures@@QEAAAEAV01@AEBV01@@Z @1369
??4?$List@PEAURP_Group@RelayPlugin@RakNet@@@DataStructures@@QEAAAEAV01@AEBV01@@Z @1370
??4?$List@PEAURemoteServer@CloudServer@RakNet@@@DataStructures@@QEAAAEAV01@AEBV01@@Z @1371
??4?$List@PEAURemoteSystem@ConnectionGraph2@RakNet@@@DataStructures@@QEAAAEAV01@AEBV01@@Z @1372
??4?$List@PEAURequest@HTTPConnection2@RakNet@@@DataStructures@@QEAAAEAV01@AEBV01@@Z @1373
??4?$List@PEAUTelnetClient@TelnetTransport@RakNet@@@DataStructures@@QEAAAEAV01@AEBV01@@Z @1374
??4?$List@PEAUTrackedObject@StatisticsHistory@RakNet@@@DataStructures@@QEAAAEAV01@AEBV01@@Z @1375
??4?$List@PEAUUser@NatPunchthroughServer@RakNet@@@DataStructures@@QEAAAEAV01@AEBV01@@Z @1376
??4?$List@PEAUVoiceChannel@RakNet@@@DataStructures@@QEAAAEAV01@AEBV01@@Z @1377
??4?$List@PEAVCloudServerQueryFilter@RakNet@@@DataStructures@@QEAAAEAV01@AEBV01@@Z @1378
??4?$List@PEAVCommandParserInterface@RakNet@@@DataStructures@@QEAAAEAV01@AEBV01@@Z @1379
??4?$List@PEAVFileListProgress@RakNet@@@DataStructures@@QEAAAEAV01@AEBV01@@Z @1380
??4?$List@PEAVPluginInterface2@RakNet@@@DataStructures@@QEAAAEAV01@AEBV01@@Z @1381
??4?$List@PEAVRackspace2EventCallback@RakNet@@@DataStructures@@QEAAAEAV01@AEBV01@@Z @1382
??4?$List@PEAVRakNetSocket2@RakNet@@@DataStructures@@QEAAAEAV01@AEBV01@@Z @1383
??4?$List@PEAVReplica3@RakNet@@@DataStructures@@QEAAAEAV01@AEBV01@@Z @1384
??4?$List@PEAVTM_Team@RakNet@@@DataStructures@@QEAAAEAV01@AEBV01@@Z @1385
??4?$List@PEAVTM_TeamMember@RakNet@@@DataStructures@@QEAAAEAV01@AEBV01@@Z @1386
??4?$List@PEAVTM_World@RakNet@@@DataStructures@@QEAAAEAV01@AEBV01@@Z @1387
??4?$List@U?$RangeNode@Uuint24_t@RakNet@@@DataStructures@@@DataStructures@@QEAAAEAV01@AEBV01@@Z @1388
??4?$List@UAddrAndGuid@NatPunchthroughClient@RakNet@@@DataStructures@@QEAAAEAV01@AEBV01@@Z @1389
??4?$List@UCloudKey@RakNet@@@DataStructures@@QEAAAEAV01@AEBV01@@Z @1390
??4?$List@UFileListNode@RakNet@@@DataStructures@@QEAAAEAV01@AEBV01@@Z @1391
??4?$List@UForwardedConnection@Router2@RakNet@@@DataStructures@@QEAAAEAV01@AEBV01@@Z @1392
??4?$List@UHeapNode@?$Heap@_KPEAUInternalPacket@RakNet@@$0A@@DataStructures@@@DataStructures@@QEAAAEAV01@AEBV01@@Z @1393
??4?$List@UMapNode@?$Map@GPEAUFileListReceiver@RakNet@@$1??$defaultMapKeyComparison@G@DataStructures@@YAHAEBG0@Z@DataStructures@@@DataStructures@@QEAAAEAV01@AEBV01@@Z @1394
??4?$List@UMapNode@?$Map@HPEAVHuffmanEncodingTree@RakNet@@$1??$defaultMapKeyComparison@H@DataStructures@@YAHAEBH0@Z@DataStructures@@@DataStructures@@QEAAAEAV01@AEBV01@@Z @1395
??4?$List@UMapNode@?$Map@USystemAddress@RakNet@@PEAVByteQueue@DataStructures@@$1??$defaultMapKeyComparison@USystemAddress@RakNet@@@4@YAHAEBU12@0@Z@DataStructures@@@DataStructures@@QEAAAEAV01@AEBV01@@Z @1396
??4?$List@UMiniPunchRequest@Router2@RakNet@@@DataStructures@@QEAAAEAV01@AEBV01@@Z @1397
??4?$List@UMyTeamMembers@TeamBalancer@RakNet@@@DataStructures@@QEAAAEAV01@AEBV01@@Z @1398
??4?$List@UNATDetectionAttempt@NatTypeDetectionServer@RakNet@@@DataStructures@@QEAAAEAV01@AEBV01@@Z @1399
??4?$List@URackspaceOperation@Rackspace@RakNet@@@DataStructures@@QEAAAEAV01@AEBV01@@Z @1400
??4?$List@URakNetGUID@RakNet@@@DataStructures@@QEAAAEAV01@AEBV01@@Z @1401
??4?$List@URegisteredCommand@RakNet@@@DataStructures@@QEAAAEAV01@AEBV01@@Z @1402
??4?$List@URequestedTeam@TM_TeamMember@RakNet@@@DataStructures@@QEAAAEAV01@AEBV01@@Z @1403
??4?$List@UStrAndBool@@@DataStructures@@QEAAAEAV01@AEBV01@@Z @1404
??4?$List@USystemAddress@RakNet@@@DataStructures@@QEAAAEAV01@AEBV01@@Z @1405
??4?$List@USystemAddressAndChannel@LogCommandParser@RakNet@@@DataStructures@@QEAAAEAV01@AEBV01@@Z @1406
??4?$List@UTeamMember@TeamBalancer@RakNet@@@DataStructures@@QEAAAEAV01@AEBV01@@Z @1407
??4?$List@_K@DataStructures@@QEAAAEAV01@AEBV01@@Z @1408
??4?$Map@GPEAUFileListReceiver@RakNet@@$1??$defaultMapKeyComparison@G@DataStructures@@YAHAEBG0@Z@DataStructures@@QEAAAEAV01@AEBV01@@Z @1409
??4?$Map@HPEAVHuffmanEncodingTree@RakNet@@$1??$defaultMapKeyComparison@H@DataStructures@@YAHAEBH0@Z@DataStructures@@QEAAAEAV01@AEBV01@@Z @1410
??4?$Map@USystemAddress@RakNet@@PEAVByteQueue@DataStructures@@$1??$defaultMapKeyComparison@USystemAddress@RakNet@@@4@YAHAEBU12@0@Z@DataStructures@@QEAAAEAV01@AEBV01@@Z @1411
??4?$MemoryPool@$$BY0CAA@E@DataStructures@@QEAAAEAV01@AEBV01@@Z @1412
??4?$MemoryPool@$$BY0CAAA@E@DataStructures@@QEAAAEAV01@AEBV01@@Z @1413
??4?$MemoryPool@$$BY0IA@E@DataStructures@@QEAAAEAV01@AEBV01@@Z @1414
??4?$MemoryPool@$$BY0IAA@E@DataStructures@@QEAAAEAV01@AEBV01@@Z @1415
??4?$MemoryPool@PEAURemoteClient@RakNet@@@DataStructures@@QEAAAEAV01@AEBV01@@Z @1416
??4?$MemoryPool@U?$Page@IPEAURow@Table@DataStructures@@$0BA@@DataStructures@@@DataStructures@@QEAAAEAV01@AEBV01@@Z @1417
??4?$MemoryPool@UBufferedCommandStruct@RakPeer@RakNet@@@DataStructures@@QEAAAEAV01@AEBV01@@Z @1418
??4?$MemoryPool@UChangedVariablesList@VariableDeltaSerializer@RakNet@@@DataStructures@@QEAAAEAV01@AEBV01@@Z @1419
??4?$MemoryPool@UInternalPacket@RakNet@@@DataStructures@@QEAAAEAV01@AEBV01@@Z @1420
??4?$MemoryPool@UInternalPacketRefCountedData@RakNet@@@DataStructures@@QEAAAEAV01@AEBV01@@Z @1421
??4?$MemoryPool@UMessageNumberNode@ReliabilityLayer@RakNet@@@DataStructures@@QEAAAEAV01@AEBV01@@Z @1422
??4?$MemoryPool@UPacket@RakNet@@@DataStructures@@QEAAAEAV01@AEBV01@@Z @1423
??4?$MemoryPool@URemoteSystemIndex@RakNet@@@DataStructures@@QEAAAEAV01@AEBV01@@Z @1424
??4?$MemoryPool@USocketQueryOutput@RakPeer@RakNet@@@DataStructures@@QEAAAEAV01@AEBV01@@Z @1425
??4?$MemoryPool@UStartForwardingInputStruct@UDPForwarder@RakNet@@@DataStructures@@QEAAAEAV01@AEBV01@@Z @1426
??4?$MemoryPool@UStopForwardingStruct@UDPForwarder@RakNet@@@DataStructures@@QEAAAEAV01@AEBV01@@Z @1427
??4?$MemoryPool@USystemAddress@RakNet@@@DataStructures@@QEAAAEAV01@AEBV01@@Z @1428
??4?$OrderedList@GUMapNode@?$Map@GPEAUFileListReceiver@RakNet@@$1??$defaultMapKeyComparison@G@DataStructures@@YAHAEBG0@Z@DataStructures@@$1?NodeComparisonFunc@23@SAHAEBGAEBU123@@Z@DataStructures@@QEAAAEAV01@AEBV01@@Z @1429
??4?$OrderedList@HPEAUFilterSet@RakNet@@$1?FilterSetComp@2@YAHAEBHAEBQEAU12@@Z@DataStructures@@QEAAAEAV01@AEBV01@@Z @1430
??4?$OrderedList@HUMapNode@?$Map@HPEAVHuffmanEncodingTree@RakNet@@$1??$defaultMapKeyComparison@H@DataStructures@@YAHAEBH0@Z@DataStructures@@$1?NodeComparisonFunc@23@SAHAEBHAEBU123@@Z@DataStructures@@QEAAAEAV01@AEBV01@@Z @1431
??4?$OrderedList@IPEAUGetRequest@CloudServer@RakNet@@$1?GetRequestComp@23@KAHAEBIAEBQEAU123@@Z@DataStructures@@QEAAAEAV01@AEBV01@@Z @1432
??4?$OrderedList@PEADUStrAndBool@@$1?StrAndBoolComp@RakNet@@YAHAEBQEADAEBU1@@Z@DataStructures@@QEAAAEAV01@AEBV01@@Z @1433
??4?$OrderedList@PEAVReplica3@RakNet@@PEAULastSerializationResult@2@$1?Replica3LSRComp@Connection_RM3@2@SAHAEBQEAV12@AEBQEAU32@@Z@DataStructures@@QEAAAEAV01@AEBV01@@Z @1434
??4?$OrderedList@PEBDURegisteredCommand@RakNet@@$1?RegisteredCommandComp@2@YAHAEBQEBDAEBU12@@Z@DataStructures@@QEAAAEAV01@AEBV01@@Z @1435
??4?$OrderedList@UCloudKey@RakNet@@PEAUCloudDataList@CloudServer@2@$1?KeyDataListComp@42@KAHAEBU12@AEBQEAU342@@Z@DataStructures@@QEAAAEAV01@AEBV01@@Z @1436
??4?$OrderedList@URakNetGUID@RakNet@@PEAURemoteServer@CloudServer@2@$1?RemoteServerComp@42@KAHAEBU12@AEBQEAU342@@Z@DataStructures@@QEAAAEAV01@AEBV01@@Z @1437
??4?$OrderedList@URakNetGUID@RakNet@@PEAURemoteSystem@ConnectionGraph2@2@$1?RemoteSystemComp@42@SAHAEBU12@AEBQEAU342@@Z@DataStructures@@QEAAAEAV01@AEBV01@@Z @1438
??4?$OrderedList@URakNetGUID@RakNet@@PEAUUser@NatPunchthroughServer@2@$1?NatPunchthroughUserComp@42@SAHAEBU12@AEBQEAU342@@Z@DataStructures@@QEAAAEAV01@AEBV01@@Z @1439
??4?$OrderedList@URakNetGUID@RakNet@@PEAUVoiceChannel@2@$1?VoiceChannelComp@2@YAHAEBU12@AEBQEAU32@@Z@DataStructures@@QEAAAEAV01@AEBV01@@Z @1440
??4?$OrderedList@USenderAndTargetAddress@UDPProxyCoordinator@RakNet@@PEAUForwardingRequest@23@$1?ForwardingRequestComp@23@KAHAEBU123@AEBQEAU423@@Z@DataStructures@@QEAAAEAV01@AEBV01@@Z @1441
??4?$OrderedList@USystemAddress@RakNet@@U12@$1??$defaultOrderedListComparison@USystemAddress@RakNet@@U12@@DataStructures@@YAHAEBU12@0@Z@DataStructures@@QEAAAEAV01@AEBV01@@Z @1442
??4?$OrderedList@USystemAddress@RakNet@@UMapNode@?$Map@USystemAddress@RakNet@@PEAVByteQueue@DataStructures@@$1??$defaultMapKeyComparison@USystemAddress@RakNet@@@4@YAHAEBU12@0@Z@DataStructures@@$1?NodeComparisonFunc@45@SAHAEBU12@AEBU345@@Z@DataStructures@@QEAAAEAV01@AEBV01@@Z @1443
??4?$OrderedList@Uuint24_t@RakNet@@U?$RangeNode@Uuint24_t@RakNet@@@DataStructures@@$1??$RangeNodeComp@Uuint24_t@RakNet@@@4@YAHAEBU12@AEBU34@@Z@DataStructures@@QEAAAEAV01@AEBV01@@Z @1444
??4?$OrderedList@_KPEAUTrackedObject@StatisticsHistory@RakNet@@$1?TrackedObjectComp@23@SAHAEB_KAEBQEAU123@@Z@DataStructures@@QEAAAEAV01@AEBV01@@Z @1445
??4?$Page@IPEAURow@Table@DataStructures@@$0BA@@DataStructures@@QEAAAEAU01@$$QEAU01@@Z @1446
??4?$Page@IPEAURow@Table@DataStructures@@$0BA@@DataStructures@@QEAAAEAU01@AEBU01@@Z @1447
??4?$Queue@H@DataStructures@@QEAA_NAEBV01@@Z @1448
??4?$Queue@I@DataStructures@@QEAA_NAEBV01@@Z @1449
??4?$Queue@P6AHUThreadData@FileListTransfer@RakNet@@PEA_NPEAX@Z@DataStructures@@QEAA_NAEBV01@@Z @1450
??4?$Queue@PEAPEAURemoteClient@RakNet@@@DataStructures@@QEAA_NAEBV01@@Z @1451
??4?$Queue@PEAUBufferedCommandStruct@RakPeer@RakNet@@@DataStructures@@QEAA_NAEBV01@@Z @1452
??4?$Queue@PEAUPacket@RakNet@@@DataStructures@@QEAA_NAEBV01@@Z @1453
??4?$Queue@PEAURNS2RecvStruct@RakNet@@@DataStructures@@QEAA_NAEBV01@@Z @1454
??4?$Queue@PEAURequest@HTTPConnection2@RakNet@@@DataStructures@@QEAA_NAEBV01@@Z @1455
??4?$Queue@PEAUSocketQueryOutput@RakPeer@RakNet@@@DataStructures@@QEAA_NAEBV01@@Z @1456
??4?$Queue@PEAUStartForwardingInputStruct@UDPForwarder@RakNet@@@DataStructures@@QEAA_NAEBV01@@Z @1457
??4?$Queue@PEAUStopForwardingStruct@UDPForwarder@RakNet@@@DataStructures@@QEAA_NAEBV01@@Z @1458
??4?$Queue@PEAUSystemAddress@RakNet@@@DataStructures@@QEAA_NAEBV01@@Z @1459
??4?$Queue@UDSTAndFac@NatPunchthroughClient@RakNet@@@DataStructures@@QEAA_NAEBV01@@Z @1460
??4?$Queue@UPendingChallenge@TwoWayAuthentication@RakNet@@@DataStructures@@QEAA_NAEBV01@@Z @1461
??4?$Queue@UStartForwardingOutputStruct@UDPForwarder@RakNet@@@DataStructures@@QEAA_NAEBV01@@Z @1462
??4?$Queue@USystemAddress@RakNet@@@DataStructures@@QEAA_NAEBV01@@Z @1463
??4?$Queue@UThreadData@FileListTransfer@RakNet@@@DataStructures@@QEAA_NAEBV01@@Z @1464
??4?$Queue@UTimeAndValue@StatisticsHistory@RakNet@@@DataStructures@@QEAA_NAEBV01@@Z @1465
??4?$RangeList@Uuint24_t@RakNet@@@DataStructures@@QEAAAEAV01@AEBV01@@Z @1466
??4?$SingleProducerConsumer@PEAD@DataStructures@@QEAAAEAV01@AEBV01@@Z @1467
??4?$ThreadPool@UThreadData@FileListTransfer@RakNet@@H@@QEAAAEAU0@AEBU0@@Z @1468
??4?$ThreadsafeAllocatingQueue@PEAURemoteClient@RakNet@@@DataStructures@@QEAAAEAV01@$$QEAV01@@Z @1469
??4?$ThreadsafeAllocatingQueue@PEAURemoteClient@RakNet@@@DataStructures@@QEAAAEAV01@AEBV01@@Z @1470
??4?$ThreadsafeAllocatingQueue@UBufferedCommandStruct@RakPeer@RakNet@@@DataStructures@@QEAAAEAV01@$$QEAV01@@Z @1471
??4?$ThreadsafeAllocatingQueue@UBufferedCommandStruct@RakPeer@RakNet@@@DataStructures@@QEAAAEAV01@AEBV01@@Z @1472
??4?$ThreadsafeAllocatingQueue@UPacket@RakNet@@@DataStructures@@QEAAAEAV01@$$QEAV01@@Z @1473
??4?$ThreadsafeAllocatingQueue@UPacket@RakNet@@@DataStructures@@QEAAAEAV01@AEBV01@@Z @1474
??4?$ThreadsafeAllocatingQueue@USocketQueryOutput@RakPeer@RakNet@@@DataStructures@@QEAAAEAV01@$$QEAV01@@Z @1475
??4?$ThreadsafeAllocatingQueue@USocketQueryOutput@RakPeer@RakNet@@@DataStructures@@QEAAAEAV01@AEBV01@@Z @1476
??4?$ThreadsafeAllocatingQueue@UStartForwardingInputStruct@UDPForwarder@RakNet@@@DataStructures@@QEAAAEAV01@$$QEAV01@@Z @1477
??4?$ThreadsafeAllocatingQueue@UStartForwardingInputStruct@UDPForwarder@RakNet@@@DataStructures@@QEAAAEAV01@AEBV01@@Z @1478
??4?$ThreadsafeAllocatingQueue@UStopForwardingStruct@UDPForwarder@RakNet@@@DataStructures@@QEAAAEAV01@$$QEAV01@@Z @1479
??4?$ThreadsafeAllocatingQueue@UStopForwardingStruct@UDPForwarder@RakNet@@@DataStructures@@QEAAAEAV01@AEBV01@@Z @1480
??4?$ThreadsafeAllocatingQueue@USystemAddress@RakNet@@@DataStructures@@QEAAAEAV01@$$QEAV01@@Z @1481
??4?$ThreadsafeAllocatingQueue@USystemAddress@RakNet@@@DataStructures@@QEAAAEAV01@AEBV01@@Z @1482
??4AddressOrGUID@RakNet@@QEAAAEAU01@AEBU01@@Z @1483
??4AddressOrGUID@RakNet@@QEAAAEAU01@AEBURakNetGUID@1@@Z @1484
??4AddressOrGUID@RakNet@@QEAAAEAU01@AEBUSystemAddress@1@@Z @1485
??4BitStream@RakNet@@AEAAAEAV01@AEBV01@@Z @1486
??4BytePool@DataStructures@@QEAAAEAV01@AEBV01@@Z @1487
??4CSHA1@@QEAAAEAV0@AEBV0@@Z @1488
??4Cell@Table@DataStructures@@QEAAAEAU012@AEBU012@@Z @1489
??4CloudAllocator@RakNet@@QEAAAEAV01@AEBV01@@Z @1490
??4CloudClient@RakNet@@QEAAAEAV01@AEBV01@@Z @1491
??4CloudClientCallback@RakNet@@QEAAAEAV01@AEBV01@@Z @1492
??4CloudKey@RakNet@@QEAAAEAU01@AEBU01@@Z @1493
??4CloudQuery@RakNet@@QEAAAEAU01@$$QEAU01@@Z @1494
??4CloudQuery@RakNet@@QEAAAEAU01@AEBU01@@Z @1495
??4CloudQueryResult@RakNet@@QEAAAEAU01@$$QEAU01@@Z @1496
??4CloudQueryResult@RakNet@@QEAAAEAU01@AEBU01@@Z @1497
??4CloudQueryRow@RakNet@@QEAAAEAU01@$$QEAU01@@Z @1498
??4CloudQueryRow@RakNet@@QEAAAEAU01@AEBU01@@Z @1499
??4CloudServer@RakNet@@QEAAAEAV01@AEBV01@@Z @1500
??4CloudServerQueryFilter@RakNet@@QEAAAEAV01@AEBV01@@Z @1501
??4ColumnDescriptor@Table@DataStructures@@QEAAAEAU012@AEBU012@@Z @1502
??4CommandParserInterface@RakNet@@QEAAAEAV01@AEBV01@@Z @1503
??4ConnectionGraph2@RakNet@@QEAAAEAV01@AEBV01@@Z @1504
??4Connection_RM3@RakNet@@QEAAAEAV01@AEBV01@@Z @1505
??4ConsoleServer@RakNet@@QEAAAEAV01@AEBV01@@Z @1506
??4DataCompressor@RakNet@@QEAAAEAV01@$$QEAV01@@Z @1507
??4DataCompressor@RakNet@@QEAAAEAV01@AEBV01@@Z @1508
??4DirectoryDeltaTransfer@RakNet@@QEAAAEAV01@AEBV01@@Z @1509
??4DynDNS@RakNet@@QEAAAEAV01@AEBV01@@Z @1510
??4EmailSender@RakNet@@QEAAAEAV01@$$QEAV01@@Z @1511
??4EmailSender@RakNet@@QEAAAEAV01@AEBV01@@Z @1512
??4FLP_Printf@RakNet@@QEAAAEAV01@AEBV01@@Z @1513
??4FileList@RakNet@@QEAAAEAV01@AEBV01@@Z @1514
??4FileListProgress@RakNet@@QEAAAEAV01@AEBV01@@Z @1515
??4FileListTransfer@RakNet@@QEAAAEAV01@AEBV01@@Z @1516
??4FilterQuery@Table@DataStructures@@QEAAAEAU012@AEBU012@@Z @1517
??4HTTPConnection2@RakNet@@QEAAAEAV01@AEBV01@@Z @1518
??4HTTPConnection@RakNet@@QEAAAEAV01@AEBV01@@Z @1519
??4HuffmanEncodingTree@RakNet@@QEAAAEAV01@AEBV01@@Z @1520
??4IRNS2_Berkley@RakNet@@QEAAAEAV01@$$QEAV01@@Z @1521
??4IRNS2_Berkley@RakNet@@QEAAAEAV01@AEBV01@@Z @1522
??4IncrementalReadInterface@RakNet@@QEAAAEAV01@AEBV01@@Z @1523
??4LocklessUint32_t@RakNet@@QEAAAEAV01@$$QEAV01@@Z @1524
??4LocklessUint32_t@RakNet@@QEAAAEAV01@AEBV01@@Z @1525
??4LogCommandParser@RakNet@@QEAAAEAV01@AEBV01@@Z @1526
??4MessageFilter@RakNet@@QEAAAEAV01@AEBV01@@Z @1527
??4NatPunchthroughClient@RakNet@@QEAAAEAV01@AEBV01@@Z @1528
??4NatPunchthroughDebugInterface@RakNet@@QEAAAEAU01@AEBU01@@Z @1529
??4NatPunchthroughDebugInterface_PacketLogger@RakNet@@QEAAAEAU01@AEBU01@@Z @1530
??4NatPunchthroughDebugInterface_Printf@RakNet@@QEAAAEAU01@$$QEAU01@@Z @1531
??4NatPunchthroughDebugInterface_Printf@RakNet@@QEAAAEAU01@AEBU01@@Z @1532
??4NatPunchthroughServer@RakNet@@QEAAAEAV01@AEBV01@@Z @1533
??4NatPunchthroughServerDebugInterface@RakNet@@QEAAAEAU01@AEBU01@@Z @1534
??4NatPunchthroughServerDebugInterface_PacketLogger@RakNet@@QEAAAEAU01@AEBU01@@Z @1535
??4NatPunchthroughServerDebugInterface_Printf@RakNet@@QEAAAEAU01@$$QEAU01@@Z @1536
??4NatPunchthroughServerDebugInterface_Printf@RakNet@@QEAAAEAU01@AEBU01@@Z @1537
??4NatTypeDetectionClient@RakNet@@QEAAAEAV01@AEBV01@@Z @1538
??4NatTypeDetectionServer@RakNet@@QEAAAEAV01@AEBV01@@Z @1539
??4NetworkIDManager@RakNet@@QEAAAEAV01@AEBV01@@Z @1540
??4NetworkIDObject@RakNet@@QEAAAEAV01@AEBV01@@Z @1541
??4NonceGenerator@TwoWayAuthentication@RakNet@@QEAAAEAU012@AEBU012@@Z @1542
??4PacketConsoleLogger@RakNet@@QEAAAEAV01@$$QEAV01@@Z @1543
??4PacketConsoleLogger@RakNet@@QEAAAEAV01@AEBV01@@Z @1544
??4PacketFileLogger@RakNet@@QEAAAEAV01@AEBV01@@Z @1545
??4PacketLogger@RakNet@@QEAAAEAV01@AEBV01@@Z @1546
??4PacketOutputWindowLogger@RakNet@@QEAAAEAV01@AEBV01@@Z @1547
??4PacketizedTCP@RakNet@@QEAAAEAV01@AEBV01@@Z @1548
??4PluginInterface2@RakNet@@QEAAAEAV01@AEBV01@@Z @1549
??4PublicKey@RakNet@@QEAAAEAU01@$$QEAU01@@Z @1550
??4PublicKey@RakNet@@QEAAAEAU01@AEBU01@@Z @1551
??4PunchthroughConfiguration@RakNet@@QEAAAEAU01@$$QEAU01@@Z @1552
??4PunchthroughConfiguration@RakNet@@QEAAAEAU01@AEBU01@@Z @1553
??4RNS2EventHandler@RakNet@@QEAAAEAV01@AEBV01@@Z @1554
??4RNS2_Berkley@RakNet@@QEAAAEAV01@AEBV01@@Z @1555
??4RNS2_Windows@RakNet@@QEAAAEAV01@AEBV01@@Z @1556
??4RNS2_Windows_Linux_360@RakNet@@QEAAAEAV01@$$QEAV01@@Z @1557
??4RNS2_Windows_Linux_360@RakNet@@QEAAAEAV01@AEBV01@@Z @1558
??4RPC4GlobalRegistration@RakNet@@QEAAAEAV01@$$QEAV01@@Z @1559
??4RPC4GlobalRegistration@RakNet@@QEAAAEAV01@AEBV01@@Z @1560
??4Rackspace2EventCallback@RakNet@@QEAAAEAV01@AEBV01@@Z @1561
??4Rackspace@RakNet@@QEAAAEAV01@AEBV01@@Z @1562
??4RackspaceEventCallback_Default@RakNet@@QEAAAEAV01@$$QEAV01@@Z @1563
??4RackspaceEventCallback_Default@RakNet@@QEAAAEAV01@AEBV01@@Z @1564
??4RakNetCommandParser@RakNet@@QEAAAEAV01@AEBV01@@Z @1565
??4RakNetGUID@RakNet@@QEAAAEAU01@AEBU01@@Z @1566
??4RakNetRandom@RakNet@@QEAAAEAV01@AEBV01@@Z @1567
??4RakNetRandomSync@RakNet@@QEAAAEAV01@AEBV01@@Z @1568
??4RakNetSocket2@RakNet@@QEAAAEAV01@AEBV01@@Z @1569
??4RakNetStatistics@RakNet@@QEAAAEAU01@$$QEAU01@@Z @1570
??4RakNetStatistics@RakNet@@QEAAAEAU01@AEBU01@@Z @1571
??4RakNetTransport2@RakNet@@QEAAAEAV01@AEBV01@@Z @1572
??4RakPeerInterface@RakNet@@QEAAAEAV01@AEBV01@@Z @1573
??4RakString@RakNet@@QEAAAEAV01@AEBV01@@Z @1574
??4RakString@RakNet@@QEAAAEAV01@D@Z @1575
??4RakString@RakNet@@QEAAAEAV01@PEAD@Z @1576
??4RakString@RakNet@@QEAAAEAV01@PEAE@Z @1577
??4RakString@RakNet@@QEAAAEAV01@PEBD@Z @1578
??4RakString@RakNet@@QEAAAEAV01@PEBE@Z @1579
??4RakThread@RakNet@@QEAAAEAV01@$$QEAV01@@Z @1580
??4RakThread@RakNet@@QEAAAEAV01@AEBV01@@Z @1581
??4RakVoice@RakNet@@QEAAAEAV01@AEBV01@@Z @1582
??4RakWString@RakNet@@QEAAAEAV01@AEBV01@@Z @1583
??4RakWString@RakNet@@QEAAAEAV01@AEBVRakString@1@@Z @1584
??4RakWString@RakNet@@QEAAAEAV01@PEAD@Z @1585
??4RakWString@RakNet@@QEAAAEAV01@PEA_W@Z @1586
??4RakWString@RakNet@@QEAAAEAV01@QEBD@Z @1587
??4RakWString@RakNet@@QEAAAEAV01@QEB_W@Z @1588
??4ReferenceCounter@RakNet@@QEAAAEAV01@AEBV01@@Z @1589
??4RegisteredCommand@RakNet@@QEAAAEAU01@$$QEAU01@@Z @1590
??4RegisteredCommand@RakNet@@QEAAAEAU01@AEBU01@@Z @1591
??4RelayPlugin@RakNet@@QEAAAEAV01@AEBV01@@Z @1592
??4ReplicaManager3@RakNet@@QEAAAEAV01@AEBV01@@Z @1593
??4Router2@RakNet@@QEAAAEAV01@AEBV01@@Z @1594
??4Row@Table@DataStructures@@QEAAAEAU012@$$QEAU012@@Z @1595
??4Row@Table@DataStructures@@QEAAAEAU012@AEBU012@@Z @1596
??4SignaledEvent@RakNet@@QEAAAEAV01@AEBV01@@Z @1597
??4SimpleMutex@RakNet@@QEAAAEAV01@AEBV01@@Z @1598
??4SocketDescriptor@RakNet@@QEAAAEAU01@$$QEAU01@@Z @1599
??4SocketDescriptor@RakNet@@QEAAAEAU01@AEBU01@@Z @1600
??4SocketLayer@RakNet@@QEAAAEAV01@AEBV01@@Z @1601
??4SocketLayerOverride@RakNet@@QEAAAEAV01@AEBV01@@Z @1602
??4SortQuery@Table@DataStructures@@QEAAAEAU012@$$QEAU012@@Z @1603
??4SortQuery@Table@DataStructures@@QEAAAEAU012@AEBU012@@Z @1604
??4StatisticsHistory@RakNet@@QEAAAEAV01@AEBV01@@Z @1605
??4StatisticsHistoryPlugin@RakNet@@QEAAAEAV01@AEBV01@@Z @1606
??4StringCompressor@RakNet@@QEAAAEAV01@AEBV01@@Z @1607
??4StringTable@RakNet@@QEAAAEAV01@AEBV01@@Z @1608
??4SystemAddress@RakNet@@QEAAAEAU01@AEBU01@@Z @1609
??4TCPInterface@RakNet@@QEAAAEAV01@AEBV01@@Z @1610
??4TM_Team@RakNet@@QEAAAEAV01@AEBV01@@Z @1611
??4TM_TeamMember@RakNet@@QEAAAEAV01@AEBV01@@Z @1612
??4Table@DataStructures@@QEAAAEAV01@AEBV01@@Z @1613
??4TableSerializer@RakNet@@QEAAAEAV01@$$QEAV01@@Z @1614
??4TableSerializer@RakNet@@QEAAAEAV01@AEBV01@@Z @1615
??4TeamBalancer@RakNet@@QEAAAEAV01@AEBV01@@Z @1616
??4TeamManager@RakNet@@QEAAAEAV01@AEBV01@@Z @1617
??4TelnetTransport@RakNet@@QEAAAEAV01@AEBV01@@Z @1618
??4ThreadsafePacketLogger@RakNet@@QEAAAEAV01@AEBV01@@Z @1619
??4TransportInterface@RakNet@@QEAAAEAV01@AEBV01@@Z @1620
??4TwoWayAuthentication@RakNet@@QEAAAEAV01@AEBV01@@Z @1621
??4UDPForwarder@RakNet@@QEAAAEAV01@AEBV01@@Z @1622
??4UDPProxyClient@RakNet@@QEAAAEAV01@AEBV01@@Z @1623
??4UDPProxyCoordinator@RakNet@@QEAAAEAV01@AEBV01@@Z @1624
??4UDPProxyServer@RakNet@@QEAAAEAV01@AEBV01@@Z @1625
??4uint24_t@RakNet@@QEAAAEAU01@AEBI@Z @1626
??4uint24_t@RakNet@@QEAAAEAU01@AEBU01@@Z @1627
??8AddressOrGUID@RakNet@@QEBA_NAEBU01@@Z @1628
??8RakNetGUID@RakNet@@QEBA_NAEBU01@@Z @1629
??8RakString@RakNet@@QEBA_NAEBV01@@Z @1630
??8RakString@RakNet@@QEBA_NPEAD@Z @1631
??8RakString@RakNet@@QEBA_NPEBD@Z @1632
??8RakWString@RakNet@@QEBA_NAEBV01@@Z @1633
??8SystemAddress@RakNet@@QEBA_NAEBU01@@Z @1634
??8uint24_t@RakNet@@QEBA_NAEBI@Z @1635
??8uint24_t@RakNet@@QEBA_NAEBU01@@Z @1636
??9RakNetGUID@RakNet@@QEBA_NAEBU01@@Z @1637
??9RakString@RakNet@@QEBA_NAEBV01@@Z @1638
??9RakString@RakNet@@QEBA_NPEAD@Z @1639
??9RakString@RakNet@@QEBA_NPEBD@Z @1640
??9RakWString@RakNet@@QEBA_NAEBV01@@Z @1641
??9SystemAddress@RakNet@@QEBA_NAEBU01@@Z @1642
??9uint24_t@RakNet@@QEBA_NAEBI@Z @1643
??9uint24_t@RakNet@@QEBA_NAEBU01@@Z @1644
??A?$Heap@_KPEAUInternalPacket@RakNet@@$0A@@DataStructures@@QEBAAEAPEAUInternalPacket@RakNet@@I@Z @1645
??A?$List@E@DataStructures@@QEBAAEAEI@Z @1646
??A?$List@G@DataStructures@@QEBAAEAGI@Z @1647
??A?$List@I@DataStructures@@QEBAAEAII@Z @1648
??A?$List@PEAUBanStruct@RakPeer@RakNet@@@DataStructures@@QEBAAEAPEAUBanStruct@RakPeer@RakNet@@I@Z @1649
??A?$List@PEAUBufferedGetResponseFromServer@CloudServer@RakNet@@@DataStructures@@QEBAAEAPEAUBufferedGetResponseFromServer@CloudServer@RakNet@@I@Z @1650
??A?$List@PEAUCell@Table@DataStructures@@@DataStructures@@QEBAAEAPEAUCell@Table@1@I@Z @1651
??A?$List@PEAUChangedVariablesList@VariableDeltaSerializer@RakNet@@@DataStructures@@QEBAAEAPEAUChangedVariablesList@VariableDeltaSerializer@RakNet@@I@Z @1652
??A?$List@PEAUCloudData@CloudServer@RakNet@@@DataStructures@@QEBAAEAPEAUCloudData@CloudServer@RakNet@@I@Z @1653
??A?$List@PEAUCloudDataList@CloudServer@RakNet@@@DataStructures@@QEBAAEAPEAUCloudDataList@CloudServer@RakNet@@I@Z @1654
??A?$List@PEAUCloudQueryRow@RakNet@@@DataStructures@@QEBAAEAPEAUCloudQueryRow@RakNet@@I@Z @1655
??A?$List@PEAUConnectionAttempt@NatPunchthroughServer@RakNet@@@DataStructures@@QEBAAEAPEAUConnectionAttempt@NatPunchthroughServer@RakNet@@I@Z @1656
??A?$List@PEAUConnnectRequest@Router2@RakNet@@@DataStructures@@QEBAAEAPEAUConnnectRequest@Router2@RakNet@@I@Z @1657
??A?$List@PEAUFCM2Participant@FullyConnectedMesh2@RakNet@@@DataStructures@@QEBAAEAPEAUFCM2Participant@FullyConnectedMesh2@RakNet@@I@Z @1658
??A?$List@PEAUFileToPushRecipient@FileListTransfer@RakNet@@@DataStructures@@QEBAAEAPEAUFileToPushRecipient@FileListTransfer@RakNet@@I@Z @1659
??A?$List@PEAUFilterSet@RakNet@@@DataStructures@@QEBAAEAPEAUFilterSet@RakNet@@I@Z @1660
??A?$List@PEAUForwardEntry@UDPForwarder@RakNet@@@DataStructures@@QEBAAEAPEAUForwardEntry@UDPForwarder@RakNet@@I@Z @1661
??A?$List@PEAUForwardingRequest@UDPProxyCoordinator@RakNet@@@DataStructures@@QEBAAEAPEAUForwardingRequest@UDPProxyCoordinator@RakNet@@I@Z @1662
??A?$List@PEAUGetRequest@CloudServer@RakNet@@@DataStructures@@QEBAAEAPEAUGetRequest@CloudServer@RakNet@@I@Z @1663
??A?$List@PEAUInternalPacket@RakNet@@@DataStructures@@QEBAAEAPEAUInternalPacket@RakNet@@I@Z @1664
??A?$List@PEAUKeySubscriberID@CloudServer@RakNet@@@DataStructures@@QEBAAEAPEAUKeySubscriberID@CloudServer@RakNet@@I@Z @1665
??A?$List@PEAULastSerializationResult@RakNet@@@DataStructures@@QEBAAEAPEAULastSerializationResult@RakNet@@I@Z @1666
??A?$List@PEAULocalCallback@RPC4@RakNet@@@DataStructures@@QEBAAEAPEAULocalCallback@RPC4@RakNet@@I@Z @1667
??A?$List@PEAULocalSlot@RPC4@RakNet@@@DataStructures@@QEBAAEAPEAULocalSlot@RPC4@RakNet@@I@Z @1668
??A?$List@PEAUNonceAndRemoteSystemRequest@TwoWayAuthentication@RakNet@@@DataStructures@@QEBAAEAPEAUNonceAndRemoteSystemRequest@TwoWayAuthentication@RakNet@@I@Z @1669
??A?$List@PEAUPingServerGroup@UDPProxyClient@RakNet@@@DataStructures@@QEBAAEAPEAUPingServerGroup@UDPProxyClient@RakNet@@I@Z @1670
??A?$List@PEAURM3World@ReplicaManager3@RakNet@@@DataStructures@@QEBAAEAPEAURM3World@ReplicaManager3@RakNet@@I@Z @1671
??A?$List@PEAURP_Group@RelayPlugin@RakNet@@@DataStructures@@QEBAAEAPEAURP_Group@RelayPlugin@RakNet@@I@Z @1672
??A?$List@PEAUReadyEventNode@ReadyEvent@RakNet@@@DataStructures@@QEBAAEAPEAUReadyEventNode@ReadyEvent@RakNet@@I@Z @1673
??A?$List@PEAURemoteCloudClient@CloudServer@RakNet@@@DataStructures@@QEBAAEAPEAURemoteCloudClient@CloudServer@RakNet@@I@Z @1674
??A?$List@PEAURemoteServer@CloudServer@RakNet@@@DataStructures@@QEBAAEAPEAURemoteServer@CloudServer@RakNet@@I@Z @1675
??A?$List@PEAURemoteSystem@ConnectionGraph2@RakNet@@@DataStructures@@QEBAAEAPEAURemoteSystem@ConnectionGraph2@RakNet@@I@Z @1676
??A?$List@PEAURemoteSystemVariableHistory@VariableDeltaSerializer@RakNet@@@DataStructures@@QEBAAEAPEAURemoteSystemVariableHistory@VariableDeltaSerializer@RakNet@@I@Z @1677
??A?$List@PEAURequest@HTTPConnection2@RakNet@@@DataStructures@@QEBAAEAPEAURequest@HTTPConnection2@RakNet@@I@Z @1678
??A?$List@PEAURow@Table@DataStructures@@@DataStructures@@QEBAAEAPEAURow@Table@1@I@Z @1679
??A?$List@PEAUSharedString@RakString@RakNet@@@DataStructures@@QEBAAEAPEAUSharedString@RakString@RakNet@@I@Z @1680
??A?$List@PEAUSplitPacketChannel@RakNet@@@DataStructures@@QEBAAEAPEAUSplitPacketChannel@RakNet@@I@Z @1681
??A?$List@PEAUStrAndGuidAndRoom@RelayPlugin@RakNet@@@DataStructures@@QEBAAEAPEAUStrAndGuidAndRoom@RelayPlugin@RakNet@@I@Z @1682
??A?$List@PEAUTelnetClient@TelnetTransport@RakNet@@@DataStructures@@QEBAAEAPEAUTelnetClient@TelnetTransport@RakNet@@I@Z @1683
??A?$List@PEAUTimeAndValueQueue@StatisticsHistory@RakNet@@@DataStructures@@QEBAAEAPEAUTimeAndValueQueue@StatisticsHistory@RakNet@@I@Z @1684
??A?$List@PEAUTrackedObject@StatisticsHistory@RakNet@@@DataStructures@@QEBAAEAPEAUTrackedObject@StatisticsHistory@RakNet@@I@Z @1685
??A?$List@PEAUUser@NatPunchthroughServer@RakNet@@@DataStructures@@QEBAAEAPEAUUser@NatPunchthroughServer@RakNet@@I@Z @1686
??A?$List@PEAUVerifiedJoinInProgress@FullyConnectedMesh2@RakNet@@@DataStructures@@QEBAAEAPEAUVerifiedJoinInProgress@FullyConnectedMesh2@RakNet@@I@Z @1687
??A?$List@PEAUVoiceBuffer@RakNet@@@DataStructures@@QEBAAEAPEAUVoiceBuffer@RakNet@@I@Z @1688
??A?$List@PEAUVoiceChannel@RakNet@@@DataStructures@@QEBAAEAPEAUVoiceChannel@RakNet@@I@Z @1689
??A?$List@PEAVCloudServerQueryFilter@RakNet@@@DataStructures@@QEBAAEAPEAVCloudServerQueryFilter@RakNet@@I@Z @1690
??A?$List@PEAVCommandParserInterface@RakNet@@@DataStructures@@QEBAAEAPEAVCommandParserInterface@RakNet@@I@Z @1691
??A?$List@PEAVConnection_RM3@RakNet@@@DataStructures@@QEBAAEAPEAVConnection_RM3@RakNet@@I@Z @1692
??A?$List@PEAVFileListProgress@RakNet@@@DataStructures@@QEBAAEAPEAVFileListProgress@RakNet@@I@Z @1693
??A?$List@PEAVPluginInterface2@RakNet@@@DataStructures@@QEBAAEAPEAVPluginInterface2@RakNet@@I@Z @1694
??A?$List@PEAVRackspace2EventCallback@RakNet@@@DataStructures@@QEBAAEAPEAVRackspace2EventCallback@RakNet@@I@Z @1695
??A?$List@PEAVRakNetSocket2@RakNet@@@DataStructures@@QEBAAEAPEAVRakNetSocket2@RakNet@@I@Z @1696
??A?$List@PEAVReplica3@RakNet@@@DataStructures@@QEBAAEAPEAVReplica3@RakNet@@I@Z @1697
??A?$List@PEAVTM_Team@RakNet@@@DataStructures@@QEBAAEAPEAVTM_Team@RakNet@@I@Z @1698
??A?$List@PEAVTM_TeamMember@RakNet@@@DataStructures@@QEBAAEAPEAVTM_TeamMember@RakNet@@I@Z @1699
??A?$List@PEAVTM_World@RakNet@@@DataStructures@@QEBAAEAPEAVTM_World@RakNet@@I@Z @1700
??A?$List@PEAX@DataStructures@@QEBAAEAPEAXI@Z @1701
??A?$List@U?$RangeNode@Uuint24_t@RakNet@@@DataStructures@@@DataStructures@@QEBAAEAU?$RangeNode@Uuint24_t@RakNet@@@1@I@Z @1702
??A?$List@UAddrAndGuid@NatPunchthroughClient@RakNet@@@DataStructures@@QEBAAEAUAddrAndGuid@NatPunchthroughClient@RakNet@@I@Z @1703
??A?$List@UAddressOrGUID@RakNet@@@DataStructures@@QEBAAEAUAddressOrGUID@RakNet@@I@Z @1704
??A?$List@UCell@Table@DataStructures@@@DataStructures@@QEBAAEAUCell@Table@1@I@Z @1705
??A?$List@UCloudKey@RakNet@@@DataStructures@@QEBAAEAUCloudKey@RakNet@@I@Z @1706
??A?$List@UColumnDescriptor@Table@DataStructures@@@DataStructures@@QEBAAEAUColumnDescriptor@Table@1@I@Z @1707
??A?$List@UConnectionRequestSystem@Router2@RakNet@@@DataStructures@@QEBAAEAUConnectionRequestSystem@Router2@RakNet@@I@Z @1708
??A?$List@UFileListNode@RakNet@@@DataStructures@@QEBAAEAUFileListNode@RakNet@@I@Z @1709
??A?$List@UFilteredSystem@RakNet@@@DataStructures@@QEBAAEAUFilteredSystem@RakNet@@I@Z @1710
??A?$List@UForwardedConnection@Router2@RakNet@@@DataStructures@@QEBAAEAUForwardedConnection@Router2@RakNet@@I@Z @1711
??A?$List@UHeapNode@?$Heap@_KPEAUInternalPacket@RakNet@@$0A@@DataStructures@@@DataStructures@@QEBAAEAUHeapNode@?$Heap@_KPEAUInternalPacket@RakNet@@$0A@@1@I@Z @1712
??A?$List@UIndexAndType@VariadicSQLParser@@@DataStructures@@QEBAAEAUIndexAndType@VariadicSQLParser@@I@Z @1713
??A?$List@UJoinRequestHelper@TM_World@RakNet@@@DataStructures@@QEBAAEAUJoinRequestHelper@TM_World@RakNet@@I@Z @1714
??A?$List@ULocalSlotObject@RPC4@RakNet@@@DataStructures@@QEBAAEAULocalSlotObject@RPC4@RakNet@@I@Z @1715
??A?$List@UMapNode@?$Map@GPEAUFileListReceiver@RakNet@@$1??$defaultMapKeyComparison@G@DataStructures@@YAHAEBG0@Z@DataStructures@@@DataStructures@@QEBAAEAUMapNode@?$Map@GPEAUFileListReceiver@RakNet@@$1??$defaultMapKeyComparison@G@DataStructures@@YAHAEBG0@Z@1@I@Z @1716
??A?$List@UMapNode@?$Map@HPEAVHuffmanEncodingTree@RakNet@@$1??$defaultMapKeyComparison@H@DataStructures@@YAHAEBH0@Z@DataStructures@@@DataStructures@@QEBAAEAUMapNode@?$Map@HPEAVHuffmanEncodingTree@RakNet@@$1??$defaultMapKeyComparison@H@DataStructures@@YAHAEBH0@Z@1@I@Z @1717
??A?$List@UMapNode@?$Map@IUFLR_MemoryBlock@RakNet@@$1??$defaultMapKeyComparison@I@DataStructures@@YAHAEBI0@Z@DataStructures@@@DataStructures@@QEBAAEAUMapNode@?$Map@IUFLR_MemoryBlock@RakNet@@$1??$defaultMapKeyComparison@I@DataStructures@@YAHAEBI0@Z@1@I@Z @1718
??A?$List@UMapNode@?$Map@USystemAddress@RakNet@@PEAVByteQueue@DataStructures@@$1??$defaultMapKeyComparison@USystemAddress@RakNet@@@4@YAHAEBU12@0@Z@DataStructures@@@DataStructures@@QEBAAEAUMapNode@?$Map@USystemAddress@RakNet@@PEAVByteQueue@DataStructures@@$1??$defaultMapKeyComparison@USystemAddress@RakNet@@@4@YAHAEBU12@0@Z@1@I@Z @1719
??A?$List@UMiniPunchRequest@Router2@RakNet@@@DataStructures@@QEBAAEAUMiniPunchRequest@Router2@RakNet@@I@Z @1720
??A?$List@UMyTeamMembers@TeamBalancer@RakNet@@@DataStructures@@QEBAAEAUMyTeamMembers@TeamBalancer@RakNet@@I@Z @1721
??A?$List@UNATDetectionAttempt@NatTypeDetectionServer@RakNet@@@DataStructures@@QEBAAEAUNATDetectionAttempt@NatTypeDetectionServer@RakNet@@I@Z @1722
??A?$List@URackspaceOperation@Rackspace@RakNet@@@DataStructures@@QEBAAEAURackspaceOperation@Rackspace@RakNet@@I@Z @1723
??A?$List@URakNetGUID@RakNet@@@DataStructures@@QEBAAEAURakNetGUID@RakNet@@I@Z @1724
??A?$List@URakNetStatistics@RakNet@@@DataStructures@@QEBAAEAURakNetStatistics@RakNet@@I@Z @1725
??A?$List@URegisteredCommand@RakNet@@@DataStructures@@QEBAAEAURegisteredCommand@RakNet@@I@Z @1726
??A?$List@URemoteSystem@ReadyEvent@RakNet@@@DataStructures@@QEBAAEAURemoteSystem@ReadyEvent@RakNet@@I@Z @1727
??A?$List@URequestedTeam@TM_TeamMember@RakNet@@@DataStructures@@QEBAAEAURequestedTeam@TM_TeamMember@RakNet@@I@Z @1728
??A?$List@UServerWithPing@UDPProxyClient@RakNet@@@DataStructures@@QEBAAEAUServerWithPing@UDPProxyClient@RakNet@@I@Z @1729
??A?$List@UServerWithPing@UDPProxyCoordinator@RakNet@@@DataStructures@@QEBAAEAUServerWithPing@UDPProxyCoordinator@RakNet@@I@Z @1730
??A?$List@UStrAndBool@@@DataStructures@@QEBAAEAUStrAndBool@@I@Z @1731
??A?$List@UStrAndGuid@RelayPlugin@RakNet@@@DataStructures@@QEBAAEAUStrAndGuid@RelayPlugin@RakNet@@I@Z @1732
??A?$List@USystemAddress@RakNet@@@DataStructures@@QEBAAEAUSystemAddress@RakNet@@I@Z @1733
??A?$List@USystemAddressAndChannel@LogCommandParser@RakNet@@@DataStructures@@QEBAAEAUSystemAddressAndChannel@LogCommandParser@RakNet@@I@Z @1734
??A?$List@USystemAddressAndGuid@ConnectionGraph2@RakNet@@@DataStructures@@QEBAAEAUSystemAddressAndGuid@ConnectionGraph2@RakNet@@I@Z @1735
??A?$List@UTeamMember@TeamBalancer@RakNet@@@DataStructures@@QEBAAEAUTeamMember@TeamBalancer@RakNet@@I@Z @1736
??A?$List@UUnreliableWithAckReceiptNode@ReliabilityLayer@RakNet@@@DataStructures@@QEBAAEAUUnreliableWithAckReceiptNode@ReliabilityLayer@RakNet@@I@Z @1737
??A?$List@UVariableLastValueNode@VariableListDeltaTracker@RakNet@@@DataStructures@@QEBAAEAUVariableLastValueNode@VariableListDeltaTracker@RakNet@@I@Z @1738
??A?$List@UVerifiedJoinInProgressMember@FullyConnectedMesh2@RakNet@@@DataStructures@@QEBAAEAUVerifiedJoinInProgressMember@FullyConnectedMesh2@RakNet@@I@Z @1739
??A?$List@VRakString@RakNet@@@DataStructures@@QEBAAEAVRakString@RakNet@@I@Z @1740
??A?$List@_K@DataStructures@@QEBAAEA_KI@Z @1741
??A?$List@_N@DataStructures@@QEBAAEA_NI@Z @1742
??A?$Map@GPEAUFileListReceiver@RakNet@@$1??$defaultMapKeyComparison@G@DataStructures@@YAHAEBG0@Z@DataStructures@@QEBAAEAPEAUFileListReceiver@RakNet@@I@Z @1743
??A?$Map@HPEAVHuffmanEncodingTree@RakNet@@$1??$defaultMapKeyComparison@H@DataStructures@@YAHAEBH0@Z@DataStructures@@QEBAAEAPEAVHuffmanEncodingTree@RakNet@@I@Z @1744
??A?$Map@IUFLR_MemoryBlock@RakNet@@$1??$defaultMapKeyComparison@I@DataStructures@@YAHAEBI0@Z@DataStructures@@QEBAAEAUFLR_MemoryBlock@RakNet@@I@Z @1745
??A?$Map@USystemAddress@RakNet@@PEAVByteQueue@DataStructures@@$1??$defaultMapKeyComparison@USystemAddress@RakNet@@@4@YAHAEBU12@0@Z@DataStructures@@QEBAAEAPEAVByteQueue@1@I@Z @1746
??A?$OrderedList@EPEAULocalCallback@RPC4@RakNet@@$1?LocalCallbackComp@23@SAHAEBEAEBQEAU123@@Z@DataStructures@@QEBAAEAPEAULocalCallback@RPC4@RakNet@@I@Z @1747
??A?$OrderedList@GPEAUSplitPacketChannel@RakNet@@$1?SplitPacketChannelComp@2@YAHAEBGAEBQEAU12@@Z@DataStructures@@QEBAAEAPEAUSplitPacketChannel@RakNet@@I@Z @1748
??A?$OrderedList@GUMapNode@?$Map@GPEAUFileListReceiver@RakNet@@$1??$defaultMapKeyComparison@G@DataStructures@@YAHAEBG0@Z@DataStructures@@$1?NodeComparisonFunc@23@SAHAEBGAEBU123@@Z@DataStructures@@QEBAAEAUMapNode@?$Map@GPEAUFileListReceiver@RakNet@@$1??$defaultMapKeyComparison@G@DataStructures@@YAHAEBG0@Z@1@I@Z @1749
??A?$OrderedList@GUServerWithPing@UDPProxyCoordinator@RakNet@@$1?ServerWithPingComp@23@KAHAEBGAEBU123@@Z@DataStructures@@QEBAAEAUServerWithPing@UDPProxyCoordinator@RakNet@@I@Z @1750
??A?$OrderedList@HPEAUFilterSet@RakNet@@$1?FilterSetComp@2@YAHAEBHAEBQEAU12@@Z@DataStructures@@QEBAAEAPEAUFilterSet@RakNet@@I@Z @1751
??A?$OrderedList@HPEAUReadyEventNode@ReadyEvent@RakNet@@$1?ReadyEventNodeComp@23@SAHAEBHAEBQEAU123@@Z@DataStructures@@QEBAAEAPEAUReadyEventNode@ReadyEvent@RakNet@@I@Z @1752
??A?$OrderedList@HPEAUVoiceBuffer@RakNet@@$1?VoiceBufferComp@2@YAHAEBHAEBQEAU12@@Z@DataStructures@@QEBAAEAPEAUVoiceBuffer@RakNet@@I@Z @1753
??A?$OrderedList@HUMapNode@?$Map@HPEAVHuffmanEncodingTree@RakNet@@$1??$defaultMapKeyComparison@H@DataStructures@@YAHAEBH0@Z@DataStructures@@$1?NodeComparisonFunc@23@SAHAEBHAEBU123@@Z@DataStructures@@QEBAAEAUMapNode@?$Map@HPEAVHuffmanEncodingTree@RakNet@@$1??$defaultMapKeyComparison@H@DataStructures@@YAHAEBH0@Z@1@I@Z @1754
??A?$OrderedList@IPEAUChangedVariablesList@VariableDeltaSerializer@RakNet@@$1?UpdatedVariablesListPtrComp@23@KAHAEBIAEBQEAU123@@Z@DataStructures@@QEBAAEAPEAUChangedVariablesList@VariableDeltaSerializer@RakNet@@I@Z @1755
??A?$OrderedList@IPEAUGetRequest@CloudServer@RakNet@@$1?GetRequestComp@23@KAHAEBIAEBQEAU123@@Z@DataStructures@@QEBAAEAPEAUGetRequest@CloudServer@RakNet@@I@Z @1756
??A?$OrderedList@IUMapNode@?$Map@IUFLR_MemoryBlock@RakNet@@$1??$defaultMapKeyComparison@I@DataStructures@@YAHAEBI0@Z@DataStructures@@$1?NodeComparisonFunc@23@SAHAEBIAEBU123@@Z@DataStructures@@QEBAAEAUMapNode@?$Map@IUFLR_MemoryBlock@RakNet@@$1??$defaultMapKeyComparison@I@DataStructures@@YAHAEBI0@Z@1@I@Z @1757
??A?$OrderedList@PEADUStrAndBool@@$1?StrAndBoolComp@RakNet@@YAHAEBQEADAEBU1@@Z@DataStructures@@QEBAAEAUStrAndBool@@I@Z @1758
??A?$OrderedList@PEAUFCM2Participant@FullyConnectedMesh2@RakNet@@PEAU123@$1?FCM2ParticipantComp@@YAHAEBQEAU123@0@Z@DataStructures@@QEBAAEAPEAUFCM2Participant@FullyConnectedMesh2@RakNet@@I@Z @1759
??A?$OrderedList@PEAURow@Table@DataStructures@@PEAU123@$1?RowSort@@YAHAEBQEAU123@0@Z@DataStructures@@QEBAAEAPEAURow@Table@1@I@Z @1760
??A?$OrderedList@PEAUTimeAndValueQueue@StatisticsHistory@RakNet@@PEAU123@$1?TimeAndValueQueueCompAsc@@YAHAEBQEAU123@0@Z@DataStructures@@QEBAAEAPEAUTimeAndValueQueue@StatisticsHistory@RakNet@@I@Z @1761
??A?$OrderedList@PEAVReplica3@RakNet@@PEAULastSerializationResult@2@$1?Replica3LSRComp@Connection_RM3@2@SAHAEBQEAV12@AEBQEAU32@@Z@DataStructures@@QEBAAEAPEAULastSerializationResult@RakNet@@I@Z @1762
??A?$OrderedList@PEBDURegisteredCommand@RakNet@@$1?RegisteredCommandComp@2@YAHAEBQEBDAEBU12@@Z@DataStructures@@QEBAAEAURegisteredCommand@RakNet@@I@Z @1763
??A?$OrderedList@UCloudKey@RakNet@@PEAUCloudDataList@CloudServer@2@$1?KeyDataListComp@42@KAHAEBU12@AEBQEAU342@@Z@DataStructures@@QEBAAEAPEAUCloudDataList@CloudServer@RakNet@@I@Z @1764
??A?$OrderedList@UCloudKey@RakNet@@PEAUKeySubscriberID@CloudServer@2@$1?KeySubscriberIDComp@42@KAHAEBU12@AEBQEAU342@@Z@DataStructures@@QEBAAEAPEAUKeySubscriberID@CloudServer@RakNet@@I@Z @1765
??A?$OrderedList@UCloudKey@RakNet@@U12@$1?CloudKeyComp@2@YAHAEBU12@0@Z@DataStructures@@QEBAAEAUCloudKey@RakNet@@I@Z @1766
??A?$OrderedList@UConnectionRequestSystem@Router2@RakNet@@U123@$1?ConnectionRequestSystemComp@@YAHAEBU123@0@Z@DataStructures@@QEBAAEAUConnectionRequestSystem@Router2@RakNet@@I@Z @1767
??A?$OrderedList@UJoinRequestHelper@TM_World@RakNet@@U123@$1?JoinRequestHelperComp@23@SAHAEBU123@0@Z@DataStructures@@QEBAAEAUJoinRequestHelper@TM_World@RakNet@@I@Z @1768
??A?$OrderedList@ULocalSlotObject@RPC4@RakNet@@U123@$1?LocalSlotObjectComp@23@SAHAEBU123@0@Z@DataStructures@@QEBAAEAULocalSlotObject@RPC4@RakNet@@I@Z @1769
??A?$OrderedList@URakNetGUID@RakNet@@PEAUBufferedGetResponseFromServer@CloudServer@2@$1?BufferedGetResponseFromServerComp@42@KAHAEBU12@AEBQEAU342@@Z@DataStructures@@QEBAAEAPEAUBufferedGetResponseFromServer@CloudServer@RakNet@@I@Z @1770
??A?$OrderedList@URakNetGUID@RakNet@@PEAUCloudData@CloudServer@2@$1?KeyDataPtrComp@42@KAHAEBU12@AEBQEAU342@@Z@DataStructures@@QEBAAEAPEAUCloudData@CloudServer@RakNet@@I@Z @1771
??A?$OrderedList@URakNetGUID@RakNet@@PEAURemoteServer@CloudServer@2@$1?RemoteServerComp@42@KAHAEBU12@AEBQEAU342@@Z@DataStructures@@QEBAAEAPEAURemoteServer@CloudServer@RakNet@@I@Z @1772
??A?$OrderedList@URakNetGUID@RakNet@@PEAURemoteSystem@ConnectionGraph2@2@$1?RemoteSystemComp@42@SAHAEBU12@AEBQEAU342@@Z@DataStructures@@QEBAAEAPEAURemoteSystem@ConnectionGraph2@RakNet@@I@Z @1773
??A?$OrderedList@URakNetGUID@RakNet@@PEAUUser@NatPunchthroughServer@2@$1?NatPunchthroughUserComp@42@SAHAEBU12@AEBQEAU342@@Z@DataStructures@@QEBAAEAPEAUUser@NatPunchthroughServer@RakNet@@I@Z @1774
??A?$OrderedList@URakNetGUID@RakNet@@PEAUVoiceChannel@2@$1?VoiceChannelComp@2@YAHAEBU12@AEBQEAU32@@Z@DataStructures@@QEBAAEAPEAUVoiceChannel@RakNet@@I@Z @1775
??A?$OrderedList@URakNetGUID@RakNet@@U12@$1??$defaultOrderedListComparison@URakNetGUID@RakNet@@U12@@DataStructures@@YAHAEBU12@0@Z@DataStructures@@QEBAAEAURakNetGUID@RakNet@@I@Z @1776
??A?$OrderedList@URakNetGUID@RakNet@@URemoteSystem@ReadyEvent@2@$1?RemoteSystemCompByGuid@42@SAHAEBU12@AEBU342@@Z@DataStructures@@QEBAAEAURemoteSystem@ReadyEvent@RakNet@@I@Z @1777
??A?$OrderedList@USenderAndTargetAddress@UDPProxyCoordinator@RakNet@@PEAUForwardingRequest@23@$1?ForwardingRequestComp@23@KAHAEBU123@AEBQEAU423@@Z@DataStructures@@QEBAAEAPEAUForwardingRequest@UDPProxyCoordinator@RakNet@@I@Z @1778
??A?$OrderedList@USystemAddress@RakNet@@UMapNode@?$Map@USystemAddress@RakNet@@PEAVByteQueue@DataStructures@@$1??$defaultMapKeyComparison@USystemAddress@RakNet@@@4@YAHAEBU12@0@Z@DataStructures@@$1?NodeComparisonFunc@45@SAHAEBU12@AEBU345@@Z@DataStructures@@QEBAAEAUMapNode@?$Map@USystemAddress@RakNet@@PEAVByteQueue@DataStructures@@$1??$defaultMapKeyComparison@USystemAddress@RakNet@@@4@YAHAEBU12@0@Z@1@I@Z @1779
??A?$OrderedList@USystemAddressAndGuid@ConnectionGraph2@RakNet@@U123@$1?SystemAddressAndGuidComp@23@SAHAEBU123@0@Z@DataStructures@@QEBAAEAUSystemAddressAndGuid@ConnectionGraph2@RakNet@@I@Z @1780
??A?$OrderedList@Uuint24_t@RakNet@@U?$RangeNode@Uuint24_t@RakNet@@@DataStructures@@$1??$RangeNodeComp@Uuint24_t@RakNet@@@4@YAHAEBU12@AEBU34@@Z@DataStructures@@QEBAAEAU?$RangeNode@Uuint24_t@RakNet@@@1@I@Z @1781
??A?$OrderedList@VRakString@RakNet@@V12@$1??$defaultOrderedListComparison@VRakString@RakNet@@V12@@DataStructures@@YAHAEBV12@0@Z@DataStructures@@QEBAAEAVRakString@RakNet@@I@Z @1782
??A?$OrderedList@_KPEAUTrackedObject@StatisticsHistory@RakNet@@$1?TrackedObjectComp@23@SAHAEB_KAEBQEAU123@@Z@DataStructures@@QEBAAEAPEAUTrackedObject@StatisticsHistory@RakNet@@I@Z @1783
??A?$Queue@I@DataStructures@@QEBAAEAII@Z @1784
??A?$Queue@PEAD@DataStructures@@QEBAAEAPEADI@Z @1785
??A?$Queue@PEAPEAURemoteClient@RakNet@@@DataStructures@@QEBAAEAPEAPEAURemoteClient@RakNet@@I@Z @1786
??A?$Queue@PEAUBufferedCommandStruct@RakPeer@RakNet@@@DataStructures@@QEBAAEAPEAUBufferedCommandStruct@RakPeer@RakNet@@I@Z @1787
??A?$Queue@PEAUFileToPush@FileListTransfer@RakNet@@@DataStructures@@QEBAAEAPEAUFileToPush@FileListTransfer@RakNet@@I@Z @1788
??A?$Queue@PEAUPacket@RakNet@@@DataStructures@@QEBAAEAPEAUPacket@RakNet@@I@Z @1789
??A?$Queue@PEAURequest@HTTPConnection2@RakNet@@@DataStructures@@QEBAAEAPEAURequest@HTTPConnection2@RakNet@@I@Z @1790
??A?$Queue@PEAURequestedConnectionStruct@RakPeer@RakNet@@@DataStructures@@QEBAAEAPEAURequestedConnectionStruct@RakPeer@RakNet@@I@Z @1791
??A?$Queue@PEAUSocketQueryOutput@RakPeer@RakNet@@@DataStructures@@QEBAAEAPEAUSocketQueryOutput@RakPeer@RakNet@@I@Z @1792
??A?$Queue@PEAUSystemAddress@RakNet@@@DataStructures@@QEBAAEAPEAUSystemAddress@RakNet@@I@Z @1793
??A?$Queue@UDatagramHistoryNode@ReliabilityLayer@RakNet@@@DataStructures@@QEBAAEAUDatagramHistoryNode@ReliabilityLayer@RakNet@@I@Z @1794
??A?$Queue@UPendingChallenge@TwoWayAuthentication@RakNet@@@DataStructures@@QEBAAEAUPendingChallenge@TwoWayAuthentication@RakNet@@I@Z @1795
??A?$Queue@UStartForwardingOutputStruct@UDPForwarder@RakNet@@@DataStructures@@QEBAAEAUStartForwardingOutputStruct@UDPForwarder@RakNet@@I@Z @1796
??A?$Queue@USystemAddress@RakNet@@@DataStructures@@QEBAAEAUSystemAddress@RakNet@@I@Z @1797
??A?$Queue@UThreadData@FileListTransfer@RakNet@@@DataStructures@@QEBAAEAUThreadData@FileListTransfer@RakNet@@I@Z @1798
??A?$Queue@UTimeAndValue@StatisticsHistory@RakNet@@@DataStructures@@QEBAAEAUTimeAndValue@StatisticsHistory@RakNet@@I@Z @1799
??A?$Queue@_N@DataStructures@@QEBAAEA_NI@Z @1800
??ARakString@RakNet@@QEBAEI@Z @1801
??BRakString@RakNet@@QEBAPEBDXZ @1802
??BRakWString@RakNet@@QEBAPEA_WXZ @1803
??Buint24_t@RakNet@@QEAAIXZ @1804
??Buint24_t@RakNet@@QEBAIXZ @1805
??Duint24_t@RakNet@@QEBA?BU01@AEBI@Z @1806
??Duint24_t@RakNet@@QEBA?BU01@AEBU01@@Z @1807
??E?$CircularLinkedList@PEAUHuffmanEncodingTreeNode@@@DataStructures@@QEAAAEAV01@H@Z @1808
??E?$CircularLinkedList@PEAUHuffmanEncodingTreeNode@@@DataStructures@@QEAAAEAV01@XZ @1809
??E?$LinkedList@PEAUHuffmanEncodingTreeNode@@@DataStructures@@QEAAAEAV01@XZ @1810
??Euint24_t@RakNet@@QEAA?AU01@H@Z @1811
??Euint24_t@RakNet@@QEAA?AU01@XZ @1812
??F?$CircularLinkedList@PEAUHuffmanEncodingTreeNode@@@DataStructures@@QEAAAEAV01@H@Z @1813
??F?$CircularLinkedList@PEAUHuffmanEncodingTreeNode@@@DataStructures@@QEAAAEAV01@XZ @1814
??Fuint24_t@RakNet@@QEAA?AU01@H@Z @1815
??Fuint24_t@RakNet@@QEAA?AU01@XZ @1816
??Guint24_t@RakNet@@QEBA?BU01@AEBI@Z @1817
??Guint24_t@RakNet@@QEBA?BU01@AEBU01@@Z @1818
??H@YA?BVRakString@RakNet@@AEBV01@0@Z @1819
??Huint24_t@RakNet@@QEBA?BU01@AEBI@Z @1820
??Huint24_t@RakNet@@QEBA?BU01@AEBU01@@Z @1821
??Iuint24_t@RakNet@@QEAA?AU01@AEBI@Z @1822
??Iuint24_t@RakNet@@QEAA?AU01@AEBU01@@Z @1823
??Kuint24_t@RakNet@@QEBA?BU01@AEBI@Z @1824
??Kuint24_t@RakNet@@QEBA?BU01@AEBU01@@Z @1825
??MRakNetGUID@RakNet@@QEBA_NAEBU01@@Z @1826
??MRakString@RakNet@@QEBA_NAEBV01@@Z @1827
??MRakWString@RakNet@@QEBA_NAEBV01@@Z @1828
??MSystemAddress@RakNet@@QEBA_NAEBU01@@Z @1829
??Muint24_t@RakNet@@QEBA_NAEBI@Z @1830
??Muint24_t@RakNet@@QEBA_NAEBU01@@Z @1831
??NRakString@RakNet@@QEBA_NAEBV01@@Z @1832
??NRakWString@RakNet@@QEBA_NAEBV01@@Z @1833
??ORakNetGUID@RakNet@@QEBA_NAEBU01@@Z @1834
??ORakString@RakNet@@QEBA_NAEBV01@@Z @1835
??ORakWString@RakNet@@QEBA_NAEBV01@@Z @1836
??OSystemAddress@RakNet@@QEBA_NAEBU01@@Z @1837
??Ouint24_t@RakNet@@QEBA_NAEBI@Z @1838
??Ouint24_t@RakNet@@QEBA_NAEBU01@@Z @1839
??PRakString@RakNet@@QEBA_NAEBV01@@Z @1840
??PRakWString@RakNet@@QEBA_NAEBV01@@Z @1841
??YRakNetStatistics@RakNet@@QEAAAEAU01@AEBU01@@Z @1842
??YRakString@RakNet@@QEAAAEAV01@AEBV01@@Z @1843
??YRakString@RakNet@@QEAAAEAV01@D@Z @1844
??YRakString@RakNet@@QEAAAEAV01@PEAD@Z @1845
??YRakString@RakNet@@QEAAAEAV01@PEAE@Z @1846
??YRakString@RakNet@@QEAAAEAV01@PEBD@Z @1847
??YRakString@RakNet@@QEAAAEAV01@PEBE@Z @1848
??YRakWString@RakNet@@QEAAAEAV01@AEBV01@@Z @1849
??YRakWString@RakNet@@QEAAAEAV01@PEA_W@Z @1850
??YRakWString@RakNet@@QEAAAEAV01@QEB_W@Z @1851
??Yuint24_t@RakNet@@QEAAAEAU01@AEBI@Z @1852
??Yuint24_t@RakNet@@QEAAAEAU01@AEBU01@@Z @1853
??Zuint24_t@RakNet@@QEAAAEAU01@AEBI@Z @1854
??Zuint24_t@RakNet@@QEAAAEAU01@AEBU01@@Z @1855
??_7CloudAllocator@RakNet@@6B@ @1856
??_7CloudClient@RakNet@@6B@ @1857
??_7CloudClientCallback@RakNet@@6B@ @1858
??_7CloudServer@RakNet@@6BCloudAllocator@1@@ @1859
??_7CloudServer@RakNet@@6BPluginInterface2@1@@ @1860
??_7CloudServerQueryFilter@RakNet@@6B@ @1861
??_7CommandParserInterface@RakNet@@6B@ @1862
??_7ConnectionGraph2@RakNet@@6B@ @1863
??_7Connection_RM3@RakNet@@6B@ @1864
??_7DirectoryDeltaTransfer@RakNet@@6B@ @1865
??_7FLP_Printf@RakNet@@6B@ @1866
??_7FileListProgress@RakNet@@6B@ @1867
??_7FileListTransfer@RakNet@@6B@ @1868
??_7FullyConnectedMesh2@RakNet@@6B@ @1869
??_7HTTPConnection2@RakNet@@6B@ @1870
??_7HTTPConnection@RakNet@@6B@ @1871
??_7IRNS2_Berkley@RakNet@@6B@ @1872
??_7IncrementalReadInterface@RakNet@@6B@ @1873
??_7LogCommandParser@RakNet@@6B@ @1874
??_7MessageFilter@RakNet@@6B@ @1875
??_7NatPunchthroughClient@RakNet@@6B@ @1876
??_7NatPunchthroughDebugInterface@RakNet@@6B@ @1877
??_7NatPunchthroughDebugInterface_PacketLogger@RakNet@@6B@ @1878
??_7NatPunchthroughDebugInterface_Printf@RakNet@@6B@ @1879
??_7NatPunchthroughServer@RakNet@@6B@ @1880
??_7NatPunchthroughServerDebugInterface@RakNet@@6B@ @1881
??_7NatPunchthroughServerDebugInterface_PacketLogger@RakNet@@6B@ @1882
??_7NatPunchthroughServerDebugInterface_Printf@RakNet@@6B@ @1883
??_7NatTypeDetectionClient@RakNet@@6BPluginInterface2@1@@ @1884
??_7NatTypeDetectionClient@RakNet@@6BRNS2EventHandler@1@@ @1885
??_7NatTypeDetectionServer@RakNet@@6BPluginInterface2@1@@ @1886
??_7NatTypeDetectionServer@RakNet@@6BRNS2EventHandler@1@@ @1887
??_7NetworkIDManager@RakNet@@6B@ @1888
??_7NetworkIDObject@RakNet@@6B@ @1889
??_7PacketConsoleLogger@RakNet@@6B@ @1890
??_7PacketFileLogger@RakNet@@6B@ @1891
??_7PacketLogger@RakNet@@6B@ @1892
??_7PacketOutputWindowLogger@RakNet@@6B@ @1893
??_7PacketizedTCP@RakNet@@6B@ @1894
??_7PluginInterface2@RakNet@@6B@ @1895
??_7RNS2EventHandler@RakNet@@6B@ @1896
??_7RNS2_Berkley@RakNet@@6B@ @1897
??_7RNS2_Windows@RakNet@@6B@ @1898
??_7RPC4@RakNet@@6B@ @1899
??_7Rackspace2EventCallback@RakNet@@6B@ @1900
??_7RackspaceEventCallback_Default@RakNet@@6B@ @1901
??_7RakNetCommandParser@RakNet@@6B@ @1902
??_7RakNetRandomSync@RakNet@@6B@ @1903
??_7RakNetSocket2@RakNet@@6B@ @1904
??_7RakNetTransport2@RakNet@@6BPluginInterface2@1@@ @1905
??_7RakNetTransport2@RakNet@@6BTransportInterface@1@@ @1906
??_7RakPeer@RakNet@@6BRNS2EventHandler@1@@ @1907
??_7RakPeer@RakNet@@6BRakPeerInterface@1@@ @1908
??_7RakPeerInterface@RakNet@@6B@ @1909
??_7RakVoice@RakNet@@6B@ @1910
??_7RelayPlugin@RakNet@@6B@ @1911
??_7Replica3@RakNet@@6B@ @1912
??_7ReplicaManager3@RakNet@@6B@ @1913
??_7Router2@RakNet@@6B@ @1914
??_7SocketLayerOverride@RakNet@@6B@ @1915
??_7StatisticsHistory@RakNet@@6B@ @1916
??_7StatisticsHistoryPlugin@RakNet@@6B@ @1917
??_7TCPInterface@RakNet@@6B@ @1918
??_7TM_Team@RakNet@@6B@ @1919
??_7TM_TeamMember@RakNet@@6B@ @1920
??_7TeamBalancer@RakNet@@6B@ @1921
??_7TeamManager@RakNet@@6B@ @1922
??_7TelnetTransport@RakNet@@6B@ @1923
??_7ThreadsafePacketLogger@RakNet@@6B@ @1924
??_7TransportInterface@RakNet@@6B@ @1925
??_7TwoWayAuthentication@RakNet@@6B@ @1926
??_7UDPForwarder@RakNet@@6B@ @1927
??_7UDPProxyClient@RakNet@@6B@ @1928
??_7UDPProxyCoordinator@RakNet@@6B@ @1929
??_7UDPProxyServer@RakNet@@6B@ @1930
?Add@?$CircularLinkedList@PEAUHuffmanEncodingTreeNode@@@DataStructures@@QEAAAEAPEAUHuffmanEncodingTreeNode@@AEBQEAU3@@Z @1931
?AddBitsAndReallocate@BitStream@RakNet@@QEAAXI@Z @1932
?AddCallback@FileList@RakNet@@QEAAXPEAVFileListProgress@2@@Z @1933
?AddCallback@FileListTransfer@RakNet@@QEAAXPEAVFileListProgress@2@@Z @1934
?AddChannel@LogCommandParser@RakNet@@QEAAXPEBD@Z @1935
?AddColumn@Table@DataStructures@@QEAAIQEBDW4ColumnType@12@@Z @1936
?AddCommandParser@ConsoleServer@RakNet@@QEAAXPEAVCommandParserInterface@2@@Z @1937
?AddEventCallback@Rackspace@RakNet@@QEAAXPEAVRackspace2EventCallback@2@@Z @1938
?AddFile@FileList@RakNet@@QEAAXPEBD00IIUFileListNodeContext@@_N2@Z @1939
?AddFile@FileList@RakNet@@QEAAXPEBD0UFileListNodeContext@@@Z @1940
?AddFilesFromDirectory@FileList@RakNet@@QEAAXPEBD0_N11UFileListNodeContext@@@Z @1941
?AddInput@?$ThreadPool@UThreadData@FileListTransfer@RakNet@@H@@QEAAXP6AHUThreadData@FileListTransfer@RakNet@@PEA_NPEAX@Z0@Z @1942
?AddObject@StatisticsHistory@RakNet@@QEAA_NUTrackedObjectData@12@@Z @1943
?AddOperation@Rackspace@RakNet@@QEAAXW4RackspaceOperationType@2@VRakString@2@11@Z @1944
?AddPacketToProducer@RakPeer@RakNet@@IEAAXPEAUPacket@2@@Z @1945
?AddParticipant@ConnectionGraph2@RakNet@@QEAAXAEBUSystemAddress@2@URakNetGUID@2@@Z @1946
?AddParticipant@FullyConnectedMesh2@RakNet@@QEAAXURakNetGUID@2@@Z @1947
?AddParticipantInternal@FullyConnectedMesh2@RakNet@@IEAA_NURakNetGUID@2@_J@Z @1948
?AddParticipantOnServer@RelayPlugin@RakNet@@QEAA?AW4RelayPluginEnums@2@AEBVRakString@2@AEBURakNetGUID@2@@Z @1949
?AddParticipantRequestFromClient@RelayPlugin@RakNet@@QEAAXAEBVRakString@2@AEBURakNetGUID@2@@Z @1950
?AddPassword@TwoWayAuthentication@RakNet@@QEAA_NVRakString@2@0@Z @1951
?AddQueryFilter@CloudServer@RakNet@@QEAAXPEAVCloudServerQueryFilter@2@@Z @1952
?AddRef@ReferenceCounter@RakNet@@QEAAXXZ @1953
?AddReference@StringCompressor@RakNet@@SAXXZ @1954
?AddReference@StringTable@RakNet@@SAXXZ @1955
?AddRemoteSystemVariableHistory@VariableDeltaSerializer@RakNet@@QEAAXURakNetGUID@2@@Z @1956
?AddRow@Table@DataStructures@@QEAAPEAURow@12@I@Z @1957
?AddRow@Table@DataStructures@@QEAAPEAURow@12@IAEAV?$List@PEAUCell@Table@DataStructures@@@2@_N@Z @1958
?AddRow@Table@DataStructures@@QEAAPEAURow@12@IAEAV?$List@UCell@Table@DataStructures@@@2@@Z @1959
?AddRowColumns@Table@DataStructures@@IEAAPEAURow@12@IPEAU312@V?$List@I@2@@Z @1960
?AddServer@CloudServer@RakNet@@QEAAXURakNetGUID@2@@Z @1961
?AddSlash@@YAXPEAD@Z @1962
?AddString@StringTable@RakNet@@QEAAXPEBD_N@Z @1963
?AddTeamMember@TeamBalancer@RakNet@@IEAAIAEBUTeamMember@12@@Z @1964
?AddToActiveSystemList@RakPeer@RakNet@@IEAAXI@Z @1965
?AddToBanList@RakPeer@RakNet@@UEAAXPEBDI@Z @1966
?AddToConnectionList@PacketizedTCP@RakNet@@IEAAXAEBUSystemAddress@2@@Z @1967
?AddToLog@PacketLogger@RakNet@@MEAAXPEBD@Z @1968
?AddToLog@ThreadsafePacketLogger@RakNet@@MEAAXPEBD@Z @1969
?AddToRequestedTeams@TM_TeamMember@RakNet@@IEAAXPEAVTM_Team@2@0@Z @1970
?AddToRequestedTeams@TM_TeamMember@RakNet@@IEAAXPEAVTM_Team@2@@Z @1971
?AddToSecurityExceptionList@RakPeer@RakNet@@UEAAXPEBD@Z @1972
?AddToTeamList@TM_TeamMember@RakNet@@IEAAXPEAVTM_Team@2@@Z @1973
?AddUploadsFromSubdirectory@DirectoryDeltaTransfer@RakNet@@QEAAXPEBD@Z @1974
?AddValueByIndex@StatisticsHistory@RakNet@@QEAAXIVRakString@2@N_K_N@Z @1975
?AddValueByObjectID@StatisticsHistory@RakNet@@QEAA_N_KVRakString@2@N0_N@Z @1976
?AddWorld@ReplicaManager3@RakNet@@QEAAXE@Z @1977
?AddWorld@TeamManager@RakNet@@QEAAPEAVTM_World@2@E@Z @1978
?AdvertiseSystem@RakPeer@RakNet@@UEAA_NPEBDG0HI@Z @1979
?AlignReadToByteBoundary@BitStream@RakNet@@QEAAXXZ @1980
?AlignWriteToByteBoundary@BitStream@RakNet@@QEAAXXZ @1981
?AllocChangedVariablesList@VariableDeltaSerializer@RakNet@@IEAAPEAUChangedVariablesList@12@XZ @1982
?AllocPacket@RakPeer@RakNet@@IEAAPEAUPacket@2@IPEAEPEBDI@Z @1983
?AllocPacket@RakPeer@RakNet@@IEAAPEAUPacket@2@IPEBDI@Z @1984
?AllocRNS2RecvStruct@NatTypeDetectionClient@RakNet@@UEAAPEAURNS2RecvStruct@2@PEBDI@Z @1985
?AllocRNS2RecvStruct@NatTypeDetectionServer@RakNet@@UEAAPEAURNS2RecvStruct@2@PEBDI@Z @1986
?AllocRNS2RecvStruct@RakPeer@RakNet@@MEAAPEAURNS2RecvStruct@2@PEBDI@Z @1987
?Allocate@?$MemoryPool@$$BY0CAA@E@DataStructures@@QEAAPEAY0CAA@EPEBDI@Z @1988
?Allocate@?$MemoryPool@$$BY0CAAA@E@DataStructures@@QEAAPEAY0CAAA@EPEBDI@Z @1989
?Allocate@?$MemoryPool@$$BY0IA@E@DataStructures@@QEAAPEAY0IA@EPEBDI@Z @1990
?Allocate@?$MemoryPool@$$BY0IAA@E@DataStructures@@QEAAPEAY0IAA@EPEBDI@Z @1991
?Allocate@?$MemoryPool@U?$Page@IPEAURow@Table@DataStructures@@$0BA@@DataStructures@@@DataStructures@@QEAAPEAU?$Page@IPEAURow@Table@DataStructures@@$0BA@@2@PEBDI@Z @1992
?Allocate@?$MemoryPool@UBufferedCommandStruct@RakPeer@RakNet@@@DataStructures@@QEAAPEAUBufferedCommandStruct@RakPeer@RakNet@@PEBDI@Z @1993
?Allocate@?$MemoryPool@UChangedVariablesList@VariableDeltaSerializer@RakNet@@@DataStructures@@QEAAPEAUChangedVariablesList@VariableDeltaSerializer@RakNet@@PEBDI@Z @1994
?Allocate@?$MemoryPool@UInternalPacket@RakNet@@@DataStructures@@QEAAPEAUInternalPacket@RakNet@@PEBDI@Z @1995
?Allocate@?$MemoryPool@UInternalPacketRefCountedData@RakNet@@@DataStructures@@QEAAPEAUInternalPacketRefCountedData@RakNet@@PEBDI@Z @1996
?Allocate@?$MemoryPool@UMessageNumberNode@ReliabilityLayer@RakNet@@@DataStructures@@QEAAPEAUMessageNumberNode@ReliabilityLayer@RakNet@@PEBDI@Z @1997
?Allocate@?$MemoryPool@UPacket@RakNet@@@DataStructures@@QEAAPEAUPacket@RakNet@@PEBDI@Z @1998
?Allocate@?$MemoryPool@URemoteSystemIndex@RakNet@@@DataStructures@@QEAAPEAURemoteSystemIndex@RakNet@@PEBDI@Z @1999
?Allocate@?$MemoryPool@USocketQueryOutput@RakPeer@RakNet@@@DataStructures@@QEAAPEAUSocketQueryOutput@RakPeer@RakNet@@PEBDI@Z @2000
?Allocate@?$MemoryPool@UStartForwardingInputStruct@UDPForwarder@RakNet@@@DataStructures@@QEAAPEAUStartForwardingInputStruct@UDPForwarder@RakNet@@PEBDI@Z @2001
?Allocate@?$MemoryPool@UStopForwardingStruct@UDPForwarder@RakNet@@@DataStructures@@QEAAPEAUStopForwardingStruct@UDPForwarder@RakNet@@PEBDI@Z @2002
?Allocate@?$MemoryPool@USystemAddress@RakNet@@@DataStructures@@QEAAPEAUSystemAddress@RakNet@@PEBDI@Z @2003
?Allocate@?$ThreadsafeAllocatingQueue@UBufferedCommandStruct@RakPeer@RakNet@@@DataStructures@@QEAAPEAUBufferedCommandStruct@RakPeer@RakNet@@PEBDI@Z @2004
?Allocate@?$ThreadsafeAllocatingQueue@UPacket@RakNet@@@DataStructures@@QEAAPEAUPacket@RakNet@@PEBDI@Z @2005
?Allocate@?$ThreadsafeAllocatingQueue@USocketQueryOutput@RakPeer@RakNet@@@DataStructures@@QEAAPEAUSocketQueryOutput@RakPeer@RakNet@@PEBDI@Z @2006
?Allocate@?$ThreadsafeAllocatingQueue@UStartForwardingInputStruct@UDPForwarder@RakNet@@@DataStructures@@QEAAPEAUStartForwardingInputStruct@UDPForwarder@RakNet@@PEBDI@Z @2007
?Allocate@?$ThreadsafeAllocatingQueue@UStopForwardingStruct@UDPForwarder@RakNet@@@DataStructures@@QEAAPEAUStopForwardingStruct@UDPForwarder@RakNet@@PEBDI@Z @2008
?Allocate@?$ThreadsafeAllocatingQueue@USystemAddress@RakNet@@@DataStructures@@QEAAPEAUSystemAddress@RakNet@@PEBDI@Z @2009
?Allocate@BytePool@DataStructures@@QEAAPEAEHPEBDI@Z @2010
?Allocate@RakString@RakNet@@IEAAX_K@Z @2011
?AllocateCloudQueryRow@CloudAllocator@RakNet@@UEAAPEAUCloudQueryRow@2@XZ @2012
?AllocatePacket@RakPeer@RakNet@@UEAAPEAUPacket@2@I@Z @2013
?AllocatePacket@TCPInterface@RakNet@@QEAAPEAUPacket@2@I@Z @2014
?AllocatePacketUnified@PluginInterface2@RakNet@@IEAAPEAUPacket@2@I@Z @2015
?AllocateRowData@CloudAllocator@RakNet@@UEAAPEAEI@Z @2016
?AllocationSize@?$Queue@_N@DataStructures@@QEBAIXZ @2017
?AllowConnectionResponseIPMigration@RakPeer@RakNet@@UEAAX_N@Z @2018
?AllowIncomingConnections@RakPeer@RakNet@@IEBA_NXZ @2019
?AppendBytes@RakString@RakNet@@QEAAXPEBDI@Z @2020
?ApplyNetworkSimulator@RakPeer@RakNet@@UEAAXMGG@Z @2021
?AssertCopyData@BitStream@RakNet@@QEAAXXZ @2022
?AssertStreamEmpty@BitStream@RakNet@@QEAAXXZ @2023
?Assign@RakString@RakNet@@IEAAXPEBD@Z @2024
?Assign@RakString@RakNet@@IEAAXPEBDPEAD@Z @2025
?Assign@RakString@RakNet@@QEAA?AV12@PEBD_K1@Z @2026
?AssignOurFCMGuid@FullyConnectedMesh2@RakNet@@IEAAXXZ @2027
?AssignSystemAddressToRemoteSystemList@RakPeer@RakNet@@IEAAPEAURemoteSystemStruct@12@USystemAddress@2@W4ConnectMode@312@PEAVRakNetSocket2@2@PEA_NU42@HURakNetGUID@2@_N@Z @2028
?AttachPlugin@RakPeer@RakNet@@UEAAXPEAVPluginInterface2@2@@Z @2029
?AttachPlugin@TCPInterface@RakNet@@QEAAXPEAVPluginInterface2@2@@Z @2030
?Authenticate@Rackspace@RakNet@@QEAA?AUSystemAddress@2@PEAVTCPInterface@2@PEBD11@Z @2031
?AutoAllocate@TelnetTransport@RakNet@@IEAAXXZ @2032
?AutoConstructByQuery@Connection_RM3@RakNet@@QEAAXPEAVReplicaManager3@2@E@Z @2033
?AutoCreateConnectionList@ReplicaManager3@RakNet@@QEAAXAEAV?$List@URakNetGUID@RakNet@@@DataStructures@@AEAV?$List@PEAVConnection_RM3@RakNet@@@4@E@Z @2034
?BaseIDTOString@PacketLogger@RakNet@@SAPEBDE@Z @2035
?BeginDeserialize@VariableDeltaSerializer@RakNet@@QEAAXPEAUDeserializationContext@12@PEAVBitStream@2@@Z @2036
?BeginIdenticalSerialize@VariableDeltaSerializer@RakNet@@QEAAXPEAUSerializationContext@12@_NPEAVBitStream@2@@Z @2037
?BeginUniqueSerialize@VariableDeltaSerializer@RakNet@@QEAAXPEAUSerializationContext@12@URakNetGUID@2@PEAVBitStream@2@@Z @2038
?BeginUnreliableAckedSerialize@VariableDeltaSerializer@RakNet@@QEAAXPEAUSerializationContext@12@URakNetGUID@2@PEAVBitStream@2@I@Z @2039
?Beginning@?$CircularLinkedList@PEAUHuffmanEncodingTreeNode@@@DataStructures@@QEAAXXZ @2040
?Bind@RNS2_Windows@RakNet@@UEAA?AW4RNS2BindResult@2@PEAURNS2_BerkleyBindParameters@2@PEBDI@Z @2041
?BindShared@RNS2_Berkley@RakNet@@IEAA?AW4RNS2BindResult@2@PEAURNS2_BerkleyBindParameters@2@PEBDI@Z @2042
?BindSharedIPV4@RNS2_Berkley@RakNet@@IEAA?AW4RNS2BindResult@2@PEAURNS2_BerkleyBindParameters@2@PEBDI@Z @2043
?BindSharedIPV4And6@RNS2_Berkley@RakNet@@IEAA?AW4RNS2BindResult@2@PEAURNS2_BerkleyBindParameters@2@PEBDI@Z @2044
?BlockOnStopRecvPollingThread@RNS2_Berkley@RakNet@@QEAAXXZ @2045
?BlocksPerPage@?$MemoryPool@$$BY0CAA@E@DataStructures@@IEBAHXZ @2046
?BlocksPerPage@?$MemoryPool@$$BY0CAAA@E@DataStructures@@IEBAHXZ @2047
?BlocksPerPage@?$MemoryPool@$$BY0IA@E@DataStructures@@IEBAHXZ @2048
?BlocksPerPage@?$MemoryPool@$$BY0IAA@E@DataStructures@@IEBAHXZ @2049
?BlocksPerPage@?$MemoryPool@PEAURemoteClient@RakNet@@@DataStructures@@IEBAHXZ @2050
?BlocksPerPage@?$MemoryPool@U?$Page@IPEAURow@Table@DataStructures@@$0BA@@DataStructures@@@DataStructures@@IEBAHXZ @2051
?BlocksPerPage@?$MemoryPool@UBufferedCommandStruct@RakPeer@RakNet@@@DataStructures@@IEBAHXZ @2052
?BlocksPerPage@?$MemoryPool@UChangedVariablesList@VariableDeltaSerializer@RakNet@@@DataStructures@@IEBAHXZ @2053
?BlocksPerPage@?$MemoryPool@UInternalPacket@RakNet@@@DataStructures@@IEBAHXZ @2054
?BlocksPerPage@?$MemoryPool@UInternalPacketRefCountedData@RakNet@@@DataStructures@@IEBAHXZ @2055
?BlocksPerPage@?$MemoryPool@UMessageNumberNode@ReliabilityLayer@RakNet@@@DataStructures@@IEBAHXZ @2056
?BlocksPerPage@?$MemoryPool@UPacket@RakNet@@@DataStructures@@IEBAHXZ @2057
?BlocksPerPage@?$MemoryPool@URemoteSystemIndex@RakNet@@@DataStructures@@IEBAHXZ @2058
?BlocksPerPage@?$MemoryPool@USocketQueryOutput@RakPeer@RakNet@@@DataStructures@@IEBAHXZ @2059
?BlocksPerPage@?$MemoryPool@UStartForwardingInputStruct@UDPForwarder@RakNet@@@DataStructures@@IEBAHXZ @2060
?BlocksPerPage@?$MemoryPool@UStopForwardingStruct@UDPForwarder@RakNet@@@DataStructures@@IEBAHXZ @2061
?BlocksPerPage@?$MemoryPool@USystemAddress@RakNet@@@DataStructures@@IEBAHXZ @2062
?BroadcastDestruction@Replica3@RakNet@@UEAAXXZ @2063
?BroadcastDestruction@ReplicaManager3@RakNet@@QEAAXPEAVReplica3@2@AEBUSystemAddress@2@@Z @2064
?BroadcastDestructionList@ReplicaManager3@RakNet@@QEAAXAEAV?$List@PEAVReplica3@RakNet@@@DataStructures@@AEBUSystemAddress@2@E@Z @2065
?BufferedGetResponseFromServerComp@CloudServer@RakNet@@KAHAEBURakNetGUID@2@AEBQEAUBufferedGetResponseFromServer@12@@Z @2066
?C_String@RakString@RakNet@@QEBAPEBDXZ @2067
?C_String@RakWString@RakNet@@QEBAPEB_WXZ @2068
?C_StringUnsafe@RakString@RakNet@@QEAAPEADXZ @2069
?CalculateAndPushHost@FullyConnectedMesh2@RakNet@@IEAAXXZ @2070
?CalculateHost@FullyConnectedMesh2@RakNet@@IEAAXPEAURakNetGUID@2@PEA_J@Z @2071
?Call@RPC4@RakNet@@QEAAXPEBDPEAVBitStream@2@W4PacketPriority@@W4PacketReliability@@DUAddressOrGUID@2@_N@Z @2072
?CallBlocking@RPC4@RakNet@@QEAA_NPEBDPEAVBitStream@2@W4PacketPriority@@W4PacketReliability@@DUAddressOrGUID@2@1@Z @2073
?CallLoopback@RPC4@RakNet@@QEAAXPEBDPEAVBitStream@2@@Z @2074
?CallPluginCallbacks@RakPeer@RakNet@@IEAAXAEAV?$List@PEAVPluginInterface2@RakNet@@@DataStructures@@PEAUPacket@2@@Z @2075
?CanConnect@RakNet@@YA_NW4NATTypeDetectionResult@1@0@Z @2076
?CanRotateLeft@?$BPlusTree@IPEAURow@Table@DataStructures@@$0BA@@DataStructures@@IEAA_NPEAU?$Page@IPEAURow@Table@DataStructures@@$0BA@@2@H@Z @2077
?CanRotateRight@?$BPlusTree@IPEAURow@Table@DataStructures@@$0BA@@DataStructures@@IEAA_NPEAU?$Page@IPEAURow@Table@DataStructures@@$0BA@@2@H@Z @2078
?CancelConnectionAttempt@RakPeer@RakNet@@UEAAXUSystemAddress@2@@Z @2079
?CancelReceive@FileListTransfer@RakNet@@QEAAXG@Z @2080
?CancelRequestSpecificTeam@TeamBalancer@RakNet@@QEAAX_K@Z @2081
?CancelTeamRequest@TM_TeamMember@RakNet@@QEAA_NPEAVTM_Team@2@@Z @2082
?CategorizeVJIP@FullyConnectedMesh2@RakNet@@IEAAXPEAUVerifiedJoinInProgress@12@AEAV?$List@URakNetGUID@RakNet@@@DataStructures@@1111@Z @2083
?Challenge@TwoWayAuthentication@RakNet@@QEAA_NVRakString@2@UAddressOrGUID@2@@Z @2084
?ChangeSystemAddress@RakPeer@RakNet@@UEAAXURakNetGUID@2@AEBUSystemAddress@2@@Z @2085
?Clear@?$BPlusTree@IPEAURow@Table@DataStructures@@$0BA@@DataStructures@@QEAAXXZ @2086
?Clear@?$CircularLinkedList@PEAUHuffmanEncodingTreeNode@@@DataStructures@@QEAAXXZ @2087
?Clear@?$Hash@UAddressOrGUID@RakNet@@UFilteredSystem@2@$0IAA@$1?ToInteger@12@SAKAEBU12@@Z@DataStructures@@QEAAXPEBDI@Z @2088
?Clear@?$Hash@URakNetGUID@RakNet@@PEAURemoteCloudClient@CloudServer@2@$0IAA@$1?ToUint32@12@SAKAEBU12@@Z@DataStructures@@QEAAXPEBDI@Z @2089
?Clear@?$Hash@URakNetGUID@RakNet@@PEAUStrAndGuidAndRoom@RelayPlugin@2@$0BPKA@$1?ToUint32@12@SAKAEBU12@@Z@DataStructures@@QEAAXPEBDI@Z @2090
?Clear@?$Hash@USystemAddress@RakNet@@UClientState@@$0BAA@$1?SystemAddressHash@@YAKAEBU12@@Z@DataStructures@@QEAAXPEBDI@Z @2091
?Clear@?$Hash@VRakString@RakNet@@P6AXPEAVBitStream@2@0PEAUPacket@2@@Z$0EA@$1?ToInteger@12@SAKAEBV12@@Z@DataStructures@@QEAAXPEBDI@Z @2092
?Clear@?$Hash@VRakString@RakNet@@P6AXPEAVBitStream@2@PEAUPacket@2@@Z$0EA@$1?ToInteger@12@SAKAEBV12@@Z@DataStructures@@QEAAXPEBDI@Z @2093
?Clear@?$Hash@VRakString@RakNet@@PEAULocalSlot@RPC4@2@$0BAA@$1?ToInteger@12@SAKAEBV12@@Z@DataStructures@@QEAAXPEBDI@Z @2094
?Clear@?$Hash@VRakString@RakNet@@PEAUStrAndGuidAndRoom@RelayPlugin@2@$0BPKA@$1?ToInteger@12@SAKAEBV12@@Z@DataStructures@@QEAAXPEBDI@Z @2095
?Clear@?$Hash@VRakString@RakNet@@PEAUTimeAndValueQueue@StatisticsHistory@2@$0CA@$1?ToInteger@12@SAKAEBV12@@Z@DataStructures@@QEAAXPEBDI@Z @2096
?Clear@?$Hash@VRakString@RakNet@@V12@$0BA@$1?ToInteger@12@SAKAEBV12@@Z@DataStructures@@QEAAXPEBDI@Z @2097
?Clear@?$Hash@_KPEAVTM_Team@RakNet@@$0BAA@$1?ToUint32@12@SAKAEB_K@Z@DataStructures@@QEAAXPEBDI@Z @2098
?Clear@?$Hash@_KPEAVTM_TeamMember@RakNet@@$0BAA@$1?ToUint32@12@SAKAEB_K@Z@DataStructures@@QEAAXPEBDI@Z @2099
?Clear@?$Heap@_KPEAUInternalPacket@RakNet@@$0A@@DataStructures@@QEAAX_NPEBDI@Z @2100
?Clear@?$List@E@DataStructures@@QEAAX_NPEBDI@Z @2101
?Clear@?$List@G@DataStructures@@QEAAX_NPEBDI@Z @2102
?Clear@?$List@I@DataStructures@@QEAAX_NPEBDI@Z @2103
?Clear@?$List@PEAUBanStruct@RakPeer@RakNet@@@DataStructures@@QEAAX_NPEBDI@Z @2104
?Clear@?$List@PEAUBufferedGetResponseFromServer@CloudServer@RakNet@@@DataStructures@@QEAAX_NPEBDI@Z @2105
?Clear@?$List@PEAUCell@Table@DataStructures@@@DataStructures@@QEAAX_NPEBDI@Z @2106
?Clear@?$List@PEAUChangedVariablesList@VariableDeltaSerializer@RakNet@@@DataStructures@@QEAAX_NPEBDI@Z @2107
?Clear@?$List@PEAUCloudData@CloudServer@RakNet@@@DataStructures@@QEAAX_NPEBDI@Z @2108
?Clear@?$List@PEAUCloudDataList@CloudServer@RakNet@@@DataStructures@@QEAAX_NPEBDI@Z @2109
?Clear@?$List@PEAUCloudQueryRow@RakNet@@@DataStructures@@QEAAX_NPEBDI@Z @2110
?Clear@?$List@PEAUConnnectRequest@Router2@RakNet@@@DataStructures@@QEAAX_NPEBDI@Z @2111
?Clear@?$List@PEAUFCM2Participant@FullyConnectedMesh2@RakNet@@@DataStructures@@QEAAX_NPEBDI@Z @2112
?Clear@?$List@PEAUFileToPushRecipient@FileListTransfer@RakNet@@@DataStructures@@QEAAX_NPEBDI@Z @2113
?Clear@?$List@PEAUFilterSet@RakNet@@@DataStructures@@QEAAX_NPEBDI@Z @2114
?Clear@?$List@PEAUForwardEntry@UDPForwarder@RakNet@@@DataStructures@@QEAAX_NPEBDI@Z @2115
?Clear@?$List@PEAUForwardingRequest@UDPProxyCoordinator@RakNet@@@DataStructures@@QEAAX_NPEBDI@Z @2116
?Clear@?$List@PEAUGetRequest@CloudServer@RakNet@@@DataStructures@@QEAAX_NPEBDI@Z @2117
?Clear@?$List@PEAUInternalPacket@RakNet@@@DataStructures@@QEAAX_NPEBDI@Z @2118
?Clear@?$List@PEAUKeySubscriberID@CloudServer@RakNet@@@DataStructures@@QEAAX_NPEBDI@Z @2119
?Clear@?$List@PEAULastSerializationResult@RakNet@@@DataStructures@@QEAAX_NPEBDI@Z @2120
?Clear@?$List@PEAULocalCallback@RPC4@RakNet@@@DataStructures@@QEAAX_NPEBDI@Z @2121
?Clear@?$List@PEAULocalSlot@RPC4@RakNet@@@DataStructures@@QEAAX_NPEBDI@Z @2122
?Clear@?$List@PEAUNonceAndRemoteSystemRequest@TwoWayAuthentication@RakNet@@@DataStructures@@QEAAX_NPEBDI@Z @2123
?Clear@?$List@PEAUPingServerGroup@UDPProxyClient@RakNet@@@DataStructures@@QEAAX_NPEBDI@Z @2124
?Clear@?$List@PEAURM3World@ReplicaManager3@RakNet@@@DataStructures@@QEAAX_NPEBDI@Z @2125
?Clear@?$List@PEAURP_Group@RelayPlugin@RakNet@@@DataStructures@@QEAAX_NPEBDI@Z @2126
?Clear@?$List@PEAUReadyEventNode@ReadyEvent@RakNet@@@DataStructures@@QEAAX_NPEBDI@Z @2127
?Clear@?$List@PEAURemoteCloudClient@CloudServer@RakNet@@@DataStructures@@QEAAX_NPEBDI@Z @2128
?Clear@?$List@PEAURemoteServer@CloudServer@RakNet@@@DataStructures@@QEAAX_NPEBDI@Z @2129
?Clear@?$List@PEAURemoteSystem@ConnectionGraph2@RakNet@@@DataStructures@@QEAAX_NPEBDI@Z @2130
?Clear@?$List@PEAURemoteSystemVariableHistory@VariableDeltaSerializer@RakNet@@@DataStructures@@QEAAX_NPEBDI@Z @2131
?Clear@?$List@PEAURequest@HTTPConnection2@RakNet@@@DataStructures@@QEAAX_NPEBDI@Z @2132
?Clear@?$List@PEAURow@Table@DataStructures@@@DataStructures@@QEAAX_NPEBDI@Z @2133
?Clear@?$List@PEAUSharedString@RakString@RakNet@@@DataStructures@@QEAAX_NPEBDI@Z @2134
?Clear@?$List@PEAUSplitPacketChannel@RakNet@@@DataStructures@@QEAAX_NPEBDI@Z @2135
?Clear@?$List@PEAUStrAndGuidAndRoom@RelayPlugin@RakNet@@@DataStructures@@QEAAX_NPEBDI@Z @2136
?Clear@?$List@PEAUTelnetClient@TelnetTransport@RakNet@@@DataStructures@@QEAAX_NPEBDI@Z @2137
?Clear@?$List@PEAUTimeAndValueQueue@StatisticsHistory@RakNet@@@DataStructures@@QEAAX_NPEBDI@Z @2138
?Clear@?$List@PEAUTrackedObject@StatisticsHistory@RakNet@@@DataStructures@@QEAAX_NPEBDI@Z @2139
?Clear@?$List@PEAUUser@NatPunchthroughServer@RakNet@@@DataStructures@@QEAAX_NPEBDI@Z @2140
?Clear@?$List@PEAUVerifiedJoinInProgress@FullyConnectedMesh2@RakNet@@@DataStructures@@QEAAX_NPEBDI@Z @2141
?Clear@?$List@PEAUVoiceBuffer@RakNet@@@DataStructures@@QEAAX_NPEBDI@Z @2142
?Clear@?$List@PEAUVoiceChannel@RakNet@@@DataStructures@@QEAAX_NPEBDI@Z @2143
?Clear@?$List@PEAVCloudServerQueryFilter@RakNet@@@DataStructures@@QEAAX_NPEBDI@Z @2144
?Clear@?$List@PEAVCommandParserInterface@RakNet@@@DataStructures@@QEAAX_NPEBDI@Z @2145
?Clear@?$List@PEAVConnection_RM3@RakNet@@@DataStructures@@QEAAX_NPEBDI@Z @2146
?Clear@?$List@PEAVFileListProgress@RakNet@@@DataStructures@@QEAAX_NPEBDI@Z @2147
?Clear@?$List@PEAVPluginInterface2@RakNet@@@DataStructures@@QEAAX_NPEBDI@Z @2148
?Clear@?$List@PEAVRackspace2EventCallback@RakNet@@@DataStructures@@QEAAX_NPEBDI@Z @2149
?Clear@?$List@PEAVRakNetSocket2@RakNet@@@DataStructures@@QEAAX_NPEBDI@Z @2150
?Clear@?$List@PEAVReplica3@RakNet@@@DataStructures@@QEAAX_NPEBDI@Z @2151
?Clear@?$List@PEAVTM_Team@RakNet@@@DataStructures@@QEAAX_NPEBDI@Z @2152
?Clear@?$List@PEAVTM_TeamMember@RakNet@@@DataStructures@@QEAAX_NPEBDI@Z @2153
?Clear@?$List@PEAVTM_World@RakNet@@@DataStructures@@QEAAX_NPEBDI@Z @2154
?Clear@?$List@PEAX@DataStructures@@QEAAX_NPEBDI@Z @2155
?Clear@?$List@U?$RangeNode@Uuint24_t@RakNet@@@DataStructures@@@DataStructures@@QEAAX_NPEBDI@Z @2156
?Clear@?$List@UAddrAndGuid@NatPunchthroughClient@RakNet@@@DataStructures@@QEAAX_NPEBDI@Z @2157
?Clear@?$List@UAddressOrGUID@RakNet@@@DataStructures@@QEAAX_NPEBDI@Z @2158
?Clear@?$List@UClientState@@@DataStructures@@QEAAX_NPEBDI@Z @2159
?Clear@?$List@UCloudKey@RakNet@@@DataStructures@@QEAAX_NPEBDI@Z @2160
?Clear@?$List@UColumnDescriptor@Table@DataStructures@@@DataStructures@@QEAAX_NPEBDI@Z @2161
?Clear@?$List@UConnectionRequestSystem@Router2@RakNet@@@DataStructures@@QEAAX_NPEBDI@Z @2162
?Clear@?$List@UFileListNode@RakNet@@@DataStructures@@QEAAX_NPEBDI@Z @2163
?Clear@?$List@UFilteredSystem@RakNet@@@DataStructures@@QEAAX_NPEBDI@Z @2164
?Clear@?$List@UForwardedConnection@Router2@RakNet@@@DataStructures@@QEAAX_NPEBDI@Z @2165
?Clear@?$List@UHeapNode@?$Heap@_KPEAUInternalPacket@RakNet@@$0A@@DataStructures@@@DataStructures@@QEAAX_NPEBDI@Z @2166
?Clear@?$List@UIndexAndType@VariadicSQLParser@@@DataStructures@@QEAAX_NPEBDI@Z @2167
?Clear@?$List@UJoinRequestHelper@TM_World@RakNet@@@DataStructures@@QEAAX_NPEBDI@Z @2168
?Clear@?$List@ULocalSlotObject@RPC4@RakNet@@@DataStructures@@QEAAX_NPEBDI@Z @2169
?Clear@?$List@UMapNode@?$Map@GPEAUFileListReceiver@RakNet@@$1??$defaultMapKeyComparison@G@DataStructures@@YAHAEBG0@Z@DataStructures@@@DataStructures@@QEAAX_NPEBDI@Z @2170
?Clear@?$List@UMapNode@?$Map@HPEAVHuffmanEncodingTree@RakNet@@$1??$defaultMapKeyComparison@H@DataStructures@@YAHAEBH0@Z@DataStructures@@@DataStructures@@QEAAX_NPEBDI@Z @2171
?Clear@?$List@UMapNode@?$Map@IUFLR_MemoryBlock@RakNet@@$1??$defaultMapKeyComparison@I@DataStructures@@YAHAEBI0@Z@DataStructures@@@DataStructures@@QEAAX_NPEBDI@Z @2172
?Clear@?$List@UMapNode@?$Map@USystemAddress@RakNet@@PEAVByteQueue@DataStructures@@$1??$defaultMapKeyComparison@USystemAddress@RakNet@@@4@YAHAEBU12@0@Z@DataStructures@@@DataStructures@@QEAAX_NPEBDI@Z @2173
?Clear@?$List@UMiniPunchRequest@Router2@RakNet@@@DataStructures@@QEAAX_NPEBDI@Z @2174
?Clear@?$List@UMyTeamMembers@TeamBalancer@RakNet@@@DataStructures@@QEAAX_NPEBDI@Z @2175
?Clear@?$List@UNATDetectionAttempt@NatTypeDetectionServer@RakNet@@@DataStructures@@QEAAX_NPEBDI@Z @2176
?Clear@?$List@URackspaceOperation@Rackspace@RakNet@@@DataStructures@@QEAAX_NPEBDI@Z @2177
?Clear@?$List@URakNetGUID@RakNet@@@DataStructures@@QEAAX_NPEBDI@Z @2178
?Clear@?$List@URakNetStatistics@RakNet@@@DataStructures@@QEAAX_NPEBDI@Z @2179
?Clear@?$List@URegisteredCommand@RakNet@@@DataStructures@@QEAAX_NPEBDI@Z @2180
?Clear@?$List@URemoteSystem@ReadyEvent@RakNet@@@DataStructures@@QEAAX_NPEBDI@Z @2181
?Clear@?$List@URequestedTeam@TM_TeamMember@RakNet@@@DataStructures@@QEAAX_NPEBDI@Z @2182
?Clear@?$List@UServerWithPing@UDPProxyCoordinator@RakNet@@@DataStructures@@QEAAX_NPEBDI@Z @2183
?Clear@?$List@UStrAndBool@@@DataStructures@@QEAAX_NPEBDI@Z @2184
?Clear@?$List@USystemAddress@RakNet@@@DataStructures@@QEAAX_NPEBDI@Z @2185
?Clear@?$List@USystemAddressAndChannel@LogCommandParser@RakNet@@@DataStructures@@QEAAX_NPEBDI@Z @2186
?Clear@?$List@USystemAddressAndGuid@ConnectionGraph2@RakNet@@@DataStructures@@QEAAX_NPEBDI@Z @2187
?Clear@?$List@UTeamMember@TeamBalancer@RakNet@@@DataStructures@@QEAAX_NPEBDI@Z @2188
?Clear@?$List@UUnreliableWithAckReceiptNode@ReliabilityLayer@RakNet@@@DataStructures@@QEAAX_NPEBDI@Z @2189
?Clear@?$List@VRakString@RakNet@@@DataStructures@@QEAAX_NPEBDI@Z @2190
?Clear@?$List@_K@DataStructures@@QEAAX_NPEBDI@Z @2191
?Clear@?$List@_N@DataStructures@@QEAAX_NPEBDI@Z @2192
?Clear@?$Map@GPEAUFileListReceiver@RakNet@@$1??$defaultMapKeyComparison@G@DataStructures@@YAHAEBG0@Z@DataStructures@@QEAAXXZ @2193
?Clear@?$Map@HPEAVHuffmanEncodingTree@RakNet@@$1??$defaultMapKeyComparison@H@DataStructures@@YAHAEBH0@Z@DataStructures@@QEAAXXZ @2194
?Clear@?$Map@IUFLR_MemoryBlock@RakNet@@$1??$defaultMapKeyComparison@I@DataStructures@@YAHAEBI0@Z@DataStructures@@QEAAXXZ @2195
?Clear@?$Map@USystemAddress@RakNet@@PEAVByteQueue@DataStructures@@$1??$defaultMapKeyComparison@USystemAddress@RakNet@@@4@YAHAEBU12@0@Z@DataStructures@@QEAAXXZ @2196
?Clear@?$MemoryPool@$$BY0CAA@E@DataStructures@@QEAAXPEBDI@Z @2197
?Clear@?$MemoryPool@$$BY0CAAA@E@DataStructures@@QEAAXPEBDI@Z @2198
?Clear@?$MemoryPool@$$BY0IA@E@DataStructures@@QEAAXPEBDI@Z @2199
?Clear@?$MemoryPool@$$BY0IAA@E@DataStructures@@QEAAXPEBDI@Z @2200
?Clear@?$MemoryPool@PEAURemoteClient@RakNet@@@DataStructures@@QEAAXPEBDI@Z @2201
?Clear@?$MemoryPool@U?$Page@IPEAURow@Table@DataStructures@@$0BA@@DataStructures@@@DataStructures@@QEAAXPEBDI@Z @2202
?Clear@?$MemoryPool@UBufferedCommandStruct@RakPeer@RakNet@@@DataStructures@@QEAAXPEBDI@Z @2203
?Clear@?$MemoryPool@UChangedVariablesList@VariableDeltaSerializer@RakNet@@@DataStructures@@QEAAXPEBDI@Z @2204
?Clear@?$MemoryPool@UInternalPacket@RakNet@@@DataStructures@@QEAAXPEBDI@Z @2205
?Clear@?$MemoryPool@UInternalPacketRefCountedData@RakNet@@@DataStructures@@QEAAXPEBDI@Z @2206
?Clear@?$MemoryPool@UMessageNumberNode@ReliabilityLayer@RakNet@@@DataStructures@@QEAAXPEBDI@Z @2207
?Clear@?$MemoryPool@UPacket@RakNet@@@DataStructures@@QEAAXPEBDI@Z @2208
?Clear@?$MemoryPool@URemoteSystemIndex@RakNet@@@DataStructures@@QEAAXPEBDI@Z @2209
?Clear@?$MemoryPool@USocketQueryOutput@RakPeer@RakNet@@@DataStructures@@QEAAXPEBDI@Z @2210
?Clear@?$MemoryPool@UStartForwardingInputStruct@UDPForwarder@RakNet@@@DataStructures@@QEAAXPEBDI@Z @2211
?Clear@?$MemoryPool@UStopForwardingStruct@UDPForwarder@RakNet@@@DataStructures@@QEAAXPEBDI@Z @2212
?Clear@?$MemoryPool@USystemAddress@RakNet@@@DataStructures@@QEAAXPEBDI@Z @2213
?Clear@?$OrderedList@EPEAULocalCallback@RPC4@RakNet@@$1?LocalCallbackComp@23@SAHAEBEAEBQEAU123@@Z@DataStructures@@QEAAX_NPEBDI@Z @2214
?Clear@?$OrderedList@GPEAUSplitPacketChannel@RakNet@@$1?SplitPacketChannelComp@2@YAHAEBGAEBQEAU12@@Z@DataStructures@@QEAAX_NPEBDI@Z @2215
?Clear@?$OrderedList@GUMapNode@?$Map@GPEAUFileListReceiver@RakNet@@$1??$defaultMapKeyComparison@G@DataStructures@@YAHAEBG0@Z@DataStructures@@$1?NodeComparisonFunc@23@SAHAEBGAEBU123@@Z@DataStructures@@QEAAX_NPEBDI@Z @2216
?Clear@?$OrderedList@GUServerWithPing@UDPProxyCoordinator@RakNet@@$1?ServerWithPingComp@23@KAHAEBGAEBU123@@Z@DataStructures@@QEAAX_NPEBDI@Z @2217
?Clear@?$OrderedList@HPEAUFilterSet@RakNet@@$1?FilterSetComp@2@YAHAEBHAEBQEAU12@@Z@DataStructures@@QEAAX_NPEBDI@Z @2218
?Clear@?$OrderedList@HPEAUReadyEventNode@ReadyEvent@RakNet@@$1?ReadyEventNodeComp@23@SAHAEBHAEBQEAU123@@Z@DataStructures@@QEAAX_NPEBDI@Z @2219
?Clear@?$OrderedList@HPEAUVoiceBuffer@RakNet@@$1?VoiceBufferComp@2@YAHAEBHAEBQEAU12@@Z@DataStructures@@QEAAX_NPEBDI@Z @2220
?Clear@?$OrderedList@HUMapNode@?$Map@HPEAVHuffmanEncodingTree@RakNet@@$1??$defaultMapKeyComparison@H@DataStructures@@YAHAEBH0@Z@DataStructures@@$1?NodeComparisonFunc@23@SAHAEBHAEBU123@@Z@DataStructures@@QEAAX_NPEBDI@Z @2221
?Clear@?$OrderedList@IPEAUChangedVariablesList@VariableDeltaSerializer@RakNet@@$1?UpdatedVariablesListPtrComp@23@KAHAEBIAEBQEAU123@@Z@DataStructures@@QEAAX_NPEBDI@Z @2222
?Clear@?$OrderedList@IPEAUGetRequest@CloudServer@RakNet@@$1?GetRequestComp@23@KAHAEBIAEBQEAU123@@Z@DataStructures@@QEAAX_NPEBDI@Z @2223
?Clear@?$OrderedList@IUMapNode@?$Map@IUFLR_MemoryBlock@RakNet@@$1??$defaultMapKeyComparison@I@DataStructures@@YAHAEBI0@Z@DataStructures@@$1?NodeComparisonFunc@23@SAHAEBIAEBU123@@Z@DataStructures@@QEAAX_NPEBDI@Z @2224
?Clear@?$OrderedList@PEADUStrAndBool@@$1?StrAndBoolComp@RakNet@@YAHAEBQEADAEBU1@@Z@DataStructures@@QEAAX_NPEBDI@Z @2225
?Clear@?$OrderedList@PEAUFCM2Participant@FullyConnectedMesh2@RakNet@@PEAU123@$1?FCM2ParticipantComp@@YAHAEBQEAU123@0@Z@DataStructures@@QEAAX_NPEBDI@Z @2226
?Clear@?$OrderedList@PEAURow@Table@DataStructures@@PEAU123@$1?RowSort@@YAHAEBQEAU123@0@Z@DataStructures@@QEAAX_NPEBDI@Z @2227
?Clear@?$OrderedList@PEAUTimeAndValueQueue@StatisticsHistory@RakNet@@PEAU123@$1?TimeAndValueQueueCompAsc@@YAHAEBQEAU123@0@Z@DataStructures@@QEAAX_NPEBDI@Z @2228
?Clear@?$OrderedList@PEAVReplica3@RakNet@@PEAULastSerializationResult@2@$1?Replica3LSRComp@Connection_RM3@2@SAHAEBQEAV12@AEBQEAU32@@Z@DataStructures@@QEAAX_NPEBDI@Z @2229
?Clear@?$OrderedList@PEBDURegisteredCommand@RakNet@@$1?RegisteredCommandComp@2@YAHAEBQEBDAEBU12@@Z@DataStructures@@QEAAX_NPEBDI@Z @2230
?Clear@?$OrderedList@UCloudKey@RakNet@@PEAUCloudDataList@CloudServer@2@$1?KeyDataListComp@42@KAHAEBU12@AEBQEAU342@@Z@DataStructures@@QEAAX_NPEBDI@Z @2231
?Clear@?$OrderedList@UCloudKey@RakNet@@PEAUKeySubscriberID@CloudServer@2@$1?KeySubscriberIDComp@42@KAHAEBU12@AEBQEAU342@@Z@DataStructures@@QEAAX_NPEBDI@Z @2232
?Clear@?$OrderedList@UCloudKey@RakNet@@U12@$1?CloudKeyComp@2@YAHAEBU12@0@Z@DataStructures@@QEAAX_NPEBDI@Z @2233
?Clear@?$OrderedList@UConnectionRequestSystem@Router2@RakNet@@U123@$1?ConnectionRequestSystemComp@@YAHAEBU123@0@Z@DataStructures@@QEAAX_NPEBDI@Z @2234
?Clear@?$OrderedList@UJoinRequestHelper@TM_World@RakNet@@U123@$1?JoinRequestHelperComp@23@SAHAEBU123@0@Z@DataStructures@@QEAAX_NPEBDI@Z @2235
?Clear@?$OrderedList@ULocalSlotObject@RPC4@RakNet@@U123@$1?LocalSlotObjectComp@23@SAHAEBU123@0@Z@DataStructures@@QEAAX_NPEBDI@Z @2236
?Clear@?$OrderedList@URakNetGUID@RakNet@@PEAUBufferedGetResponseFromServer@CloudServer@2@$1?BufferedGetResponseFromServerComp@42@KAHAEBU12@AEBQEAU342@@Z@DataStructures@@QEAAX_NPEBDI@Z @2237
?Clear@?$OrderedList@URakNetGUID@RakNet@@PEAUCloudData@CloudServer@2@$1?KeyDataPtrComp@42@KAHAEBU12@AEBQEAU342@@Z@DataStructures@@QEAAX_NPEBDI@Z @2238
?Clear@?$OrderedList@URakNetGUID@RakNet@@PEAURemoteServer@CloudServer@2@$1?RemoteServerComp@42@KAHAEBU12@AEBQEAU342@@Z@DataStructures@@QEAAX_NPEBDI@Z @2239
?Clear@?$OrderedList@URakNetGUID@RakNet@@PEAURemoteSystem@ConnectionGraph2@2@$1?RemoteSystemComp@42@SAHAEBU12@AEBQEAU342@@Z@DataStructures@@QEAAX_NPEBDI@Z @2240
?Clear@?$OrderedList@URakNetGUID@RakNet@@PEAUUser@NatPunchthroughServer@2@$1?NatPunchthroughUserComp@42@SAHAEBU12@AEBQEAU342@@Z@DataStructures@@QEAAX_NPEBDI@Z @2241
?Clear@?$OrderedList@URakNetGUID@RakNet@@PEAUVoiceChannel@2@$1?VoiceChannelComp@2@YAHAEBU12@AEBQEAU32@@Z@DataStructures@@QEAAX_NPEBDI@Z @2242
?Clear@?$OrderedList@URakNetGUID@RakNet@@U12@$1??$defaultOrderedListComparison@URakNetGUID@RakNet@@U12@@DataStructures@@YAHAEBU12@0@Z@DataStructures@@QEAAX_NPEBDI@Z @2243
?Clear@?$OrderedList@URakNetGUID@RakNet@@URemoteSystem@ReadyEvent@2@$1?RemoteSystemCompByGuid@42@SAHAEBU12@AEBU342@@Z@DataStructures@@QEAAX_NPEBDI@Z @2244
?Clear@?$OrderedList@USenderAndTargetAddress@UDPProxyCoordinator@RakNet@@PEAUForwardingRequest@23@$1?ForwardingRequestComp@23@KAHAEBU123@AEBQEAU423@@Z@DataStructures@@QEAAX_NPEBDI@Z @2245
?Clear@?$OrderedList@USystemAddress@RakNet@@U12@$1??$defaultOrderedListComparison@USystemAddress@RakNet@@U12@@DataStructures@@YAHAEBU12@0@Z@DataStructures@@QEAAX_NPEBDI@Z @2246
?Clear@?$OrderedList@USystemAddress@RakNet@@UMapNode@?$Map@USystemAddress@RakNet@@PEAVByteQueue@DataStructures@@$1??$defaultMapKeyComparison@USystemAddress@RakNet@@@4@YAHAEBU12@0@Z@DataStructures@@$1?NodeComparisonFunc@45@SAHAEBU12@AEBU345@@Z@DataStructures@@QEAAX_NPEBDI@Z @2247
?Clear@?$OrderedList@USystemAddressAndGuid@ConnectionGraph2@RakNet@@U123@$1?SystemAddressAndGuidComp@23@SAHAEBU123@0@Z@DataStructures@@QEAAX_NPEBDI@Z @2248
?Clear@?$OrderedList@Uuint24_t@RakNet@@U?$RangeNode@Uuint24_t@RakNet@@@DataStructures@@$1??$RangeNodeComp@Uuint24_t@RakNet@@@4@YAHAEBU12@AEBU34@@Z@DataStructures@@QEAAX_NPEBDI@Z @2249
?Clear@?$OrderedList@VRakString@RakNet@@V12@$1??$defaultOrderedListComparison@VRakString@RakNet@@V12@@DataStructures@@YAHAEBV12@0@Z@DataStructures@@QEAAX_NPEBDI@Z @2250
?Clear@?$OrderedList@_KPEAUTrackedObject@StatisticsHistory@RakNet@@$1?TrackedObjectComp@23@SAHAEB_KAEBQEAU123@@Z@DataStructures@@QEAAX_NPEBDI@Z @2251
?Clear@?$Queue@H@DataStructures@@QEAAXPEBDI@Z @2252
?Clear@?$Queue@I@DataStructures@@QEAAXPEBDI@Z @2253
?Clear@?$Queue@P6AHUThreadData@FileListTransfer@RakNet@@PEA_NPEAX@Z@DataStructures@@QEAAXPEBDI@Z @2254
?Clear@?$Queue@PEAPEAURemoteClient@RakNet@@@DataStructures@@QEAAXPEBDI@Z @2255
?Clear@?$Queue@PEAUBufferedCommandStruct@RakPeer@RakNet@@@DataStructures@@QEAAXPEBDI@Z @2256
?Clear@?$Queue@PEAUPacket@RakNet@@@DataStructures@@QEAAXPEBDI@Z @2257
?Clear@?$Queue@PEAURNS2RecvStruct@RakNet@@@DataStructures@@QEAAXPEBDI@Z @2258
?Clear@?$Queue@PEAURequest@HTTPConnection2@RakNet@@@DataStructures@@QEAAXPEBDI@Z @2259
?Clear@?$Queue@PEAUSocketQueryOutput@RakPeer@RakNet@@@DataStructures@@QEAAXPEBDI@Z @2260
?Clear@?$Queue@PEAUStartForwardingInputStruct@UDPForwarder@RakNet@@@DataStructures@@QEAAXPEBDI@Z @2261
?Clear@?$Queue@PEAUStopForwardingStruct@UDPForwarder@RakNet@@@DataStructures@@QEAAXPEBDI@Z @2262
?Clear@?$Queue@PEAUSystemAddress@RakNet@@@DataStructures@@QEAAXPEBDI@Z @2263
?Clear@?$Queue@UDSTAndFac@NatPunchthroughClient@RakNet@@@DataStructures@@QEAAXPEBDI@Z @2264
?Clear@?$Queue@UPendingChallenge@TwoWayAuthentication@RakNet@@@DataStructures@@QEAAXPEBDI@Z @2265
?Clear@?$Queue@UStartForwardingOutputStruct@UDPForwarder@RakNet@@@DataStructures@@QEAAXPEBDI@Z @2266
?Clear@?$Queue@USystemAddress@RakNet@@@DataStructures@@QEAAXPEBDI@Z @2267
?Clear@?$Queue@UThreadData@FileListTransfer@RakNet@@@DataStructures@@QEAAXPEBDI@Z @2268
?Clear@?$Queue@UTimeAndValue2@BPSTracker@RakNet@@@DataStructures@@QEAAXPEBDI@Z @2269
?Clear@?$Queue@UTimeAndValue@StatisticsHistory@RakNet@@@DataStructures@@QEAAXPEBDI@Z @2270
?Clear@?$RangeList@Uuint24_t@RakNet@@@DataStructures@@QEAAXXZ @2271
?Clear@?$ThreadPool@UThreadData@FileListTransfer@RakNet@@H@@QEAAXXZ @2272
?Clear@?$ThreadsafeAllocatingQueue@PEAURemoteClient@RakNet@@@DataStructures@@QEAAXPEBDI@Z @2273
?Clear@?$ThreadsafeAllocatingQueue@UBufferedCommandStruct@RakPeer@RakNet@@@DataStructures@@QEAAXPEBDI@Z @2274
?Clear@?$ThreadsafeAllocatingQueue@UPacket@RakNet@@@DataStructures@@QEAAXPEBDI@Z @2275
?Clear@?$ThreadsafeAllocatingQueue@USocketQueryOutput@RakPeer@RakNet@@@DataStructures@@QEAAXPEBDI@Z @2276
?Clear@?$ThreadsafeAllocatingQueue@USystemAddress@RakNet@@@DataStructures@@QEAAXPEBDI@Z @2277
?Clear@BytePool@DataStructures@@QEAAXPEBDI@Z @2278
?Clear@Cell@Table@DataStructures@@QEAAXXZ @2279
?Clear@CloudServer@RakNet@@QEAAXXZ @2280
?Clear@FileList@RakNet@@QEAAXXZ @2281
?Clear@FileListTransfer@RakNet@@IEAAXXZ @2282
?Clear@FullyConnectedMesh2@RakNet@@QEAAXXZ @2283
?Clear@MessageFilter@RakNet@@IEAAXXZ @2284
?Clear@NatPunchthroughClient@RakNet@@QEAAXXZ @2285
?Clear@NetworkIDManager@RakNet@@QEAAXXZ @2286
?Clear@NonceGenerator@TwoWayAuthentication@RakNet@@QEAAXXZ @2287
?Clear@RakString@RakNet@@QEAAXXZ @2288
?Clear@RakWString@RakNet@@QEAAXXZ @2289
?Clear@ReplicaManager3@RakNet@@QEAAX_N@Z @2290
?Clear@StatisticsHistory@RakNet@@QEAAXXZ @2291
?Clear@Table@DataStructures@@QEAAXXZ @2292
?Clear@TeamManager@RakNet@@QEAAXXZ @2293
?Clear@TwoWayAuthentication@RakNet@@QEAAXXZ @2294
?Clear@UDPProxyClient@RakNet@@IEAAXXZ @2295
?Clear@UDPProxyCoordinator@RakNet@@IEAAXXZ @2296
?ClearAll@Router2@RakNet@@IEAAXXZ @2297
?ClearAllConnections@PacketizedTCP@RakNet@@IEAAXXZ @2298
?ClearAndForceAllocation@?$Queue@PEAUInternalPacket@RakNet@@@DataStructures@@QEAAXHPEBDI@Z @2299
?ClearAndForceAllocation@?$Queue@_N@DataStructures@@QEAAXHPEBDI@Z @2300
?ClearBanList@RakPeer@RakNet@@UEAAXXZ @2301
?ClearBufferedCommands@RakPeer@RakNet@@IEAAXXZ @2302
?ClearBufferedPackets@RakPeer@RakNet@@IEAAXXZ @2303
?ClearByAddress@NonceGenerator@TwoWayAuthentication@RakNet@@QEAAXUAddressOrGUID@3@@Z @2304
?ClearCallbacks@FileList@RakNet@@QEAAXXZ @2305
?ClearCallbacks@FileListTransfer@RakNet@@QEAAXXZ @2306
?ClearConnectionRequests@Router2@RakNet@@IEAAXXZ @2307
?ClearDownloadGroup@Connection_RM3@RakNet@@QEAAXPEAVRakPeerInterface@2@@Z @2308
?ClearEventCallbacks@Rackspace@RakNet@@QEAAXXZ @2309
?ClearForwardedConnections@Router2@RakNet@@IEAAXXZ @2310
?ClearIndex@?$Hash@UAddressOrGUID@RakNet@@UFilteredSystem@2@$0IAA@$1?ToInteger@12@SAKAEBU12@@Z@DataStructures@@IEAAXIPEBDI@Z @2311
?ClearIndex@?$Hash@URakNetGUID@RakNet@@PEAURemoteCloudClient@CloudServer@2@$0IAA@$1?ToUint32@12@SAKAEBU12@@Z@DataStructures@@IEAAXIPEBDI@Z @2312
?ClearIndex@?$Hash@URakNetGUID@RakNet@@PEAUStrAndGuidAndRoom@RelayPlugin@2@$0BPKA@$1?ToUint32@12@SAKAEBU12@@Z@DataStructures@@IEAAXIPEBDI@Z @2313
?ClearIndex@?$Hash@USystemAddress@RakNet@@UClientState@@$0BAA@$1?SystemAddressHash@@YAKAEBU12@@Z@DataStructures@@IEAAXIPEBDI@Z @2314
?ClearIndex@?$Hash@VRakString@RakNet@@P6AXPEAVBitStream@2@0PEAUPacket@2@@Z$0EA@$1?ToInteger@12@SAKAEBV12@@Z@DataStructures@@IEAAXIPEBDI@Z @2315
?ClearIndex@?$Hash@VRakString@RakNet@@P6AXPEAVBitStream@2@PEAUPacket@2@@Z$0EA@$1?ToInteger@12@SAKAEBV12@@Z@DataStructures@@IEAAXIPEBDI@Z @2316
?ClearIndex@?$Hash@VRakString@RakNet@@PEAULocalSlot@RPC4@2@$0BAA@$1?ToInteger@12@SAKAEBV12@@Z@DataStructures@@IEAAXIPEBDI@Z @2317
?ClearIndex@?$Hash@VRakString@RakNet@@PEAUStrAndGuidAndRoom@RelayPlugin@2@$0BPKA@$1?ToInteger@12@SAKAEBV12@@Z@DataStructures@@IEAAXIPEBDI@Z @2318
?ClearIndex@?$Hash@VRakString@RakNet@@PEAUTimeAndValueQueue@StatisticsHistory@2@$0CA@$1?ToInteger@12@SAKAEBV12@@Z@DataStructures@@IEAAXIPEBDI@Z @2319
?ClearIndex@?$Hash@VRakString@RakNet@@V12@$0BA@$1?ToInteger@12@SAKAEBV12@@Z@DataStructures@@IEAAXIPEBDI@Z @2320
?ClearIndex@?$Hash@_KPEAVTM_Team@RakNet@@$0BAA@$1?ToUint32@12@SAKAEB_K@Z@DataStructures@@IEAAXIPEBDI@Z @2321
?ClearIndex@?$Hash@_KPEAVTM_TeamMember@RakNet@@$0BAA@$1?ToUint32@12@SAKAEB_K@Z@DataStructures@@IEAAXIPEBDI@Z @2322
?ClearInput@?$ThreadPool@UThreadData@FileListTransfer@RakNet@@H@@QEAAXXZ @2323
?ClearMinipunches@Router2@RakNet@@IEAAXXZ @2324
?ClearRemoteSystemLookup@RakPeer@RakNet@@IEAAXXZ @2325
?ClearRequestedConnectionList@RakPeer@RakNet@@IEAAXXZ @2326
?ClearSocketQueryOutput@RakPeer@RakNet@@IEAAXXZ @2327
?ClearUploads@DirectoryDeltaTransfer@RakNet@@QEAAXXZ @2328
?Clone@RakString@RakNet@@IEAAXXZ @2329
?CloseAllChannels@RakVoice@RakNet@@QEAAXXZ @2330
?CloseConnection@HTTPConnection@RakNet@@AEAAXXZ @2331
?CloseConnection@PacketizedTCP@RakNet@@QEAAXUSystemAddress@2@@Z @2332
?CloseConnection@RakNetTransport2@RakNet@@UEAAXUSystemAddress@2@@Z @2333
?CloseConnection@RakPeer@RakNet@@UEAAXUAddressOrGUID@2@_NEW4PacketPriority@@@Z @2334
?CloseConnection@TCPInterface@RakNet@@QEAAXUSystemAddress@2@@Z @2335
?CloseConnection@TelnetTransport@RakNet@@UEAAXUSystemAddress@2@@Z @2336
?CloseConnectionInternal@RakPeer@RakNet@@IEAAXAEBUAddressOrGUID@2@_N1EW4PacketPriority@@@Z @2337
?CloseEvent@SignaledEvent@RakNet@@QEAAXXZ @2338
?CloseVoiceChannel@RakVoice@RakNet@@QEAAXURakNetGUID@2@@Z @2339
?ColumnIndex@Table@DataStructures@@QEBAIPEBD@Z @2340
?ColumnIndex@Table@DataStructures@@QEBAIQEAD@Z @2341
?ColumnName@Table@DataStructures@@QEBAPEADI@Z @2342
?Compress@?$Queue@_N@DataStructures@@QEAAXPEBDI@Z @2343
?Compress@DataCompressor@RakNet@@SAXPEAEIPEAVBitStream@2@@Z @2344
?Concatenate@?$CircularLinkedList@PEAUHuffmanEncodingTreeNode@@@DataStructures@@QEAAXAEBV12@@Z @2345
?ConfirmResizedServer@Rackspace@RakNet@@QEAAXVRakString@2@@Z @2346
?Connect@RakPeer@RakNet@@UEAA?AW4ConnectionAttemptResult@2@PEBDG0HPEAUPublicKey@2@IIII@Z @2347
?Connect@TCPInterface@RakNet@@QEAA?AUSystemAddress@2@PEBDG_NG0@Z @2348
?ConnectInternal@Router2@RakNet@@IEAA_NURakNetGUID@2@_N@Z @2349
?ConnectToRemoteNewIncomingConnections@FullyConnectedMesh2@RakNet@@QEAAXPEAUPacket@2@@Z @2350
?ConnectToServerManagementDomain@Rackspace@RakNet@@IEAA_NAEAURackspaceOperation@12@@Z @2351
?ConnectWithSocket@RakPeer@RakNet@@UEAA?AW4ConnectionAttemptResult@2@PEBDG0HPEAVRakNetSocket2@2@PEAUPublicKey@2@III@Z @2352
?ConnectionExists@ConnectionGraph2@RakNet@@QEAA_NURakNetGUID@2@0@Z @2353
?ContainsNonprintableExceptSpaces@RakString@RakNet@@QEBA_NXZ @2354
?CopyData@BitStream@RakNet@@QEBAIPEAPEAE@Z @2355
?CopyPort@SystemAddress@RakNet@@QEAAXAEBU12@@Z @2356
?Create@RakThread@RakNet@@SAHP6AIPEAX@Z0H@Z @2357
?CreateImage@Rackspace@RakNet@@QEAAXVRakString@2@0@Z @2358
?CreateListenSocket@TCPInterface@RakNet@@IEAA_NGGGPEBD@Z @2359
?CreateNonblockingBoundSocket@RakNet@@YAPEAVRakNetSocket2@1@PEBDPEAVRNS2EventHandler@1@@Z @2360
?CreateRecvPollingThread@RNS2_Berkley@RakNet@@QEAAHH@Z @2361
?CreateServer@Rackspace@RakNet@@QEAAXVRakString@2@00@Z @2362
?CreateSharedIPGroup@Rackspace@RakNet@@QEAAXVRakString@2@0@Z @2363
?DeallocPacketUnified@PluginInterface2@RakNet@@IEAAXPEAUPacket@2@@Z @2364
?DeallocRNS2RecvStruct@NatTypeDetectionClient@RakNet@@UEAAXPEAURNS2RecvStruct@2@PEBDI@Z @2365
?DeallocRNS2RecvStruct@NatTypeDetectionServer@RakNet@@UEAAXPEAURNS2RecvStruct@2@PEBDI@Z @2366
?DeallocRNS2RecvStruct@RakPeer@RakNet@@MEAAXPEAURNS2RecvStruct@2@PEBDI@Z @2367
?DeallocReplicaNoBroadcastDestruction@ReplicaManager3@RakNet@@IEAAXPEAVConnection_RM3@2@PEAVReplica3@2@@Z @2368
?DeallocWideChar@RakString@RakNet@@QEAAXPEA_W@Z @2369
?Deallocate@?$ThreadsafeAllocatingQueue@UBufferedCommandStruct@RakPeer@RakNet@@@DataStructures@@QEAAXPEAUBufferedCommandStruct@RakPeer@RakNet@@PEBDI@Z @2370
?Deallocate@?$ThreadsafeAllocatingQueue@UPacket@RakNet@@@DataStructures@@QEAAXPEAUPacket@RakNet@@PEBDI@Z @2371
?Deallocate@?$ThreadsafeAllocatingQueue@USocketQueryOutput@RakPeer@RakNet@@@DataStructures@@QEAAXPEAUSocketQueryOutput@RakPeer@RakNet@@PEBDI@Z @2372
?Deallocate@?$ThreadsafeAllocatingQueue@UStartForwardingInputStruct@UDPForwarder@RakNet@@@DataStructures@@QEAAXPEAUStartForwardingInputStruct@UDPForwarder@RakNet@@PEBDI@Z @2373
?Deallocate@?$ThreadsafeAllocatingQueue@UStopForwardingStruct@UDPForwarder@RakNet@@@DataStructures@@QEAAXPEAUStopForwardingStruct@UDPForwarder@RakNet@@PEBDI@Z @2374
?Deallocate@?$ThreadsafeAllocatingQueue@USystemAddress@RakNet@@@DataStructures@@QEAAXPEAUSystemAddress@RakNet@@PEBDI@Z @2375
?DeallocateCloudQueryRow@CloudAllocator@RakNet@@UEAAXPEAUCloudQueryRow@2@@Z @2376
?DeallocateFilterSet@MessageFilter@RakNet@@IEAAXPEAUFilterSet@2@@Z @2377
?DeallocatePacket@RakNetTransport2@RakNet@@UEAAXPEAUPacket@2@@Z @2378
?DeallocatePacket@RakPeer@RakNet@@UEAAXPEAUPacket@2@@Z @2379
?DeallocatePacket@TCPInterface@RakNet@@QEAAXPEAUPacket@2@@Z @2380
?DeallocatePacket@TelnetTransport@RakNet@@UEAAXPEAUPacket@2@@Z @2381
?DeallocateQueryList@TableSerializer@RakNet@@SAXPEAUFilterQuery@Table@DataStructures@@I@Z @2382
?DeallocateRowData@CloudAllocator@RakNet@@UEAAXPEAX@Z @2383
?DeallocateWithDefaultAllocator@CloudClient@RakNet@@UEAAXPEAUCloudQueryResult@2@@Z @2384
?DeallocateWithDefaultAllocator@CloudClient@RakNet@@UEAAXPEAUCloudQueryRow@2@@Z @2385
?DecodeArray@HuffmanEncodingTree@RakNet@@QEAAIPEAVBitStream@2@I_KPEAE@Z @2386
?DecodeArray@HuffmanEncodingTree@RakNet@@QEAAXPEAEIPEAVBitStream@2@@Z @2387
?DecodeFile@FileListTransfer@RakNet@@IEAA_NPEAUPacket@2@_N@Z @2388
?DecodeSetHeader@FileListTransfer@RakNet@@IEAA_NPEAUPacket@2@@Z @2389
?DecodeString@StringCompressor@RakNet@@QEAA_NPEADHPEAVBitStream@2@E@Z @2390
?DecodeString@StringCompressor@RakNet@@QEAA_NPEAVRakString@2@HPEAVBitStream@2@E@Z @2391
?DecodeString@StringTable@RakNet@@QEAA_NPEADHPEAVBitStream@2@@Z @2392
?DecodeTeamAssigned@TeamManager@RakNet@@IEAAXPEAVBitStream@2@PEAPEAVTM_World@2@PEAPEAVTM_TeamMember@2@AEAEAEAW4JoinTeamType@2@AEAV?$List@PEAVTM_Team@RakNet@@@DataStructures@@55@Z @2393
?DecodeTeamAssigned@TeamManager@RakNet@@QEAAXPEAUPacket@2@PEAPEAVTM_World@2@PEAPEAVTM_TeamMember@2@@Z @2394
?DecodeTeamCancelled@TeamManager@RakNet@@QEAAXPEAUPacket@2@PEAPEAVTM_World@2@PEAPEAVTM_TeamMember@2@PEAPEAVTM_Team@2@@Z @2395
?DecomposeJoinCapable@FullyConnectedMesh2@RakNet@@IEAAXPEAUPacket@2@PEAUVerifiedJoinInProgress@12@@Z @2396
?DecomposeTeamFull@TeamManager@RakNet@@QEAAXPEAUPacket@2@PEAPEAVTM_World@2@PEAPEAVTM_TeamMember@2@PEAPEAVTM_Team@2@AEAG4AEA_NAEAE@Z @2397
?DecomposeTeamFullOrLocked@TeamManager@RakNet@@IEAAXPEAVBitStream@2@PEAPEAVTM_World@2@PEAPEAVTM_TeamMember@2@PEAPEAVTM_Team@2@AEAG4AEA_NAEAE@Z @2398
?DecomposeTeamLocked@TeamManager@RakNet@@QEAAXPEAUPacket@2@PEAPEAVTM_World@2@PEAPEAVTM_TeamMember@2@PEAPEAVTM_Team@2@AEAG4AEA_NAEAE@Z @2399
?DecompressAndAllocate@DataCompressor@RakNet@@SAIPEAVBitStream@2@PEAPEAE@Z @2400
?Decrement@LocklessUint32_t@RakNet@@QEAAIXZ @2401
?Deinit@RakVoice@RakNet@@QEAAXXZ @2402
?Del@?$CircularLinkedList@PEAUHuffmanEncodingTreeNode@@@DataStructures@@QEAAXXZ @2403
?Delete@?$BPlusTree@IPEAURow@Table@DataStructures@@$0BA@@DataStructures@@QEAA_NI@Z @2404
?Delete@?$BPlusTree@IPEAURow@Table@DataStructures@@$0BA@@DataStructures@@QEAA_NIAEAPEAURow@Table@2@@Z @2405
?Delete@?$Map@GPEAUFileListReceiver@RakNet@@$1??$defaultMapKeyComparison@G@DataStructures@@YAHAEBG0@Z@DataStructures@@QEAA_NAEBG@Z @2406
?Delete@?$Map@IUFLR_MemoryBlock@RakNet@@$1??$defaultMapKeyComparison@I@DataStructures@@YAHAEBI0@Z@DataStructures@@QEAA_NAEBI@Z @2407
?DeleteFiles@FileList@RakNet@@QEAAXPEBD@Z @2408
?DeleteFilterSet@MessageFilter@RakNet@@QEAAXH@Z @2409
?DeleteFromPageAtIndex@?$BPlusTree@IPEAURow@Table@DataStructures@@$0BA@@DataStructures@@IEAAXHPEAU?$Page@IPEAURow@Table@DataStructures@@$0BA@@2@@Z @2410
?DeleteImage@Rackspace@RakNet@@QEAAXVRakString@2@@Z @2411
?DeleteMember@TeamBalancer@RakNet@@QEAAX_K@Z @2412
?DeleteRow@Table@DataStructures@@IEAAXPEAURow@12@@Z @2413
?DeleteServer@Rackspace@RakNet@@QEAAXVRakString@2@@Z @2414
?DeleteServerAddress@Rackspace@RakNet@@QEAAXVRakString@2@0@Z @2415
?DeleteSharedIPGroup@Rackspace@RakNet@@QEAAXVRakString@2@@Z @2416
?DerefAllSockets@RakPeer@RakNet@@IEAAXXZ @2417
?Dereference@ReplicaManager3@RakNet@@QEAAXPEAVReplica3@2@E@Z @2418
?DereferenceList@ReplicaManager3@RakNet@@QEAAXAEAV?$List@PEAVReplica3@RakNet@@@DataStructures@@E@Z @2419
?DereferenceRemoteSystem@RakPeer@RakNet@@IEAAXAEBUSystemAddress@2@@Z @2420
?Deserialize@?$RangeList@Uuint24_t@RakNet@@@DataStructures@@QEAA_NPEAVBitStream@RakNet@@@Z @2421
?Deserialize@FileList@RakNet@@QEAA_NPEAVBitStream@2@@Z @2422
?Deserialize@RakNetRandomSync@RakNet@@UEAAXPEAVBitStream@2@@Z @2423
?Deserialize@RakString@RakNet@@QEAA_NPEAVBitStream@2@@Z @2424
?Deserialize@RakString@RakNet@@SA_NPEADPEAVBitStream@2@@Z @2425
?Deserialize@RakWString@RakNet@@QEAA_NPEAVBitStream@2@@Z @2426
?Deserialize@RakWString@RakNet@@SA_NPEA_WPEAVBitStream@2@@Z @2427
?DeserializeCell@TableSerializer@RakNet@@SA_NPEAVBitStream@2@PEAUCell@Table@DataStructures@@W4ColumnType@56@@Z @2428
?DeserializeColumns@TableSerializer@RakNet@@SA_NPEAVBitStream@2@PEAVTable@DataStructures@@@Z @2429
?DeserializeCompressed@RakString@RakNet@@QEAA_NPEAVBitStream@2@_N@Z @2430
?DeserializeCompressed@RakString@RakNet@@SA_NPEADPEAVBitStream@2@_N@Z @2431
?DeserializeConstruction@RakNetRandomSync@RakNet@@UEAA_NPEAVBitStream@2@@Z @2432
?DeserializeConstruction@TM_Team@RakNet@@QEAA_NPEAVTeamManager@2@PEAVBitStream@2@@Z @2433
?DeserializeConstruction@TM_TeamMember@RakNet@@QEAA_NPEAVTeamManager@2@PEAVBitStream@2@@Z @2434
?DeserializeConstructionExisting@Replica3@RakNet@@UEAAXPEAVBitStream@2@PEAVConnection_RM3@2@@Z @2435
?DeserializeFilterQuery@TableSerializer@RakNet@@SA_NPEAVBitStream@2@PEAUFilterQuery@Table@DataStructures@@@Z @2436
?DeserializeFilterQueryList@TableSerializer@RakNet@@SA_NPEAVBitStream@2@PEAPEAUFilterQuery@Table@DataStructures@@PEAIIH@Z @2437
?DeserializeOnDownloadComplete@Connection_RM3@RakNet@@UEAAXPEAVBitStream@2@@Z @2438
?DeserializeOnDownloadStarted@Connection_RM3@RakNet@@UEAAXPEAVBitStream@2@@Z @2439
?DeserializeRow@TableSerializer@RakNet@@SA_NPEAVBitStream@2@PEAVTable@DataStructures@@@Z @2440
?DeserializeTable@TableSerializer@RakNet@@SA_NPEAEIPEAVTable@DataStructures@@@Z @2441
?DeserializeTable@TableSerializer@RakNet@@SA_NPEAVBitStream@2@PEAVTable@DataStructures@@@Z @2442
?DestroyInstance@BitStream@RakNet@@SAXPEAV12@@Z @2443
?DestroyInstance@CloudClient@RakNet@@SAXPEAV12@@Z @2444
?DestroyInstance@ConnectionGraph2@RakNet@@SAXPEAV12@@Z @2445
?DestroyInstance@ConsoleServer@RakNet@@SAXPEAV12@@Z @2446
?DestroyInstance@DataCompressor@RakNet@@SAXPEAV12@@Z @2447
?DestroyInstance@DirectoryDeltaTransfer@RakNet@@SAXPEAV12@@Z @2448
?DestroyInstance@EmailSender@RakNet@@SAXPEAV12@@Z @2449
?DestroyInstance@FLP_Printf@RakNet@@SAXPEAV12@@Z @2450
?DestroyInstance@FileList@RakNet@@SAXPEAV12@@Z @2451
?DestroyInstance@FileListProgress@RakNet@@SAXPEAV12@@Z @2452
?DestroyInstance@FileListTransfer@RakNet@@SAXPEAV12@@Z @2453
?DestroyInstance@FullyConnectedMesh2@RakNet@@SAXPEAV12@@Z @2454
?DestroyInstance@HTTPConnection2@RakNet@@SAXPEAV12@@Z @2455
?DestroyInstance@HTTPConnection@RakNet@@SAXPEAV12@@Z @2456
?DestroyInstance@LogCommandParser@RakNet@@SAXPEAV12@@Z @2457
?DestroyInstance@MessageFilter@RakNet@@SAXPEAV12@@Z @2458
?DestroyInstance@NatPunchthroughClient@RakNet@@SAXPEAV12@@Z @2459
?DestroyInstance@NatPunchthroughServer@RakNet@@SAXPEAV12@@Z @2460
?DestroyInstance@NatTypeDetectionClient@RakNet@@SAXPEAV12@@Z @2461
?DestroyInstance@NatTypeDetectionServer@RakNet@@SAXPEAV12@@Z @2462
?DestroyInstance@NetworkIDManager@RakNet@@SAXPEAV12@@Z @2463
?DestroyInstance@PacketLogger@RakNet@@SAXPEAV12@@Z @2464
?DestroyInstance@PacketizedTCP@RakNet@@SAXPEAV12@@Z @2465
?DestroyInstance@RPC4@RakNet@@SAXPEAV12@@Z @2466
?DestroyInstance@RakNetCommandParser@RakNet@@SAXPEAV12@@Z @2467
?DestroyInstance@RakNetTransport2@RakNet@@SAXPEAV12@@Z @2468
?DestroyInstance@RakPeerInterface@RakNet@@SAXPEAV12@@Z @2469
?DestroyInstance@RelayPlugin@RakNet@@SAXPEAV12@@Z @2470
?DestroyInstance@Router2@RakNet@@SAXPEAV12@@Z @2471
?DestroyInstance@StatisticsHistory@RakNet@@SAXPEAV12@@Z @2472
?DestroyInstance@StatisticsHistoryPlugin@RakNet@@SAXPEAV12@@Z @2473
?DestroyInstance@TCPInterface@RakNet@@SAXPEAV12@@Z @2474
?DestroyInstance@TM_Team@RakNet@@SAXPEAV12@@Z @2475
?DestroyInstance@TM_TeamMember@RakNet@@SAXPEAV12@@Z @2476
?DestroyInstance@TeamBalancer@RakNet@@SAXPEAV12@@Z @2477
?DestroyInstance@TeamManager@RakNet@@SAXPEAV12@@Z @2478
?DestroyInstance@TelnetTransport@RakNet@@SAXPEAV12@@Z @2479
?DestroyInstance@UDPProxyClient@RakNet@@SAXPEAV12@@Z @2480
?DestroyInstance@UDPProxyCoordinator@RakNet@@SAXPEAV12@@Z @2481
?DestroyInstance@UDPProxyServer@RakNet@@SAXPEAV12@@Z @2482
?DetachPlugin@RakPeer@RakNet@@UEAAXPEAVPluginInterface2@2@@Z @2483
?DetachPlugin@TCPInterface@RakNet@@QEAAXPEAVPluginInterface2@2@@Z @2484
?DetectNATType@NatTypeDetectionClient@RakNet@@QEAAXUSystemAddress@2@@Z @2485
?DirectoryExists@@YA_NPEBD@Z @2486
?DirtyAndFreeVarsAssociatedWithReceipt@VariableDeltaSerializer@RakNet@@IEAAXURakNetGUID@2@I@Z @2487
?DisableSecurity@RakPeer@RakNet@@UEAAXXZ @2488
?DoEndianSwap@BitStream@RakNet@@SA_NXZ @2489
?DomainNameToIP@RakNetSocket2@RakNet@@SAXPEBDQEAD@Z @2490
?DownloadFromSubdirectory@DirectoryDeltaTransfer@RakNet@@QEAAGAEAVFileList@2@PEBD1_NUSystemAddress@2@PEAVFileListTransferCBInterface@2@W4PacketPriority@@DPEAVFileListProgress@2@@Z @2491
?DownloadFromSubdirectory@DirectoryDeltaTransfer@RakNet@@QEAAGPEBD0_NUSystemAddress@2@PEAVFileListTransferCBInterface@2@W4PacketPriority@@DPEAVFileListProgress@2@@Z @2492
?EncodeArray@HuffmanEncodingTree@RakNet@@QEAAXPEAE_KPEAVBitStream@2@@Z @2493
?EncodeString@StringCompressor@RakNet@@QEAAXPEBDHPEAVBitStream@2@E@Z @2494
?EncodeString@StringCompressor@RakNet@@QEAAXPEBVRakString@2@HPEAVBitStream@2@E@Z @2495
?EncodeString@StringTable@RakNet@@QEAAXPEBDHPEAVBitStream@2@@Z @2496
?EncodeTeamAssigned@TeamManager@RakNet@@IEAAXPEAVBitStream@2@PEAVTM_TeamMember@2@@Z @2497
?EncodeTeamFull@TeamManager@RakNet@@IEAAXPEAVBitStream@2@PEAVTM_TeamMember@2@PEAVTM_Team@2@@Z @2498
?EncodeTeamFullOrLocked@TeamManager@RakNet@@IEAAXPEAVBitStream@2@PEAVTM_TeamMember@2@PEAVTM_Team@2@@Z @2499
?EncodeTeamLocked@TeamManager@RakNet@@IEAAXPEAVBitStream@2@PEAVTM_TeamMember@2@PEAVTM_Team@2@@Z @2500
?End@?$CircularLinkedList@PEAUHuffmanEncodingTreeNode@@@DataStructures@@QEAAXXZ @2501
?EndDeserialize@VariableDeltaSerializer@RakNet@@QEAAXPEAUDeserializationContext@12@@Z @2502
?EndSerialize@VariableDeltaSerializer@RakNet@@QEAAXPEAUSerializationContext@12@@Z @2503
?EndianSwapBytes@BitStream@RakNet@@QEAAXHH@Z @2504
?EpochTimeToString@@YAPEAD_J@Z @2505
?EqualsExcludingPort@SystemAddress@RakNet@@QEBA_NAEBU12@@Z @2506
?Erase@RakString@RakNet@@QEAAXII@Z @2507
?EstablishRouting@Router2@RakNet@@QEAAXURakNetGUID@2@@Z @2508
?EstimateColumnType@Cell@Table@DataStructures@@QEBA?AW4ColumnType@23@XZ @2509
?EvenTeams@TeamBalancer@RakNet@@IEAAXXZ @2510
?EventTypeToString@Rackspace@RakNet@@SAPEBDW4RackspaceEventType@2@@Z @2511
?ExecuteDefault@RackspaceEventCallback_Default@RakNet@@UEAAXPEBDW4RackspaceEventType@2@0@Z @2512
?ExecuteOperation@Rackspace@RakNet@@IEAA_NAEAURackspaceOperation@12@@Z @2513
?FPrintf@RakString@RakNet@@QEAAXPEAU_iobuf@@@Z @2514
?FPrintf@RakWString@RakNet@@QEAAXPEAU_iobuf@@@Z @2515
?FillBufferMT@RakNetRandom@RakNet@@QEAAXPEAXI@Z @2516
?FillIPList@RakPeer@RakNet@@IEAAXXZ @2517
?FilterSetComp@RakNet@@YAHAEBHAEBQEAUFilterSet@1@@Z @2518
?Final@CSHA1@@QEAAXXZ @2519
?Find@?$CircularLinkedList@PEAUHuffmanEncodingTreeNode@@@DataStructures@@QEAA_NAEBQEAUHuffmanEncodingTreeNode@@@Z @2520
?Find@RakString@RakNet@@QEAA_KPEBD_K@Z @2521
?FindDeleteRebalance@?$BPlusTree@IPEAURow@Table@DataStructures@@$0BA@@DataStructures@@IEAA_NIPEAU?$Page@IPEAURow@Table@DataStructures@@$0BA@@2@PEA_NIPEAUReturnAction@12@AEAPEAURow@Table@2@@Z @2522
?FindPointer@?$CircularLinkedList@PEAUHuffmanEncodingTreeNode@@@DataStructures@@IEAAPEAUnode@12@AEBQEAUHuffmanEncodingTreeNode@@@Z @2523
?FindRouterPortStride@NatPunchthroughClient@RakNet@@QEAAXAEBUSystemAddress@2@@Z @2524
?FixEndingSlash@FileList@RakNet@@SA_NPEAD@Z @2525
?FixForIPVersion@SystemAddress@RakNet@@QEAAXAEBU12@@Z @2526
?FixUnderflow@?$BPlusTree@IPEAURow@Table@DataStructures@@$0BA@@DataStructures@@IEAA_NHPEAU?$Page@IPEAURow@Table@DataStructures@@$0BA@@2@IPEAUReturnAction@12@@Z @2527
?FlagFilesAsReferences@FileList@RakNet@@QEAAXXZ @2528
?ForEachData@?$BPlusTree@IPEAURow@Table@DataStructures@@$0BA@@DataStructures@@QEAAXP6AXPEAURow@Table@2@H@Z@Z @2529
?ForceExternalSystemAddress@CloudServer@RakNet@@QEAAXUSystemAddress@2@@Z @2530
?FormatForDELETE@RakString@RakNet@@SA?AV12@PEBD0@Z @2531
?FormatForGET@RakString@RakNet@@SA?AV12@PEBD0@Z @2532
?FormatForPOST@RakString@RakNet@@SA?AV12@PEBD000@Z @2533
?FormatForPUT@RakString@RakNet@@SA?AV12@PEBD000@Z @2534
?FormatForPUTOrPost@RakString@RakNet@@KA?AV12@PEBD0000@Z @2535
?FormatLine@PacketLogger@RakNet@@UEAAXPEADPEBD1II1I_KAEBUSystemAddress@2@3IIII@Z @2536
?FormatLine@PacketLogger@RakNet@@UEAAXPEADPEBD1IIEI_KAEBUSystemAddress@2@3IIII@Z @2537
?ForwardingRequestComp@UDPProxyCoordinator@RakNet@@KAHAEBUSenderAndTargetAddress@12@AEBQEAUForwardingRequest@12@@Z @2538
?FrandomMT@RakNetRandom@RakNet@@QEAAMXZ @2539
?FrandomMT@RakNetRandomSync@RakNet@@QEAAMXZ @2540
?Free@RakString@RakNet@@IEAAXXZ @2541
?FreeChangedVariablesList@VariableDeltaSerializer@RakNet@@IEAAXPEAUChangedVariablesList@12@@Z @2542
?FreeChannelMemory@RakVoice@RakNet@@IEAAXI_N@Z @2543
?FreeChannelMemory@RakVoice@RakNet@@IEAAXURakNetGUID@2@@Z @2544
?FreeMemory@HuffmanEncodingTree@RakNet@@QEAAXXZ @2545
?FreeMemory@RakString@RakNet@@SAXXZ @2546
?FreeMemoryNoMutex@RakString@RakNet@@SAXXZ @2547
?FreePages@?$BPlusTree@IPEAURow@Table@DataStructures@@$0BA@@DataStructures@@IEAAXXZ @2548
?FreeVarsAssociatedWithReceipt@VariableDeltaSerializer@RakNet@@IEAAXURakNetGUID@2@I@Z @2549
?FromString@RakNetGUID@RakNet@@QEAA_NPEBD@Z @2550
?FromString@SystemAddress@RakNet@@QEAA_NPEBDDH@Z @2551
?FromStringExplicitPort@SystemAddress@RakNet@@QEAA_NPEBDGH@Z @2552
?FromWideChar@RakString@RakNet@@QEAAXPEB_W@Z @2553
?FromWideChar_S@RakString@RakNet@@SA?AV12@PEB_W@Z @2554
?GET_BASE_OBJECT_FROM_ID@NetworkIDManager@RakNet@@QEAAPEAVNetworkIDObject@2@_K@Z @2555
?GenerateFromFrequencyTable@HuffmanEncodingTree@RakNet@@QEAAXQEAI@Z @2556
?GenerateGUID@RakPeer@RakNet@@IEAAXXZ @2557
?GenerateHashes@DirectoryDeltaTransfer@RakNet@@QEAAXAEAVFileList@2@PEBD_N@Z @2558
?GenerateNonce@NonceGenerator@TwoWayAuthentication@RakNet@@QEAAXQEAD@Z @2559
?GenerateSeedFromGuid@RakPeer@RakNet@@IEAAIXZ @2560
?GenerateTreeFromStrings@StringCompressor@RakNet@@QEAAXPEAEIE@Z @2561
?Get64BitUniqueRandomNumber@RakPeerInterface@RakNet@@SA_KXZ @2562
?Get@?$BPlusTree@IPEAURow@Table@DataStructures@@$0BA@@DataStructures@@QEBA_NIAEAPEAURow@Table@2@@Z @2563
?Get@?$Map@GPEAUFileListReceiver@RakNet@@$1??$defaultMapKeyComparison@G@DataStructures@@YAHAEBG0@Z@DataStructures@@QEBAAEAPEAUFileListReceiver@RakNet@@AEBG@Z @2564
?Get@?$Map@HPEAVHuffmanEncodingTree@RakNet@@$1??$defaultMapKeyComparison@H@DataStructures@@YAHAEBH0@Z@DataStructures@@QEBAAEAPEAVHuffmanEncodingTree@RakNet@@AEBH@Z @2565
?Get@?$Map@IUFLR_MemoryBlock@RakNet@@$1??$defaultMapKeyComparison@I@DataStructures@@YAHAEBI0@Z@DataStructures@@QEBAAEAUFLR_MemoryBlock@RakNet@@AEBI@Z @2566
?Get@Cell@Table@DataStructures@@QEAAXPEAD@Z @2567
?Get@Cell@Table@DataStructures@@QEAAXPEADPEAH@Z @2568
?Get@Cell@Table@DataStructures@@QEAAXPEAH@Z @2569
?Get@Cell@Table@DataStructures@@QEAAXPEAN@Z @2570
?Get@CloudClient@RakNet@@UEAA_NPEAUCloudQuery@2@AEAV?$List@PEAUCloudQueryRow@RakNet@@@DataStructures@@URakNetGUID@2@@Z @2571
?Get@CloudClient@RakNet@@UEAA_NPEAUCloudQuery@2@AEAV?$List@URakNetGUID@RakNet@@@DataStructures@@URakNetGUID@2@@Z @2572
?Get@CloudClient@RakNet@@UEAA_NPEAUCloudQuery@2@URakNetGUID@2@@Z @2573
?Get@HTTPConnection@RakNet@@QEAAXPEBD@Z @2574
?GetAllConnectionDownloadsCompleted@ReplicaManager3@RakNet@@QEBA_NE@Z @2575
?GetAsList@?$Hash@UAddressOrGUID@RakNet@@UFilteredSystem@2@$0IAA@$1?ToInteger@12@SAKAEBU12@@Z@DataStructures@@QEBAXAEAV?$List@UFilteredSystem@RakNet@@@2@AEAV?$List@UAddressOrGUID@RakNet@@@2@PEBDI@Z @2576
?GetAsList@?$Hash@URakNetGUID@RakNet@@PEAURemoteCloudClient@CloudServer@2@$0IAA@$1?ToUint32@12@SAKAEBU12@@Z@DataStructures@@QEBAXAEAV?$List@PEAURemoteCloudClient@CloudServer@RakNet@@@2@AEAV?$List@URakNetGUID@RakNet@@@2@PEBDI@Z @2577
?GetAsList@?$Hash@USystemAddress@RakNet@@UClientState@@$0BAA@$1?SystemAddressHash@@YAKAEBU12@@Z@DataStructures@@QEBAXAEAV?$List@UClientState@@@2@AEAV?$List@USystemAddress@RakNet@@@2@PEBDI@Z @2578
?GetAsList@?$Hash@VRakString@RakNet@@PEAULocalSlot@RPC4@2@$0BAA@$1?ToInteger@12@SAKAEBV12@@Z@DataStructures@@QEBAXAEAV?$List@PEAULocalSlot@RPC4@RakNet@@@2@AEAV?$List@VRakString@RakNet@@@2@PEBDI@Z @2579
?GetAsList@?$Hash@VRakString@RakNet@@PEAUStrAndGuidAndRoom@RelayPlugin@2@$0BPKA@$1?ToInteger@12@SAKAEBV12@@Z@DataStructures@@QEBAXAEAV?$List@PEAUStrAndGuidAndRoom@RelayPlugin@RakNet@@@2@AEAV?$List@VRakString@RakNet@@@2@PEBDI@Z @2580
?GetAsList@?$Hash@VRakString@RakNet@@PEAUTimeAndValueQueue@StatisticsHistory@2@$0CA@$1?ToInteger@12@SAKAEBV12@@Z@DataStructures@@QEBAXAEAV?$List@PEAUTimeAndValueQueue@StatisticsHistory@RakNet@@@2@AEAV?$List@VRakString@RakNet@@@2@PEBDI@Z @2581
?GetAutoCreateConnections@ReplicaManager3@RakNet@@QEBA_NXZ @2582
?GetAutoDestroyConnections@ReplicaManager3@RakNet@@QEBA_NXZ @2583
?GetAutoProcessNewConnections@ConnectionGraph2@RakNet@@QEBA_NXZ @2584
?GetAvailableRowId@Table@DataStructures@@QEBAIXZ @2585
?GetAveragePing@RakPeer@RakNet@@UEAAHUAddressOrGUID@2@@Z @2586
?GetBalancingApplies@TM_Team@RakNet@@QEBA_NXZ @2587
?GetBestClockDifferential@RakPeer@RakNet@@IEBA_KUSystemAddress@2@@Z @2588
?GetBindings@RNS2_Berkley@RakNet@@QEBAPEBURNS2_BerkleyBindParameters@2@XZ @2589
?GetBoundAddress@RakNetSocket2@RakNet@@QEBA?AUSystemAddress@2@XZ @2590
?GetBufferSizeBytes@RakVoice@RakNet@@QEAAHXZ @2591
?GetBuffering@RakVoice@RakNet@@QEAAHXZ @2592
?GetCallCount@RakNetRandomSync@RakNet@@QEBAIXZ @2593
?GetCallbacks@FileList@RakNet@@QEAAXAEAV?$List@PEAVFileListProgress@RakNet@@@DataStructures@@@Z @2594
?GetCallbacks@FileListTransfer@RakNet@@QEAAXAEAV?$List@PEAVFileListProgress@RakNet@@@DataStructures@@@Z @2595
?GetCellValueByIndex@Table@DataStructures@@QEAAXIIPEAD@Z @2596
?GetCellValueByIndex@Table@DataStructures@@QEAAXIIPEADPEAH@Z @2597
?GetCellValueByIndex@Table@DataStructures@@QEAAXIIPEAH@Z @2598
?GetChannelIndexFromName@LogCommandParser@RakNet@@IEAAIPEBD@Z @2599
?GetChannelStatistics@RakVoice@RakNet@@QEAA_NURakNetGUID@2@PEA_J@Z @2600
?GetCharacterCount@RakString@RakNet@@QEAAHD@Z @2601
?GetClientPublicKeyFromSystemAddress@RakPeer@RakNet@@UEBA_NUSystemAddress@2@PEAD@Z @2602
?GetClockDifferential@RakPeer@RakNet@@UEAA_KUAddressOrGUID@2@@Z @2603
?GetClockDifferentialInt@RakPeer@RakNet@@IEBA_KPEAURemoteSystemStruct@12@@Z @2604
?GetColumnCount@Table@DataStructures@@QEBAIXZ @2605
?GetColumnType@Table@DataStructures@@QEBA?AW4ColumnType@12@I@Z @2606
?GetColumns@Table@DataStructures@@QEBAAEBV?$List@UColumnDescriptor@Table@DataStructures@@@2@XZ @2607
?GetCommandParser@RakNetTransport2@RakNet@@UEAAPEAVCommandParserInterface@2@XZ @2608
?GetCommandParser@TelnetTransport@RakNet@@UEAAPEAVCommandParserInterface@2@XZ @2609
?GetCompletedDescription@DynDNS@RakNet@@QEBAPEBDXZ @2610
?GetCompletedResultCode@DynDNS@RakNet@@QEAA?AW4DynDnsResultCode@2@XZ @2611
?GetConnectedHost@FullyConnectedMesh2@RakNet@@QEBA?AURakNetGUID@2@XZ @2612
?GetConnectedHostAddr@FullyConnectedMesh2@RakNet@@QEBA?AUSystemAddress@2@XZ @2613
?GetConnectionAtIndex@ReplicaManager3@RakNet@@QEBAPEAVConnection_RM3@2@IE@Z @2614
?GetConnectionByGUID@ReplicaManager3@RakNet@@QEBAPEAVConnection_RM3@2@URakNetGUID@2@E@Z @2615
?GetConnectionBySystemAddress@ReplicaManager3@RakNet@@QEBAPEAVConnection_RM3@2@AEBUSystemAddress@2@E@Z @2616
?GetConnectionCount@ReplicaManager3@RakNet@@QEBAIE@Z @2617
?GetConnectionCount@TCPInterface@RakNet@@QEBAGXZ @2618
?GetConnectionList@RakPeer@RakNet@@UEBA_NPEAUSystemAddress@2@PEAG@Z @2619
?GetConnectionList@TCPInterface@RakNet@@QEBAXPEAUSystemAddress@2@PEAG@Z @2620
?GetConnectionListForRemoteSystem@ConnectionGraph2@RakNet@@QEAA_NURakNetGUID@2@PEAUSystemAddress@2@PEAU32@PEAI@Z @2621
?GetConnectionRequestIndex@Router2@RakNet@@QEAAIURakNetGUID@2@@Z @2622
?GetConnectionState@RakPeer@RakNet@@UEAA?AW4ConnectionState@2@UAddressOrGUID@2@@Z @2623
?GetConnectionsThatHaveReplicaConstructed@ReplicaManager3@RakNet@@QEAAXPEAVReplica3@2@AEAV?$List@PEAVConnection_RM3@RakNet@@@DataStructures@@E@Z @2624
?GetConstructedReplicas@Connection_RM3@RakNet@@UEAAXAEAV?$List@PEAVReplica3@RakNet@@@DataStructures@@@Z @2625
?GetCreatingSystemGUID@Replica3@RakNet@@QEBA?AURakNetGUID@2@XZ @2626
?GetCurrentTeam@TM_TeamMember@RakNet@@QEBAPEAVTM_Team@2@XZ @2627
?GetCurrentTeamByIndex@TM_TeamMember@RakNet@@QEAAPEAVTM_Team@2@I@Z @2628
?GetCurrentTeamCount@TM_TeamMember@RakNet@@QEBAIXZ @2629
?GetCurrentTeams@TM_TeamMember@RakNet@@QEBAXAEAV?$List@PEAVTM_Team@RakNet@@@DataStructures@@@Z @2630
?GetDLMallocDirectMMap@@YAP6APEAX_K@ZXZ @2631
?GetDLMallocMMap@@YAP6APEAX_K@ZXZ @2632
?GetDLMallocMUnmap@@YAP6AHPEAX_K@ZXZ @2633
?GetData@BitStream@RakNet@@QEBAPEAEXZ @2634
?GetDebugInterface@Router2@RakNet@@QEBAPEAURouter2DebugInterface@2@XZ @2635
?GetDefaultSendParameters@ReplicaManager3@RakNet@@QEBA?AUPRO@2@XZ @2636
?GetDefaultTimeToTrack@StatisticsHistory@RakNet@@QEBA_KXZ @2637
?GetDeltaToCurrent@FileList@RakNet@@QEAAXPEAV12@0PEBD1@Z @2638
?GetDetectionAttemptIndex@NatTypeDetectionServer@RakNet@@IEAAIAEBUSystemAddress@2@@Z @2639
?GetDetectionAttemptIndex@NatTypeDetectionServer@RakNet@@IEAAIURakNetGUID@2@@Z @2640
?GetDownloadWasCompleted@Connection_RM3@RakNet@@QEBA_NXZ @2641
?GetElapsedRuntime@FullyConnectedMesh2@RakNet@@QEAA_KXZ @2642
?GetElementFromKey@?$OrderedList@HPEAUVoiceBuffer@RakNet@@$1?VoiceBufferComp@2@YAHAEBHAEBQEAU12@@Z@DataStructures@@QEBAPEAUVoiceBuffer@RakNet@@AEBHP6AH0AEBQEAU34@@Z@Z @2643
?GetEncoderComplexity@RakVoice@RakNet@@QEAAHXZ @2644
?GetEventHandler@RakNetSocket2@RakNet@@QEBAPEAVRNS2EventHandler@2@XZ @2645
?GetExternalID@RakPeer@RakNet@@UEBA?AUSystemAddress@2@U32@@Z @2646
?GetFileLength@@YAIPEBD@Z @2647
?GetFilePart@IncrementalReadInterface@RakNet@@UEAAIPEBDIIPEAXUFileListNodeContext@@@Z @2648
?GetFilterSetByID@MessageFilter@RakNet@@IEAAPEAUFilterSet@2@H@Z @2649
?GetFilterSetCount@MessageFilter@RakNet@@QEBAIXZ @2650
?GetFilterSetIDByIndex@MessageFilter@RakNet@@QEAAHI@Z @2651
?GetFirstBindableIP@SocketLayer@RakNet@@SA_NQEADH@Z @2652
?GetFirstNonFullTeam@TeamBalancer@RakNet@@IEBAEXZ @2653
?GetFlavorDetails@Rackspace@RakNet@@QEAAXVRakString@2@@Z @2654
?GetFree@@YAP6AXPEAX@ZXZ @2655
?GetFree_Ex@@YAP6AXPEAXPEBDI@ZXZ @2656
?GetGUIDFromIndex@RakPeer@RakNet@@UEAA?AURakNetGUID@2@I@Z @2657
?GetGroupList@RelayPlugin@RakNet@@QEAAXAEBURakNetGUID@2@@Z @2658
?GetGuidFromSystemAddress@RakPeer@RakNet@@UEBAAEBURakNetGUID@2@USystemAddress@2@@Z @2659
?GetHash@CSHA1@@QEBAPEAEXZ @2660
?GetHash@CSHA1@@QEBA_NPEAE@Z @2661
?GetHistoryForKey@StatisticsHistory@RakNet@@QEBA?AW4SHErrorCode@12@_KVRakString@2@PEAPEAUTimeAndValueQueue@12@0@Z @2662
?GetHistorySorted@StatisticsHistory@RakNet@@QEBA_N_KW4SHSortOperation@12@AEAV?$List@PEAUTimeAndValueQueue@StatisticsHistory@RakNet@@@DataStructures@@@Z @2663
?GetHostOrder@FullyConnectedMesh2@RakNet@@QEAAXAEAV?$List@URakNetGUID@RakNet@@@DataStructures@@@Z @2664
?GetHostSystem@FullyConnectedMesh2@RakNet@@QEBA?AURakNetGUID@2@XZ @2665
?GetIPPROTO@SystemAddress@RakNet@@QEBAIXZ @2666
?GetIPVersion@SystemAddress@RakNet@@QEBAEXZ @2667
?GetImageDetails@Rackspace@RakNet@@QEAAXVRakString@2@@Z @2668
?GetIncomingPassword@RakPeer@RakNet@@UEAAXPEADPEAH@Z @2669
?GetIndexAtKey@?$Map@USystemAddress@RakNet@@PEAVByteQueue@DataStructures@@$1??$defaultMapKeyComparison@USystemAddress@RakNet@@@4@YAHAEBU12@0@Z@DataStructures@@QEAAIAEBUSystemAddress@RakNet@@@Z @2670
?GetIndexFromGuid@RakPeer@RakNet@@IEAAHURakNetGUID@2@@Z @2671
?GetIndexFromKey@?$OrderedList@EPEAULocalCallback@RPC4@RakNet@@$1?LocalCallbackComp@23@SAHAEBEAEBQEAU123@@Z@DataStructures@@QEBAIAEBEPEA_NP6AH0AEBQEAULocalCallback@RPC4@RakNet@@@Z@Z @2672
?GetIndexFromKey@?$OrderedList@GPEAUSplitPacketChannel@RakNet@@$1?SplitPacketChannelComp@2@YAHAEBGAEBQEAU12@@Z@DataStructures@@QEBAIAEBGPEA_NP6AH0AEBQEAUSplitPacketChannel@RakNet@@@Z@Z @2673
?GetIndexFromKey@?$OrderedList@GUMapNode@?$Map@GPEAUFileListReceiver@RakNet@@$1??$defaultMapKeyComparison@G@DataStructures@@YAHAEBG0@Z@DataStructures@@$1?NodeComparisonFunc@23@SAHAEBGAEBU123@@Z@DataStructures@@QEBAIAEBGPEA_NP6AH0AEBUMapNode@?$Map@GPEAUFileListReceiver@RakNet@@$1??$defaultMapKeyComparison@G@DataStructures@@YAHAEBG0@Z@2@@Z@Z @2674
?GetIndexFromKey@?$OrderedList@GUServerWithPing@UDPProxyCoordinator@RakNet@@$1?ServerWithPingComp@23@KAHAEBGAEBU123@@Z@DataStructures@@QEBAIAEBGPEA_NP6AH0AEBUServerWithPing@UDPProxyCoordinator@RakNet@@@Z@Z @2675
?GetIndexFromKey@?$OrderedList@HPEAUFilterSet@RakNet@@$1?FilterSetComp@2@YAHAEBHAEBQEAU12@@Z@DataStructures@@QEBAIAEBHPEA_NP6AH0AEBQEAUFilterSet@RakNet@@@Z@Z @2676
?GetIndexFromKey@?$OrderedList@HPEAUReadyEventNode@ReadyEvent@RakNet@@$1?ReadyEventNodeComp@23@SAHAEBHAEBQEAU123@@Z@DataStructures@@QEBAIAEBHPEA_NP6AH0AEBQEAUReadyEventNode@ReadyEvent@RakNet@@@Z@Z @2677
?GetIndexFromKey@?$OrderedList@HPEAUVoiceBuffer@RakNet@@$1?VoiceBufferComp@2@YAHAEBHAEBQEAU12@@Z@DataStructures@@QEBAIAEBHPEA_NP6AH0AEBQEAUVoiceBuffer@RakNet@@@Z@Z @2678
?GetIndexFromKey@?$OrderedList@HUMapNode@?$Map@HPEAVHuffmanEncodingTree@RakNet@@$1??$defaultMapKeyComparison@H@DataStructures@@YAHAEBH0@Z@DataStructures@@$1?NodeComparisonFunc@23@SAHAEBHAEBU123@@Z@DataStructures@@QEBAIAEBHPEA_NP6AH0AEBUMapNode@?$Map@HPEAVHuffmanEncodingTree@RakNet@@$1??$defaultMapKeyComparison@H@DataStructures@@YAHAEBH0@Z@2@@Z@Z @2679
?GetIndexFromKey@?$OrderedList@IPEAUChangedVariablesList@VariableDeltaSerializer@RakNet@@$1?UpdatedVariablesListPtrComp@23@KAHAEBIAEBQEAU123@@Z@DataStructures@@QEBAIAEBIPEA_NP6AH0AEBQEAUChangedVariablesList@VariableDeltaSerializer@RakNet@@@Z@Z @2680
?GetIndexFromKey@?$OrderedList@IPEAUGetRequest@CloudServer@RakNet@@$1?GetRequestComp@23@KAHAEBIAEBQEAU123@@Z@DataStructures@@QEBAIAEBIPEA_NP6AH0AEBQEAUGetRequest@CloudServer@RakNet@@@Z@Z @2681
?GetIndexFromKey@?$OrderedList@IUMapNode@?$Map@IUFLR_MemoryBlock@RakNet@@$1??$defaultMapKeyComparison@I@DataStructures@@YAHAEBI0@Z@DataStructures@@$1?NodeComparisonFunc@23@SAHAEBIAEBU123@@Z@DataStructures@@QEBAIAEBIPEA_NP6AH0AEBUMapNode@?$Map@IUFLR_MemoryBlock@RakNet@@$1??$defaultMapKeyComparison@I@DataStructures@@YAHAEBI0@Z@2@@Z@Z @2682
?GetIndexFromKey@?$OrderedList@PEADUStrAndBool@@$1?StrAndBoolComp@RakNet@@YAHAEBQEADAEBU1@@Z@DataStructures@@QEBAIAEBQEADPEA_NP6AH0AEBUStrAndBool@@@Z@Z @2683
?GetIndexFromKey@?$OrderedList@PEAUFCM2Participant@FullyConnectedMesh2@RakNet@@PEAU123@$1?FCM2ParticipantComp@@YAHAEBQEAU123@0@Z@DataStructures@@QEBAIAEBQEAUFCM2Participant@FullyConnectedMesh2@RakNet@@PEA_NP6AH00@Z@Z @2684
?GetIndexFromKey@?$OrderedList@PEAURow@Table@DataStructures@@PEAU123@$1?RowSort@@YAHAEBQEAU123@0@Z@DataStructures@@QEBAIAEBQEAURow@Table@2@PEA_NP6AH00@Z@Z @2685
?GetIndexFromKey@?$OrderedList@PEAUTimeAndValueQueue@StatisticsHistory@RakNet@@PEAU123@$1?TimeAndValueQueueCompAsc@@YAHAEBQEAU123@0@Z@DataStructures@@QEBAIAEBQEAUTimeAndValueQueue@StatisticsHistory@RakNet@@PEA_NP6AH00@Z@Z @2686
?GetIndexFromKey@?$OrderedList@PEAVReplica3@RakNet@@PEAULastSerializationResult@2@$1?Replica3LSRComp@Connection_RM3@2@SAHAEBQEAV12@AEBQEAU32@@Z@DataStructures@@QEBAIAEBQEAVReplica3@RakNet@@PEA_NP6AH0AEBQEAULastSerializationResult@4@@Z@Z @2687
?GetIndexFromKey@?$OrderedList@PEBDURegisteredCommand@RakNet@@$1?RegisteredCommandComp@2@YAHAEBQEBDAEBU12@@Z@DataStructures@@QEBAIAEBQEBDPEA_NP6AH0AEBURegisteredCommand@RakNet@@@Z@Z @2688
?GetIndexFromKey@?$OrderedList@UCloudKey@RakNet@@PEAUCloudDataList@CloudServer@2@$1?KeyDataListComp@42@KAHAEBU12@AEBQEAU342@@Z@DataStructures@@QEBAIAEBUCloudKey@RakNet@@PEA_NP6AH0AEBQEAUCloudDataList@CloudServer@4@@Z@Z @2689
?GetIndexFromKey@?$OrderedList@UCloudKey@RakNet@@PEAUKeySubscriberID@CloudServer@2@$1?KeySubscriberIDComp@42@KAHAEBU12@AEBQEAU342@@Z@DataStructures@@QEBAIAEBUCloudKey@RakNet@@PEA_NP6AH0AEBQEAUKeySubscriberID@CloudServer@4@@Z@Z @2690
?GetIndexFromKey@?$OrderedList@UCloudKey@RakNet@@U12@$1?CloudKeyComp@2@YAHAEBU12@0@Z@DataStructures@@QEBAIAEBUCloudKey@RakNet@@PEA_NP6AH00@Z@Z @2691
?GetIndexFromKey@?$OrderedList@UConnectionRequestSystem@Router2@RakNet@@U123@$1?ConnectionRequestSystemComp@@YAHAEBU123@0@Z@DataStructures@@QEBAIAEBUConnectionRequestSystem@Router2@RakNet@@PEA_NP6AH00@Z@Z @2692
?GetIndexFromKey@?$OrderedList@UJoinRequestHelper@TM_World@RakNet@@U123@$1?JoinRequestHelperComp@23@SAHAEBU123@0@Z@DataStructures@@QEBAIAEBUJoinRequestHelper@TM_World@RakNet@@PEA_NP6AH00@Z@Z @2693
?GetIndexFromKey@?$OrderedList@ULocalSlotObject@RPC4@RakNet@@U123@$1?LocalSlotObjectComp@23@SAHAEBU123@0@Z@DataStructures@@QEBAIAEBULocalSlotObject@RPC4@RakNet@@PEA_NP6AH00@Z@Z @2694
?GetIndexFromKey@?$OrderedList@URakNetGUID@RakNet@@PEAUBufferedGetResponseFromServer@CloudServer@2@$1?BufferedGetResponseFromServerComp@42@KAHAEBU12@AEBQEAU342@@Z@DataStructures@@QEBAIAEBURakNetGUID@RakNet@@PEA_NP6AH0AEBQEAUBufferedGetResponseFromServer@CloudServer@4@@Z@Z @2695
?GetIndexFromKey@?$OrderedList@URakNetGUID@RakNet@@PEAUCloudData@CloudServer@2@$1?KeyDataPtrComp@42@KAHAEBU12@AEBQEAU342@@Z@DataStructures@@QEBAIAEBURakNetGUID@RakNet@@PEA_NP6AH0AEBQEAUCloudData@CloudServer@4@@Z@Z @2696
?GetIndexFromKey@?$OrderedList@URakNetGUID@RakNet@@PEAURemoteServer@CloudServer@2@$1?RemoteServerComp@42@KAHAEBU12@AEBQEAU342@@Z@DataStructures@@QEBAIAEBURakNetGUID@RakNet@@PEA_NP6AH0AEBQEAURemoteServer@CloudServer@4@@Z@Z @2697
?GetIndexFromKey@?$OrderedList@URakNetGUID@RakNet@@PEAURemoteSystem@ConnectionGraph2@2@$1?RemoteSystemComp@42@SAHAEBU12@AEBQEAU342@@Z@DataStructures@@QEBAIAEBURakNetGUID@RakNet@@PEA_NP6AH0AEBQEAURemoteSystem@ConnectionGraph2@4@@Z@Z @2698
?GetIndexFromKey@?$OrderedList@URakNetGUID@RakNet@@PEAUUser@NatPunchthroughServer@2@$1?NatPunchthroughUserComp@42@SAHAEBU12@AEBQEAU342@@Z@DataStructures@@QEBAIAEBURakNetGUID@RakNet@@PEA_NP6AH0AEBQEAUUser@NatPunchthroughServer@4@@Z@Z @2699
?GetIndexFromKey@?$OrderedList@URakNetGUID@RakNet@@PEAUVoiceChannel@2@$1?VoiceChannelComp@2@YAHAEBU12@AEBQEAU32@@Z@DataStructures@@QEBAIAEBURakNetGUID@RakNet@@PEA_NP6AH0AEBQEAUVoiceChannel@4@@Z@Z @2700
?GetIndexFromKey@?$OrderedList@URakNetGUID@RakNet@@U12@$1??$defaultOrderedListComparison@URakNetGUID@RakNet@@U12@@DataStructures@@YAHAEBU12@0@Z@DataStructures@@QEBAIAEBURakNetGUID@RakNet@@PEA_NP6AH00@Z@Z @2701
?GetIndexFromKey@?$OrderedList@URakNetGUID@RakNet@@URemoteSystem@ReadyEvent@2@$1?RemoteSystemCompByGuid@42@SAHAEBU12@AEBU342@@Z@DataStructures@@QEBAIAEBURakNetGUID@RakNet@@PEA_NP6AH0AEBURemoteSystem@ReadyEvent@4@@Z@Z @2702
?GetIndexFromKey@?$OrderedList@USenderAndTargetAddress@UDPProxyCoordinator@RakNet@@PEAUForwardingRequest@23@$1?ForwardingRequestComp@23@KAHAEBU123@AEBQEAU423@@Z@DataStructures@@QEBAIAEBUSenderAndTargetAddress@UDPProxyCoordinator@RakNet@@PEA_NP6AH0AEBQEAUForwardingRequest@45@@Z@Z @2703
?GetIndexFromKey@?$OrderedList@USystemAddress@RakNet@@U12@$1??$defaultOrderedListComparison@USystemAddress@RakNet@@U12@@DataStructures@@YAHAEBU12@0@Z@DataStructures@@QEBAIAEBUSystemAddress@RakNet@@PEA_NP6AH00@Z@Z @2704
?GetIndexFromKey@?$OrderedList@USystemAddress@RakNet@@UMapNode@?$Map@USystemAddress@RakNet@@PEAVByteQueue@DataStructures@@$1??$defaultMapKeyComparison@USystemAddress@RakNet@@@4@YAHAEBU12@0@Z@DataStructures@@$1?NodeComparisonFunc@45@SAHAEBU12@AEBU345@@Z@DataStructures@@QEBAIAEBUSystemAddress@RakNet@@PEA_NP6AH0AEBUMapNode@?$Map@USystemAddress@RakNet@@PEAVByteQueue@DataStructures@@$1??$defaultMapKeyComparison@USystemAddress@RakNet@@@4@YAHAEBU12@0@Z@2@@Z@Z @2705
?GetIndexFromKey@?$OrderedList@USystemAddressAndGuid@ConnectionGraph2@RakNet@@U123@$1?SystemAddressAndGuidComp@23@SAHAEBU123@0@Z@DataStructures@@QEBAIAEBUSystemAddressAndGuid@ConnectionGraph2@RakNet@@PEA_NP6AH00@Z@Z @2706
?GetIndexFromKey@?$OrderedList@Uuint24_t@RakNet@@U?$RangeNode@Uuint24_t@RakNet@@@DataStructures@@$1??$RangeNodeComp@Uuint24_t@RakNet@@@4@YAHAEBU12@AEBU34@@Z@DataStructures@@QEBAIAEBUuint24_t@RakNet@@PEA_NP6AH0AEBU?$RangeNode@Uuint24_t@RakNet@@@2@@Z@Z @2707
?GetIndexFromKey@?$OrderedList@VRakString@RakNet@@V12@$1??$defaultOrderedListComparison@VRakString@RakNet@@V12@@DataStructures@@YAHAEBV12@0@Z@DataStructures@@QEBAIAEBVRakString@RakNet@@PEA_NP6AH00@Z@Z @2708
?GetIndexFromKey@?$OrderedList@_KPEAUTrackedObject@StatisticsHistory@RakNet@@$1?TrackedObjectComp@23@SAHAEB_KAEBQEAU123@@Z@DataStructures@@QEBAIAEB_KPEA_NP6AH0AEBQEAUTrackedObject@StatisticsHistory@RakNet@@@Z@Z @2709
?GetIndexFromSystemAddress@RakPeer@RakNet@@IEBAHUSystemAddress@2@_N@Z @2710
?GetIndexFromSystemAddress@RakPeer@RakNet@@UEBAHUSystemAddress@2@@Z @2711
?GetIndexOf@?$BPlusTree@IPEAURow@Table@DataStructures@@$0BA@@DataStructures@@IEBA_NIPEAU?$Page@IPEAURow@Table@DataStructures@@$0BA@@2@PEAH@Z @2712
?GetIndexOf@?$Hash@UAddressOrGUID@RakNet@@UFilteredSystem@2@$0IAA@$1?ToInteger@12@SAKAEBU12@@Z@DataStructures@@QEAA?AUHashIndex@2@UAddressOrGUID@RakNet@@@Z @2713
?GetIndexOf@?$Hash@URakNetGUID@RakNet@@PEAURemoteCloudClient@CloudServer@2@$0IAA@$1?ToUint32@12@SAKAEBU12@@Z@DataStructures@@QEAA?AUHashIndex@2@URakNetGUID@RakNet@@@Z @2714
?GetIndexOf@?$Hash@USystemAddress@RakNet@@UClientState@@$0BAA@$1?SystemAddressHash@@YAKAEBU12@@Z@DataStructures@@QEAA?AUHashIndex@2@USystemAddress@RakNet@@@Z @2715
?GetIndexOf@?$Hash@VRakString@RakNet@@P6AXPEAVBitStream@2@0PEAUPacket@2@@Z$0EA@$1?ToInteger@12@SAKAEBV12@@Z@DataStructures@@QEAA?AUHashIndex@2@VRakString@RakNet@@@Z @2716
?GetIndexOf@?$Hash@VRakString@RakNet@@P6AXPEAVBitStream@2@PEAUPacket@2@@Z$0EA@$1?ToInteger@12@SAKAEBV12@@Z@DataStructures@@QEAA?AUHashIndex@2@VRakString@RakNet@@@Z @2717
?GetIndexOf@?$Hash@VRakString@RakNet@@PEAULocalSlot@RPC4@2@$0BAA@$1?ToInteger@12@SAKAEBV12@@Z@DataStructures@@QEAA?AUHashIndex@2@VRakString@RakNet@@@Z @2718
?GetIndexOf@?$Hash@VRakString@RakNet@@PEAUStrAndGuidAndRoom@RelayPlugin@2@$0BPKA@$1?ToInteger@12@SAKAEBV12@@Z@DataStructures@@QEAA?AUHashIndex@2@VRakString@RakNet@@@Z @2719
?GetIndexOf@?$Hash@VRakString@RakNet@@PEAUTimeAndValueQueue@StatisticsHistory@2@$0CA@$1?ToInteger@12@SAKAEBV12@@Z@DataStructures@@QEAA?AUHashIndex@2@VRakString@RakNet@@@Z @2720
?GetIndexOf@?$Hash@VRakString@RakNet@@V12@$0BA@$1?ToInteger@12@SAKAEBV12@@Z@DataStructures@@QEAA?AUHashIndex@2@VRakString@RakNet@@@Z @2721
?GetIndexOf@?$Hash@_KPEAVTM_Team@RakNet@@$0BAA@$1?ToUint32@12@SAKAEB_K@Z@DataStructures@@QEAA?AUHashIndex@2@_K@Z @2722
?GetIndexOf@?$Hash@_KPEAVTM_TeamMember@RakNet@@$0BAA@$1?ToUint32@12@SAKAEB_K@Z@DataStructures@@QEAA?AUHashIndex@2@_K@Z @2723
?GetIndexOf@?$List@H@DataStructures@@QEBAIAEBH@Z @2724
?GetIndexOf@?$List@PEAUConnectionAttempt@NatPunchthroughServer@RakNet@@@DataStructures@@QEBAIAEBQEAUConnectionAttempt@NatPunchthroughServer@RakNet@@@Z @2725
?GetIndexOf@?$List@PEAVCloudServerQueryFilter@RakNet@@@DataStructures@@QEBAIAEBQEAVCloudServerQueryFilter@RakNet@@@Z @2726
?GetIndexOf@?$List@PEAVConnection_RM3@RakNet@@@DataStructures@@QEBAIAEBQEAVConnection_RM3@RakNet@@@Z @2727
?GetIndexOf@?$List@PEAVFileListProgress@RakNet@@@DataStructures@@QEBAIAEBQEAVFileListProgress@RakNet@@@Z @2728
?GetIndexOf@?$List@PEAVPluginInterface2@RakNet@@@DataStructures@@QEBAIAEBQEAVPluginInterface2@RakNet@@@Z @2729
?GetIndexOf@?$List@PEAVRackspace2EventCallback@RakNet@@@DataStructures@@QEBAIAEBQEAVRackspace2EventCallback@RakNet@@@Z @2730
?GetIndexOf@?$List@PEAVReplica3@RakNet@@@DataStructures@@QEBAIAEBQEAVReplica3@RakNet@@@Z @2731
?GetIndexOf@?$List@PEAVTM_Team@RakNet@@@DataStructures@@QEBAIAEBQEAVTM_Team@RakNet@@@Z @2732
?GetIndexOf@?$List@PEAVTM_TeamMember@RakNet@@@DataStructures@@QEBAIAEBQEAVTM_TeamMember@RakNet@@@Z @2733
?GetIndexOf@?$List@URakNetGUID@RakNet@@@DataStructures@@QEBAIAEBURakNetGUID@RakNet@@@Z @2734
?GetIndexOf@?$List@USystemAddress@RakNet@@@DataStructures@@QEBAIAEBUSystemAddress@RakNet@@@Z @2735
?GetIndexOf@?$List@_K@DataStructures@@QEBAIAEB_K@Z @2736
?GetInputAtIndex@?$ThreadPool@UThreadData@FileListTransfer@RakNet@@H@@QEAA?AUThreadData@FileListTransfer@RakNet@@I@Z @2737
?GetInstance@BitStream@RakNet@@SAPEAV12@XZ @2738
?GetInstance@CloudClient@RakNet@@SAPEAV12@XZ @2739
?GetInstance@ConnectionGraph2@RakNet@@SAPEAV12@XZ @2740
?GetInstance@ConsoleServer@RakNet@@SAPEAV12@XZ @2741
?GetInstance@DataCompressor@RakNet@@SAPEAV12@XZ @2742
?GetInstance@DirectoryDeltaTransfer@RakNet@@SAPEAV12@XZ @2743
?GetInstance@EmailSender@RakNet@@SAPEAV12@XZ @2744
?GetInstance@FLP_Printf@RakNet@@SAPEAV12@XZ @2745
?GetInstance@FileList@RakNet@@SAPEAV12@XZ @2746
?GetInstance@FileListProgress@RakNet@@SAPEAV12@XZ @2747
?GetInstance@FileListTransfer@RakNet@@SAPEAV12@XZ @2748
?GetInstance@FullyConnectedMesh2@RakNet@@SAPEAV12@XZ @2749
?GetInstance@HTTPConnection2@RakNet@@SAPEAV12@XZ @2750
?GetInstance@HTTPConnection@RakNet@@SAPEAV12@XZ @2751
?GetInstance@LogCommandParser@RakNet@@SAPEAV12@XZ @2752
?GetInstance@MessageFilter@RakNet@@SAPEAV12@XZ @2753
?GetInstance@NatPunchthroughClient@RakNet@@SAPEAV12@XZ @2754
?GetInstance@NatPunchthroughServer@RakNet@@SAPEAV12@XZ @2755
?GetInstance@NatTypeDetectionClient@RakNet@@SAPEAV12@XZ @2756
?GetInstance@NatTypeDetectionServer@RakNet@@SAPEAV12@XZ @2757
?GetInstance@NetworkIDManager@RakNet@@SAPEAV12@XZ @2758
?GetInstance@PacketLogger@RakNet@@SAPEAV12@XZ @2759
?GetInstance@PacketizedTCP@RakNet@@SAPEAV12@XZ @2760
?GetInstance@RPC4@RakNet@@SAPEAV12@XZ @2761
?GetInstance@RakNetCommandParser@RakNet@@SAPEAV12@XZ @2762
?GetInstance@RakNetTransport2@RakNet@@SAPEAV12@XZ @2763
?GetInstance@RakPeerInterface@RakNet@@SAPEAV12@XZ @2764
?GetInstance@RelayPlugin@RakNet@@SAPEAV12@XZ @2765
?GetInstance@Router2@RakNet@@SAPEAV12@XZ @2766
?GetInstance@StatisticsHistory@RakNet@@SAPEAV12@XZ @2767
?GetInstance@StatisticsHistoryPlugin@RakNet@@SAPEAV12@XZ @2768
?GetInstance@TCPInterface@RakNet@@SAPEAV12@XZ @2769
?GetInstance@TM_Team@RakNet@@SAPEAV12@XZ @2770
?GetInstance@TM_TeamMember@RakNet@@SAPEAV12@XZ @2771
?GetInstance@TeamBalancer@RakNet@@SAPEAV12@XZ @2772
?GetInstance@TeamManager@RakNet@@SAPEAV12@XZ @2773
?GetInstance@TelnetTransport@RakNet@@SAPEAV12@XZ @2774
?GetInstance@UDPProxyClient@RakNet@@SAPEAV12@XZ @2775
?GetInstance@UDPProxyCoordinator@RakNet@@SAPEAV12@XZ @2776
?GetInstance@UDPProxyServer@RakNet@@SAPEAV12@XZ @2777
?GetInternalID@RakPeer@RakNet@@UEBA?AUSystemAddress@2@U32@H@Z @2778
?GetIs3D@RakVoice@RakNet@@QEAA_NXZ @2779
?GetJoinPermissions@TM_Team@RakNet@@QEBAEXZ @2780
?GetJoinsInProgressIndex@FullyConnectedMesh2@RakNet@@IEBAIURakNetGUID@2@@Z @2781
?GetLargestPingAmongConnectedSystems@Router2@RakNet@@IEBAHXZ @2782
?GetLastPing@RakPeer@RakNet@@UEBAHUAddressOrGUID@2@@Z @2783
?GetLastTeams@TM_TeamMember@RakNet@@QEBAXAEAV?$List@PEAVTM_Team@RakNet@@@DataStructures@@@Z @2784
?GetLeafFromKey@?$BPlusTree@IPEAURow@Table@DataStructures@@$0BA@@DataStructures@@IEBAPEAU?$Page@IPEAURow@Table@DataStructures@@$0BA@@2@I@Z @2785
?GetLength@RakString@RakNet@@QEBA_KXZ @2786
?GetLength@RakWString@RakNet@@QEBA_KXZ @2787
?GetLengthUTF8@RakString@RakNet@@QEBA_KXZ @2788
?GetListHead@?$BPlusTree@IPEAURow@Table@DataStructures@@$0BA@@DataStructures@@QEBAPEAU?$Page@IPEAURow@Table@DataStructures@@$0BA@@2@XZ @2789
?GetListHead@Table@DataStructures@@QEAAPEAU?$Page@IPEAURow@Table@DataStructures@@$0BA@@2@XZ @2790
?GetLocalIP@RakPeer@RakNet@@UEAAPEBDI@Z @2791
?GetLocalPort@SocketLayer@RakNet@@SAG_K@Z @2792
?GetLocalSlotIndex@RPC4@RakNet@@IEAA?AUHashIndex@DataStructures@@PEBD@Z @2793
?GetLocalTime@PacketLogger@RakNet@@IEAAXQEAD@Z @2794
?GetLoopbackAddress@RakPeer@RakNet@@IEBA?AUSystemAddress@2@XZ @2795
?GetLowestAveragePingSystem@ConnectionGraph2@RakNet@@QEBA?AURakNetGUID@2@XZ @2796
?GetLowestPing@RakPeer@RakNet@@UEBAHUAddressOrGUID@2@@Z @2797
?GetMTUSize@RakPeer@RakNet@@UEBAHUSystemAddress@2@@Z @2798
?GetMalloc@@YAP6APEAX_K@ZXZ @2799
?GetMalloc_Ex@@YAP6APEAX_KPEBDI@ZXZ @2800
?GetMaxDistance@RakVoice@RakNet@@QEAAMXZ @2801
?GetMaxForwardEntries@UDPForwarder@RakNet@@QEBAHXZ @2802
?GetMaximumIncomingConnections@RakPeer@RakNet@@UEBAIXZ @2803
?GetMaximumNumberOfPeers@RakPeer@RakNet@@UEBAIXZ @2804
?GetMemberIndex@TeamBalancer@RakNet@@IEBAI_KURakNetGUID@2@@Z @2805
?GetMemberIndexToSwitchTeams@TeamBalancer@RakNet@@IEAAIAEBV?$List@E@DataStructures@@E@Z @2806
?GetMemberLimit@TM_Team@RakNet@@QEBAGXZ @2807
?GetMemberLimitSetting@TM_Team@RakNet@@QEBAGXZ @2808
?GetMemberWithRequestedSingleTeamSwitch@TM_Team@RakNet@@IEAAIPEAV12@@Z @2809
?GetMinDistance@RakVoice@RakNet@@QEAAMXZ @2810
?GetMinMaxTeamMembers@TeamBalancer@RakNet@@IEAAXAEAH0@Z @2811
?GetMyBoundAddress@RakPeer@RakNet@@UEAA?AUSystemAddress@2@H@Z @2812
?GetMyGUID@RakPeer@RakNet@@UEBA?BURakNetGUID@2@XZ @2813
?GetMyGUIDUnified@PluginInterface2@RakNet@@QEBA?AURakNetGUID@2@XZ @2814
?GetMyIP@RNS2_Windows@RakNet@@SAXQEAUSystemAddress@2@@Z @2815
?GetMyIP@RakNetSocket2@RakNet@@SAXQEAUSystemAddress@2@@Z @2816
?GetMyIP@SocketLayer@RakNet@@SAXQEAUSystemAddress@2@@Z @2817
?GetMyPublicIP@DynDNS@RakNet@@QEBAPEADXZ @2818
?GetMyTeam@TeamBalancer@RakNet@@QEBAE_K@Z @2819
?GetName@LogCommandParser@RakNet@@UEBAPEBDXZ @2820
?GetName@RakNetCommandParser@RakNet@@UEBAPEBDXZ @2821
?GetNetworkID@NetworkIDObject@RakNet@@UEAA_KXZ @2822
?GetNetworkID@TM_Team@RakNet@@QEBA_KXZ @2823
?GetNetworkID@TM_TeamMember@RakNet@@QEBA_KXZ @2824
?GetNetworkIDManager@NetworkIDObject@RakNet@@UEBAPEAVNetworkIDManager@2@XZ @2825
?GetNetworkIDManager@ReplicaManager3@RakNet@@QEBAPEAVNetworkIDManager@2@E@Z @2826
?GetNewNetworkID@NetworkIDManager@RakNet@@IEAA_KXZ @2827
?GetNextDefaultTeam@TeamBalancer@RakNet@@IEAAEXZ @2828
?GetNextSendReceipt@RakPeer@RakNet@@UEAAIXZ @2829
?GetNoTeamId@TM_TeamMember@RakNet@@QEBAEXZ @2830
?GetNonce@NonceGenerator@TwoWayAuthentication@RakNet@@QEAAXQEADPEAGUAddressOrGUID@3@@Z @2831
?GetNonceById@NonceGenerator@TwoWayAuthentication@RakNet@@QEAA_NQEADGUAddressOrGUID@3@_N@Z @2832
?GetNumberOfAddresses@RakPeer@RakNet@@UEAAIXZ @2833
?GetNumberOfBitsAllocated@BitStream@RakNet@@QEBAIXZ @2834
?GetNumberOfBitsUsed@BitStream@RakNet@@QEBAIXZ @2835
?GetNumberOfBytesUsed@BitStream@RakNet@@QEBAIXZ @2836
?GetNumberOfFilesForUpload@DirectoryDeltaTransfer@RakNet@@QEBAIXZ @2837
?GetNumberOfRemoteInitiatedConnections@RakPeer@RakNet@@IEBAIXZ @2838
?GetNumberOfUnreadBits@BitStream@RakNet@@QEBAIXZ @2839
?GetObjectAtIndex@StatisticsHistory@RakNet@@QEBAPEAUTrackedObjectData@12@I@Z @2840
?GetObjectCount@StatisticsHistory@RakNet@@QEBAIXZ @2841
?GetObjectIndex@StatisticsHistory@RakNet@@QEBAI_K@Z @2842
?GetOfflinePingResponse@RakPeer@RakNet@@UEAAXPEAPEADPEAI@Z @2843
?GetOperationOfTypeIndex@Rackspace@RakNet@@IEAAIW4RackspaceOperationType@2@@Z @2844
?GetOrAllocateCloudDataList@CloudServer@RakNet@@IEAAPEAUCloudDataList@12@UCloudKey@2@PEA_NAEAI@Z @2845
?GetOutgoingDataBufferSize@TCPInterface@RakNet@@QEBAIUSystemAddress@2@@Z @2846
?GetOverpopulatedTeams@TeamBalancer@RakNet@@IEAAXAEAV?$List@E@DataStructures@@H@Z @2847
?GetOwner@TM_Team@RakNet@@QEBAPEAXXZ @2848
?GetOwner@TM_TeamMember@RakNet@@QEBAPEAXXZ @2849
?GetParent@NetworkIDObject@RakNet@@UEBAPEAXXZ @2850
?GetParticipantCount@FullyConnectedMesh2@RakNet@@QEBAIXZ @2851
?GetParticipantCount@FullyConnectedMesh2@RakNet@@QEBAXPEAI@Z @2852
?GetParticipantList@ConnectionGraph2@RakNet@@QEAAXAEAV?$OrderedList@URakNetGUID@RakNet@@U12@$1??$defaultOrderedListComparison@URakNetGUID@RakNet@@U12@@DataStructures@@YAHAEBU12@0@Z@DataStructures@@@Z @2853
?GetParticipantList@FullyConnectedMesh2@RakNet@@QEAAXAEAV?$List@URakNetGUID@RakNet@@@DataStructures@@@Z @2854
?GetPendingFilesToAddress@FileListTransfer@RakNet@@QEAAIUSystemAddress@2@@Z @2855
?GetPingBetweenSystems@ConnectionGraph2@RakNet@@QEBAGURakNetGUID@2@0@Z @2856
?GetPort@SystemAddress@RakNet@@QEBAGXZ @2857
?GetPortNetworkOrder@SystemAddress@RakNet@@QEBAGXZ @2858
?GetPunchthroughConfiguration@NatPunchthroughClient@RakNet@@QEAAPEAUPunchthroughConfiguration@2@XZ @2859
?GetRakNetGUID@Connection_RM3@RakNet@@QEBA?AURakNetGUID@2@XZ @2860
?GetRakNetSocketFromUserConnectionSocketIndex@RakPeer@RakNet@@IEBAII@Z @2861
?GetRakPeerInterface@PluginInterface2@RakNet@@QEBAPEAVRakPeerInterface@2@XZ @2862
?GetRakPeerInterface@RakVoice@RakNet@@QEBAPEAVRakPeerInterface@2@XZ @2863
?GetReadOffset@BitStream@RakNet@@QEBAIXZ @2864
?GetRealloc@@YAP6APEAXPEAX_K@ZXZ @2865
?GetRealloc_Ex@@YAP6APEAXPEAX_KPEBDI@ZXZ @2866
?GetReceiveBufferSize@RakPeer@RakNet@@UEAAIXZ @2867
?GetRefCount@ReferenceCounter@RakNet@@QEBAHXZ @2868
?GetReferencedReplicaList@ReplicaManager3@RakNet@@QEAAXAEAV?$List@PEAVReplica3@RakNet@@@DataStructures@@E@Z @2869
?GetRegisteredCommand@CommandParserInterface@RakNet@@UEAA_NPEBDPEAURegisteredCommand@2@@Z @2870
?GetRemoteServers@CloudServer@RakNet@@QEAAXAEAV?$List@URakNetGUID@RakNet@@@DataStructures@@@Z @2871
?GetRemoteSystem@RakPeer@RakNet@@IEBAPEAURemoteSystemStruct@12@AEBUSystemAddress@2@@Z @2872
?GetRemoteSystem@RakPeer@RakNet@@IEBAPEAURemoteSystemStruct@12@UAddressOrGUID@2@_N1@Z @2873
?GetRemoteSystemFromGUID@RakPeer@RakNet@@IEBAPEAURemoteSystemStruct@12@URakNetGUID@2@_N@Z @2874
?GetRemoteSystemFromSystemAddress@RakPeer@RakNet@@IEBAPEAURemoteSystemStruct@12@USystemAddress@2@_N1@Z @2875
?GetRemoteSystemHistoryListIndex@VariableDeltaSerializer@RakNet@@IEAAIURakNetGUID@2@@Z @2876
?GetRemoteSystemIndex@RakPeer@RakNet@@IEBAIAEBUSystemAddress@2@@Z @2877
?GetRemoteSystemVariableHistory@VariableDeltaSerializer@RakNet@@IEAAPEAURemoteSystemVariableHistory@12@URakNetGUID@2@@Z @2878
?GetReplicaAtIndex@ReplicaManager3@RakNet@@QEAAPEAVReplica3@2@IE@Z @2879
?GetReplicaByNetworkID@ReplicaManager3@RakNet@@IEAAPEAVReplica3@2@_KE@Z @2880
?GetReplicaCount@ReplicaManager3@RakNet@@QEBAIE@Z @2881
?GetReplicasCreatedByGuid@ReplicaManager3@RakNet@@QEAAXURakNetGUID@2@AEAV?$List@PEAVReplica3@RakNet@@@DataStructures@@E@Z @2882
?GetReplicasCreatedByMe@ReplicaManager3@RakNet@@QEAAXAEAV?$List@PEAVReplica3@RakNet@@@DataStructures@@E@Z @2883
?GetRequestComp@CloudServer@RakNet@@KAHAEBIAEBQEAUGetRequest@12@@Z @2884
?GetRequestedSpecificTeams@TM_TeamMember@RakNet@@QEBAXAEAV?$List@PEAVTM_Team@RakNet@@@DataStructures@@@Z @2885
?GetRequestedTeam@TM_TeamMember@RakNet@@QEBA?AUTeamSelection@2@XZ @2886
?GetRequestedTeamCount@TM_TeamMember@RakNet@@QEBAIXZ @2887
?GetRequestedTeamIndex@TM_TeamMember@RakNet@@QEBAIPEAVTM_Team@2@@Z @2888
?GetResponse@EmailSender@RakNet@@IEAAPEBDPEAVTCPInterface@2@AEBUSystemAddress@2@_N@Z @2889
?GetResponse@HTTPConnection2@RakNet@@QEAA_NAEAVRakString@2@00AEAUSystemAddress@2@AEAH@Z @2890
?GetResponse@HTTPConnection2@RakNet@@QEAA_NAEAVRakString@2@00AEAUSystemAddress@2@AEAHPEAPEAX@Z @2891
?GetRowByID@Table@DataStructures@@QEBAPEAURow@12@I@Z @2892
?GetRowByIndex@Table@DataStructures@@QEBAPEAURow@12@IPEAI@Z @2893
?GetRowCount@Table@DataStructures@@QEBAIXZ @2894
?GetRows@Table@DataStructures@@QEBAAEBV?$BPlusTree@IPEAURow@Table@DataStructures@@$0BA@@2@XZ @2895
?GetSampleRate@RakVoice@RakNet@@QEAAHXZ @2896
?GetSeed@RakNetRandomSync@RakNet@@QEBAIXZ @2897
?GetSendFramePeriod@RakVoice@RakNet@@QEAAHXZ @2898
?GetServerAddress@HTTPConnection@RakNet@@QEBA?AUSystemAddress@2@XZ @2899
?GetServerDetails@Rackspace@RakNet@@QEAAXVRakString@2@@Z @2900
?GetServerVOIPEnable@RakVoice@RakNet@@QEAA_NXZ @2901
?GetServersWithUploadedKeys@CloudServer@RakNet@@IEAAXAEAV?$List@UCloudKey@RakNet@@@DataStructures@@AEAV?$List@PEAURemoteServer@CloudServer@RakNet@@@4@@Z @2902
?GetSharedIPGroupDetails@Rackspace@RakNet@@QEAAXVRakString@2@@Z @2903
?GetSizeToAllocate@RakString@RakNet@@SA_K_K@Z @2904
?GetSmallestNonFullTeam@TeamBalancer@RakNet@@IEBAEXZ @2905
?GetSocket@RNS2_Berkley@RakNet@@QEBAHXZ @2906
?GetSocket@RakPeer@RakNet@@UEAAPEAVRakNetSocket2@2@USystemAddress@2@@Z @2907
?GetSocketLayerOverride@RNS2_Windows@RakNet@@QEAAPEAVSocketLayerOverride@2@XZ @2908
?GetSocketType@RakNetSocket2@RakNet@@QEBA?AW4RNS2Type@2@XZ @2909
?GetSockets@RakPeer@RakNet@@UEAAXAEAV?$List@PEAVRakNetSocket2@RakNet@@@DataStructures@@@Z @2910
?GetSplitMessageProgressInterval@RakPeer@RakNet@@UEBAHXZ @2911
?GetState@HTTPConnection@RakNet@@QEBAHXZ @2912
?GetStatistics@RakPeer@RakNet@@UEAAPEAURakNetStatistics@2@USystemAddress@2@PEAU32@@Z @2913
?GetStatistics@RakPeer@RakNet@@UEAA_NIPEAURakNetStatistics@2@@Z @2914
?GetStatisticsList@RakPeer@RakNet@@UEAAXAEAV?$List@USystemAddress@RakNet@@@DataStructures@@AEAV?$List@URakNetGUID@RakNet@@@4@AEAV?$List@URakNetStatistics@RakNet@@@4@@Z @2915
?GetSubNetForSocketAndIp@SocketLayer@RakNet@@SA?AVRakString@2@_KV32@@Z @2916
?GetSystemAddress@Connection_RM3@RakNet@@QEBA?AUSystemAddress@2@XZ @2917
?GetSystemAddress@SocketLayer@RakNet@@SAX_KPEAUSystemAddress@2@@Z @2918
?GetSystemAddressFromGuid@RakPeer@RakNet@@UEBA?AUSystemAddress@2@URakNetGUID@2@@Z @2919
?GetSystemAddressFromIndex@RakPeer@RakNet@@UEAA?AUSystemAddress@2@I@Z @2920
?GetSystemAddressIPV4@RNS2_Berkley@RakNet@@KAXHPEAUSystemAddress@2@@Z @2921
?GetSystemAddressIPV4And6@RNS2_Berkley@RakNet@@KAXHPEAUSystemAddress@2@@Z @2922
?GetSystemAddress_Old@SocketLayer@RakNet@@SAX_KPEAUSystemAddress@2@@Z @2923
?GetSystemCount@MessageFilter@RakNet@@QEBAIH@Z @2924
?GetSystemFilterSet@MessageFilter@RakNet@@QEAAHUAddressOrGUID@2@@Z @2925
?GetSystemIndex@AddressOrGUID@RakNet@@QEBAGXZ @2926
?GetSystemIndexFromGuid@RakPeer@RakNet@@IEBAIURakNetGUID@2@@Z @2927
?GetSystemList@RakPeer@RakNet@@UEBAXAEAV?$List@USystemAddress@RakNet@@@DataStructures@@AEAV?$List@URakNetGUID@RakNet@@@4@@Z @2928
?GetTM_World@TM_Team@RakNet@@QEBAPEAVTM_World@2@XZ @2929
?GetTM_World@TM_TeamMember@RakNet@@QEBAPEAVTM_World@2@XZ @2930
?GetTeamMemberByIndex@TM_Team@RakNet@@QEBAPEAVTM_TeamMember@2@I@Z @2931
?GetTeamMembers@TM_Team@RakNet@@QEBAXAEAV?$List@PEAVTM_TeamMember@RakNet@@@DataStructures@@@Z @2932
?GetTeamMembersCount@TM_Team@RakNet@@QEBAIXZ @2933
?GetTime@RakNet@@YA_KXZ @2934
?GetTimeMS@RakNet@@YAIXZ @2935
?GetTimeUS@RakNet@@YA_KXZ @2936
?GetTimeoutTime@RakPeer@RakNet@@UEAAIUSystemAddress@2@@Z @2937
?GetTotalConnectionCount@FullyConnectedMesh2@RakNet@@QEBAIXZ @2938
?GetUPNPPortMappings@NatPunchthroughClient@RakNet@@QEAAXPEAD0AEBUSystemAddress@2@@Z @2939
?GetUniqueKeyList@StatisticsHistory@RakNet@@QEAAXAEAV?$List@VRakString@RakNet@@@DataStructures@@@Z @2940
?GetUsedForwardEntries@UDPForwarder@RakNet@@QEBAHXZ @2941
?GetUserConnectionSocketIndex@RakNetSocket2@RakNet@@QEBAIXZ @2942
?GetValue@LocklessUint32_t@RakNet@@QEBAIXZ @2943
?GetVarsWrittenPerRemoteSystemListIndex@VariableDeltaSerializer@RakNet@@IEAAIURakNetGUID@2@@Z @2944
?GetVerifiedJoinAcceptedAdditionalData@FullyConnectedMesh2@RakNet@@UEAAXPEAUPacket@2@PEA_NAEAV?$List@URakNetGUID@RakNet@@@DataStructures@@PEAVBitStream@2@@Z @2945
?GetVerifiedJoinInProgressMemberIndex@FullyConnectedMesh2@RakNet@@IEAAIUAddressOrGUID@2@PEAUVerifiedJoinInProgress@12@@Z @2946
?GetVerifiedJoinRejectedAdditionalData@FullyConnectedMesh2@RakNet@@UEAAXPEAUPacket@2@PEAVBitStream@2@@Z @2947
?GetVerifiedJoinRequiredProcessingList@FullyConnectedMesh2@RakNet@@UEAAXURakNetGUID@2@AEAV?$List@USystemAddress@RakNet@@@DataStructures@@AEAV?$List@URakNetGUID@RakNet@@@5@AEAV?$List@PEAVBitStream@RakNet@@@5@@Z @2948
?GetWorldAtIndex@TeamManager@RakNet@@QEBAPEAVTM_World@2@I@Z @2949
?GetWorldCount@TeamManager@RakNet@@QEBAIXZ @2950
?GetWorldIndex@TM_Team@RakNet@@QEBAIXZ @2951
?GetWorldIndex@TM_TeamMember@RakNet@@QEBAIXZ @2952
?GetWorldWithId@TeamManager@RakNet@@QEBAPEAVTM_World@2@E@Z @2953
?GetWriteOffset@BitStream@RakNet@@QEBAIXZ @2954
?GreaterThan@RakNet@@YA_N_K0@Z @2955
?HMAC@CSHA1@@SAXPEAEH0HQEAE@Z @2956
?Has@?$Map@GPEAUFileListReceiver@RakNet@@$1??$defaultMapKeyComparison@G@DataStructures@@YAHAEBG0@Z@DataStructures@@QEBA_NAEBG@Z @2957
?Has@?$Map@HPEAVHuffmanEncodingTree@RakNet@@$1??$defaultMapKeyComparison@H@DataStructures@@YAHAEBH0@Z@DataStructures@@QEBA_NAEBH@Z @2958
?Has@?$Map@IUFLR_MemoryBlock@RakNet@@$1??$defaultMapKeyComparison@I@DataStructures@@YAHAEBI0@Z@DataStructures@@QEBA_NAEBI@Z @2959
?Has@?$Map@USystemAddress@RakNet@@PEAVByteQueue@DataStructures@@$1??$defaultMapKeyComparison@USystemAddress@RakNet@@@4@YAHAEBU12@0@Z@DataStructures@@QEBA_NAEBUSystemAddress@RakNet@@@Z @2960
?HasBadResponse@HTTPConnection@RakNet@@QEAA_NPEAHPEAVRakString@2@@Z @2961
?HasCompletedConnectionAttempt@PacketizedTCP@RakNet@@QEAA?AUSystemAddress@2@XZ @2962
?HasCompletedConnectionAttempt@TCPInterface@RakNet@@QEAA?AUSystemAddress@2@XZ @2963
?HasData@?$Hash@UAddressOrGUID@RakNet@@UFilteredSystem@2@$0IAA@$1?ToInteger@12@SAKAEBU12@@Z@DataStructures@@QEAA_NUAddressOrGUID@RakNet@@@Z @2964
?HasData@?$Hash@VRakString@RakNet@@PEAUStrAndGuidAndRoom@RelayPlugin@2@$0BPKA@$1?ToInteger@12@SAKAEBV12@@Z@DataStructures@@QEAA_NVRakString@RakNet@@@Z @2965
?HasData@?$OrderedList@HPEAUReadyEventNode@ReadyEvent@RakNet@@$1?ReadyEventNodeComp@23@SAHAEBHAEBQEAU123@@Z@DataStructures@@QEBA_NAEBHP6AH0AEBQEAUReadyEventNode@ReadyEvent@RakNet@@@Z@Z @2966
?HasData@?$OrderedList@HPEAUVoiceBuffer@RakNet@@$1?VoiceBufferComp@2@YAHAEBHAEBQEAU12@@Z@DataStructures@@QEBA_NAEBHP6AH0AEBQEAUVoiceBuffer@RakNet@@@Z@Z @2967
?HasData@?$OrderedList@UCloudKey@RakNet@@U12@$1?CloudKeyComp@2@YAHAEBU12@0@Z@DataStructures@@QEBA_NAEBUCloudKey@RakNet@@P6AH00@Z@Z @2968
?HasData@?$OrderedList@URakNetGUID@RakNet@@PEAUVoiceChannel@2@$1?VoiceChannelComp@2@YAHAEBU12@AEBQEAU32@@Z@DataStructures@@QEBA_NAEBURakNetGUID@RakNet@@P6AH0AEBQEAUVoiceChannel@4@@Z@Z @2969
?HasData@?$OrderedList@URakNetGUID@RakNet@@URemoteSystem@ReadyEvent@2@$1?RemoteSystemCompByGuid@42@SAHAEBU12@AEBU342@@Z@DataStructures@@QEBA_NAEBURakNetGUID@RakNet@@P6AH0AEBURemoteSystem@ReadyEvent@4@@Z@Z @2970
?HasData@?$OrderedList@USystemAddressAndGuid@ConnectionGraph2@RakNet@@U123@$1?SystemAddressAndGuidComp@23@SAHAEBU123@0@Z@DataStructures@@QEBA_NAEBUSystemAddressAndGuid@ConnectionGraph2@RakNet@@P6AH00@Z@Z @2971
?HasData@?$OrderedList@VRakString@RakNet@@V12@$1??$defaultOrderedListComparison@VRakString@RakNet@@V12@@DataStructures@@YAHAEBV12@0@Z@DataStructures@@QEBA_NAEBVRakString@RakNet@@P6AH00@Z@Z @2972
?HasFailedConnectionAttempt@PacketizedTCP@RakNet@@QEAA?AUSystemAddress@2@XZ @2973
?HasFailedConnectionAttempt@TCPInterface@RakNet@@QEAA?AUSystemAddress@2@XZ @2974
?HasLostConnection@PacketizedTCP@RakNet@@QEAA?AUSystemAddress@2@XZ @2975
?HasLostConnection@RakNetTransport2@RakNet@@UEAA?AUSystemAddress@2@XZ @2976
?HasLostConnection@TCPInterface@RakNet@@QEAA?AUSystemAddress@2@XZ @2977
?HasLostConnection@TelnetTransport@RakNet@@UEAA?AUSystemAddress@2@XZ @2978
?HasNewIncomingConnection@PacketizedTCP@RakNet@@QEAA?AUSystemAddress@2@XZ @2979
?HasNewIncomingConnection@RakNetTransport2@RakNet@@UEAA?AUSystemAddress@2@XZ @2980
?HasNewIncomingConnection@TCPInterface@RakNet@@QEAA?AUSystemAddress@2@XZ @2981
?HasNewIncomingConnection@TelnetTransport@RakNet@@UEAA?AUSystemAddress@2@XZ @2982
?HasOperationOfType@Rackspace@RakNet@@IEAA_NW4RackspaceOperationType@2@@Z @2983
?HasParticipant@FullyConnectedMesh2@RakNet@@QEAA_NURakNetGUID@2@@Z @2984
?HasRead@HTTPConnection@RakNet@@QEBA_NXZ @2985
?HasReplicaConstructed@Connection_RM3@RakNet@@QEAA_NPEAVReplica3@2@@Z @2986
?HasRequestedTeam@TM_TeamMember@RakNet@@QEBA_NPEAVTM_Team@2@@Z @2987
?HasResponse@HTTPConnection2@RakNet@@QEBA_NXZ @2988
?HasSavedSearchResult@?$Map@GPEAUFileListReceiver@RakNet@@$1??$defaultMapKeyComparison@G@DataStructures@@YAHAEBG0@Z@DataStructures@@IEBA_NAEBG@Z @2989
?HasSavedSearchResult@?$Map@HPEAVHuffmanEncodingTree@RakNet@@$1??$defaultMapKeyComparison@H@DataStructures@@YAHAEBH0@Z@DataStructures@@IEBA_NAEBH@Z @2990
?HasSavedSearchResult@?$Map@IUFLR_MemoryBlock@RakNet@@$1??$defaultMapKeyComparison@I@DataStructures@@YAHAEBI0@Z@DataStructures@@IEBA_NAEBI@Z @2991
?HasSavedSearchResult@?$Map@USystemAddress@RakNet@@PEAVByteQueue@DataStructures@@$1??$defaultMapKeyComparison@USystemAddress@RakNet@@@4@YAHAEBU12@0@Z@DataStructures@@IEBA_NAEBUSystemAddress@RakNet@@@Z @2992
?Hash@TwoWayAuthentication@RakNet@@IEAAXQEADVRakString@2@0@Z @2993
?HashFile@CSHA1@@QEAA_NPEBD@Z @2994
?IDTOString@PacketLogger@RakNet@@IEAAPEBDE@Z @2995
?IMPLEMENT_DEFAULT_COMPARISON@?$Map@GPEAUFileListReceiver@RakNet@@$1??$defaultMapKeyComparison@G@DataStructures@@YAHAEBG0@Z@DataStructures@@SAXXZ @2996
?IMPLEMENT_DEFAULT_COMPARISON@?$Map@HPEAVHuffmanEncodingTree@RakNet@@$1??$defaultMapKeyComparison@H@DataStructures@@YAHAEBH0@Z@DataStructures@@SAXXZ @2997
?IMPLEMENT_DEFAULT_COMPARISON@?$Map@IUFLR_MemoryBlock@RakNet@@$1??$defaultMapKeyComparison@I@DataStructures@@YAHAEBI0@Z@DataStructures@@SAXXZ @2998
?IPAddressMatch@RakString@RakNet@@QEAA_NPEBD@Z @2999
?IgnoreBits@BitStream@RakNet@@QEAAXI@Z @3000
?IgnoreBytes@BitStream@RakNet@@QEAAXI@Z @3001
?Increment@LocklessUint32_t@RakNet@@QEAAIXZ @3002
?IncrementExternalAttemptCount@NatPunchthroughClient@RakNet@@IEAAX_K0@Z @3003
?IncrementNextSendReceipt@RakPeer@RakNet@@UEAAIXZ @3004
?IncrementTotalConnectionCount@FullyConnectedMesh2@RakNet@@IEAAXI@Z @3005
?Init@HTTPConnection@RakNet@@QEAAXPEAVTCPInterface@2@PEBDG@Z @3006
?Init@RakVoice@RakNet@@QEAAXI@Z @3007
?Init@SimpleMutex@RakNet@@AEAAXXZ @3008
?InitEvent@SignaledEvent@RakNet@@QEAAXXZ @3009
?InitPage@?$MemoryPool@$$BY0CAA@E@DataStructures@@IEAA_NPEAUPage@12@0PEBDI@Z @3010
?InitPage@?$MemoryPool@$$BY0CAAA@E@DataStructures@@IEAA_NPEAUPage@12@0PEBDI@Z @3011
?InitPage@?$MemoryPool@$$BY0IA@E@DataStructures@@IEAA_NPEAUPage@12@0PEBDI@Z @3012
?InitPage@?$MemoryPool@$$BY0IAA@E@DataStructures@@IEAA_NPEAUPage@12@0PEBDI@Z @3013
?InitPage@?$MemoryPool@U?$Page@IPEAURow@Table@DataStructures@@$0BA@@DataStructures@@@DataStructures@@IEAA_NPEAUPage@12@0PEBDI@Z @3014
?InitPage@?$MemoryPool@UBufferedCommandStruct@RakPeer@RakNet@@@DataStructures@@IEAA_NPEAUPage@12@0PEBDI@Z @3015
?InitPage@?$MemoryPool@UChangedVariablesList@VariableDeltaSerializer@RakNet@@@DataStructures@@IEAA_NPEAUPage@12@0PEBDI@Z @3016
?InitPage@?$MemoryPool@UInternalPacket@RakNet@@@DataStructures@@IEAA_NPEAUPage@12@0PEBDI@Z @3017
?InitPage@?$MemoryPool@UInternalPacketRefCountedData@RakNet@@@DataStructures@@IEAA_NPEAUPage@12@0PEBDI@Z @3018
?InitPage@?$MemoryPool@UMessageNumberNode@ReliabilityLayer@RakNet@@@DataStructures@@IEAA_NPEAUPage@12@0PEBDI@Z @3019
?InitPage@?$MemoryPool@UPacket@RakNet@@@DataStructures@@IEAA_NPEAUPage@12@0PEBDI@Z @3020
?InitPage@?$MemoryPool@URemoteSystemIndex@RakNet@@@DataStructures@@IEAA_NPEAUPage@12@0PEBDI@Z @3021
?InitPage@?$MemoryPool@USocketQueryOutput@RakPeer@RakNet@@@DataStructures@@IEAA_NPEAUPage@12@0PEBDI@Z @3022
?InitPage@?$MemoryPool@UStartForwardingInputStruct@UDPForwarder@RakNet@@@DataStructures@@IEAA_NPEAUPage@12@0PEBDI@Z @3023
?InitPage@?$MemoryPool@UStopForwardingStruct@UDPForwarder@RakNet@@@DataStructures@@IEAA_NPEAUPage@12@0PEBDI@Z @3024
?InitPage@?$MemoryPool@USystemAddress@RakNet@@@DataStructures@@IEAA_NPEAUPage@12@0PEBDI@Z @3025
?InitServer@RakVoice@RakNet@@QEAAX_NGHHHMM0@Z @3026
?InitializeSecurity@RakPeer@RakNet@@UEAA_NPEBD0_N@Z @3027
?InputSize@?$ThreadPool@UThreadData@FileListTransfer@RakNet@@H@@QEAAIXZ @3028
?Insert@?$BPlusTree@IPEAURow@Table@DataStructures@@$0BA@@DataStructures@@QEAA_NIAEBQEAURow@Table@2@@Z @3029
?Insert@?$CircularLinkedList@PEAUHuffmanEncodingTreeNode@@@DataStructures@@QEAAXAEBQEAUHuffmanEncodingTreeNode@@@Z @3030
?Insert@?$List@E@DataStructures@@QEAAXAEBEPEBDI@Z @3031
?Insert@?$List@I@DataStructures@@QEAAXAEBIPEBDI@Z @3032
?Insert@?$List@PEAUBanStruct@RakPeer@RakNet@@@DataStructures@@QEAAXAEBQEAUBanStruct@RakPeer@RakNet@@PEBDI@Z @3033
?Insert@?$List@PEAUBufferedGetResponseFromServer@CloudServer@RakNet@@@DataStructures@@QEAAXAEBQEAUBufferedGetResponseFromServer@CloudServer@RakNet@@IPEBDI@Z @3034
?Insert@?$List@PEAUBufferedGetResponseFromServer@CloudServer@RakNet@@@DataStructures@@QEAAXAEBQEAUBufferedGetResponseFromServer@CloudServer@RakNet@@PEBDI@Z @3035
?Insert@?$List@PEAUCell@Table@DataStructures@@@DataStructures@@QEAAXAEBQEAUCell@Table@2@PEBDI@Z @3036
?Insert@?$List@PEAUChangedVariablesList@VariableDeltaSerializer@RakNet@@@DataStructures@@QEAAXAEBQEAUChangedVariablesList@VariableDeltaSerializer@RakNet@@IPEBDI@Z @3037
?Insert@?$List@PEAUChangedVariablesList@VariableDeltaSerializer@RakNet@@@DataStructures@@QEAAXAEBQEAUChangedVariablesList@VariableDeltaSerializer@RakNet@@PEBDI@Z @3038
?Insert@?$List@PEAUCloudData@CloudServer@RakNet@@@DataStructures@@QEAAXAEBQEAUCloudData@CloudServer@RakNet@@IPEBDI@Z @3039
?Insert@?$List@PEAUCloudData@CloudServer@RakNet@@@DataStructures@@QEAAXAEBQEAUCloudData@CloudServer@RakNet@@PEBDI@Z @3040
?Insert@?$List@PEAUCloudDataList@CloudServer@RakNet@@@DataStructures@@QEAAXAEBQEAUCloudDataList@CloudServer@RakNet@@IPEBDI@Z @3041
?Insert@?$List@PEAUCloudQueryRow@RakNet@@@DataStructures@@QEAAXAEBQEAUCloudQueryRow@RakNet@@PEBDI@Z @3042
?Insert@?$List@PEAUConnectionAttempt@NatPunchthroughServer@RakNet@@@DataStructures@@QEAAXAEBQEAUConnectionAttempt@NatPunchthroughServer@RakNet@@PEBDI@Z @3043
?Insert@?$List@PEAUConnnectRequest@Router2@RakNet@@@DataStructures@@QEAAXAEBQEAUConnnectRequest@Router2@RakNet@@PEBDI@Z @3044
?Insert@?$List@PEAUFCM2Participant@FullyConnectedMesh2@RakNet@@@DataStructures@@QEAAXAEBQEAUFCM2Participant@FullyConnectedMesh2@RakNet@@IPEBDI@Z @3045
?Insert@?$List@PEAUFCM2Participant@FullyConnectedMesh2@RakNet@@@DataStructures@@QEAAXAEBQEAUFCM2Participant@FullyConnectedMesh2@RakNet@@PEBDI@Z @3046
?Insert@?$List@PEAUFileToPushRecipient@FileListTransfer@RakNet@@@DataStructures@@QEAAXAEBQEAUFileToPushRecipient@FileListTransfer@RakNet@@PEBDI@Z @3047
?Insert@?$List@PEAUFilterSet@RakNet@@@DataStructures@@QEAAXAEBQEAUFilterSet@RakNet@@IPEBDI@Z @3048
?Insert@?$List@PEAUFilterSet@RakNet@@@DataStructures@@QEAAXAEBQEAUFilterSet@RakNet@@PEBDI@Z @3049
?Insert@?$List@PEAUForwardEntry@UDPForwarder@RakNet@@@DataStructures@@QEAAXAEBQEAUForwardEntry@UDPForwarder@RakNet@@PEBDI@Z @3050
?Insert@?$List@PEAUForwardingRequest@UDPProxyCoordinator@RakNet@@@DataStructures@@QEAAXAEBQEAUForwardingRequest@UDPProxyCoordinator@RakNet@@IPEBDI@Z @3051
?Insert@?$List@PEAUGetRequest@CloudServer@RakNet@@@DataStructures@@QEAAXAEBQEAUGetRequest@CloudServer@RakNet@@IPEBDI@Z @3052
?Insert@?$List@PEAUGetRequest@CloudServer@RakNet@@@DataStructures@@QEAAXAEBQEAUGetRequest@CloudServer@RakNet@@PEBDI@Z @3053
?Insert@?$List@PEAUInternalPacket@RakNet@@@DataStructures@@QEAAXAEBQEAUInternalPacket@RakNet@@PEBDI@Z @3054
?Insert@?$List@PEAUKeySubscriberID@CloudServer@RakNet@@@DataStructures@@QEAAXAEBQEAUKeySubscriberID@CloudServer@RakNet@@IPEBDI@Z @3055
?Insert@?$List@PEAULastSerializationResult@RakNet@@@DataStructures@@QEAAXAEBQEAULastSerializationResult@RakNet@@IPEBDI@Z @3056
?Insert@?$List@PEAULastSerializationResult@RakNet@@@DataStructures@@QEAAXAEBQEAULastSerializationResult@RakNet@@PEBDI@Z @3057
?Insert@?$List@PEAULocalCallback@RPC4@RakNet@@@DataStructures@@QEAAXAEBQEAULocalCallback@RPC4@RakNet@@IPEBDI@Z @3058
?Insert@?$List@PEAULocalSlot@RPC4@RakNet@@@DataStructures@@QEAAXAEBQEAULocalSlot@RPC4@RakNet@@PEBDI@Z @3059
?Insert@?$List@PEAUNonceAndRemoteSystemRequest@TwoWayAuthentication@RakNet@@@DataStructures@@QEAAXAEBQEAUNonceAndRemoteSystemRequest@TwoWayAuthentication@RakNet@@PEBDI@Z @3060
?Insert@?$List@PEAUPingServerGroup@UDPProxyClient@RakNet@@@DataStructures@@QEAAXAEBQEAUPingServerGroup@UDPProxyClient@RakNet@@PEBDI@Z @3061
?Insert@?$List@PEAURM3World@ReplicaManager3@RakNet@@@DataStructures@@QEAAXAEBQEAURM3World@ReplicaManager3@RakNet@@PEBDI@Z @3062
?Insert@?$List@PEAURP_Group@RelayPlugin@RakNet@@@DataStructures@@QEAAXAEBQEAURP_Group@RelayPlugin@RakNet@@PEBDI@Z @3063
?Insert@?$List@PEAUReadyEventNode@ReadyEvent@RakNet@@@DataStructures@@QEAAXAEBQEAUReadyEventNode@ReadyEvent@RakNet@@IPEBDI@Z @3064
?Insert@?$List@PEAUReadyEventNode@ReadyEvent@RakNet@@@DataStructures@@QEAAXAEBQEAUReadyEventNode@ReadyEvent@RakNet@@PEBDI@Z @3065
?Insert@?$List@PEAURemoteCloudClient@CloudServer@RakNet@@@DataStructures@@QEAAXAEBQEAURemoteCloudClient@CloudServer@RakNet@@PEBDI@Z @3066
?Insert@?$List@PEAURemoteServer@CloudServer@RakNet@@@DataStructures@@QEAAXAEBQEAURemoteServer@CloudServer@RakNet@@IPEBDI@Z @3067
?Insert@?$List@PEAURemoteServer@CloudServer@RakNet@@@DataStructures@@QEAAXAEBQEAURemoteServer@CloudServer@RakNet@@PEBDI@Z @3068
?Insert@?$List@PEAURemoteSystem@ConnectionGraph2@RakNet@@@DataStructures@@QEAAXAEBQEAURemoteSystem@ConnectionGraph2@RakNet@@IPEBDI@Z @3069
?Insert@?$List@PEAURemoteSystemVariableHistory@VariableDeltaSerializer@RakNet@@@DataStructures@@QEAAXAEBQEAURemoteSystemVariableHistory@VariableDeltaSerializer@RakNet@@PEBDI@Z @3070
?Insert@?$List@PEAURequest@HTTPConnection2@RakNet@@@DataStructures@@QEAAXAEBQEAURequest@HTTPConnection2@RakNet@@PEBDI@Z @3071
?Insert@?$List@PEAURow@Table@DataStructures@@@DataStructures@@QEAAXAEBQEAURow@Table@2@IPEBDI@Z @3072
?Insert@?$List@PEAURow@Table@DataStructures@@@DataStructures@@QEAAXAEBQEAURow@Table@2@PEBDI@Z @3073
?Insert@?$List@PEAUSharedString@RakString@RakNet@@@DataStructures@@QEAAXAEBQEAUSharedString@RakString@RakNet@@PEBDI@Z @3074
?Insert@?$List@PEAUSplitPacketChannel@RakNet@@@DataStructures@@QEAAXAEBQEAUSplitPacketChannel@RakNet@@IPEBDI@Z @3075
?Insert@?$List@PEAUSplitPacketChannel@RakNet@@@DataStructures@@QEAAXAEBQEAUSplitPacketChannel@RakNet@@PEBDI@Z @3076
?Insert@?$List@PEAUStrAndGuidAndRoom@RelayPlugin@RakNet@@@DataStructures@@QEAAXAEBQEAUStrAndGuidAndRoom@RelayPlugin@RakNet@@PEBDI@Z @3077
?Insert@?$List@PEAUTelnetClient@TelnetTransport@RakNet@@@DataStructures@@QEAAXAEBQEAUTelnetClient@TelnetTransport@RakNet@@PEBDI@Z @3078
?Insert@?$List@PEAUTimeAndValueQueue@StatisticsHistory@RakNet@@@DataStructures@@QEAAXAEBQEAUTimeAndValueQueue@StatisticsHistory@RakNet@@IPEBDI@Z @3079
?Insert@?$List@PEAUTimeAndValueQueue@StatisticsHistory@RakNet@@@DataStructures@@QEAAXAEBQEAUTimeAndValueQueue@StatisticsHistory@RakNet@@PEBDI@Z @3080
?Insert@?$List@PEAUTrackedObject@StatisticsHistory@RakNet@@@DataStructures@@QEAAXAEBQEAUTrackedObject@StatisticsHistory@RakNet@@IPEBDI@Z @3081
?Insert@?$List@PEAUUser@NatPunchthroughServer@RakNet@@@DataStructures@@QEAAXAEBQEAUUser@NatPunchthroughServer@RakNet@@IPEBDI@Z @3082
?Insert@?$List@PEAUUser@NatPunchthroughServer@RakNet@@@DataStructures@@QEAAXAEBQEAUUser@NatPunchthroughServer@RakNet@@PEBDI@Z @3083
?Insert@?$List@PEAUVerifiedJoinInProgress@FullyConnectedMesh2@RakNet@@@DataStructures@@QEAAXAEBQEAUVerifiedJoinInProgress@FullyConnectedMesh2@RakNet@@PEBDI@Z @3084
?Insert@?$List@PEAUVoiceBuffer@RakNet@@@DataStructures@@QEAAXAEBQEAUVoiceBuffer@RakNet@@IPEBDI@Z @3085
?Insert@?$List@PEAUVoiceBuffer@RakNet@@@DataStructures@@QEAAXAEBQEAUVoiceBuffer@RakNet@@PEBDI@Z @3086
?Insert@?$List@PEAUVoiceChannel@RakNet@@@DataStructures@@QEAAXAEBQEAUVoiceChannel@RakNet@@IPEBDI@Z @3087
?Insert@?$List@PEAUVoiceChannel@RakNet@@@DataStructures@@QEAAXAEBQEAUVoiceChannel@RakNet@@PEBDI@Z @3088
?Insert@?$List@PEAVBitStream@RakNet@@@DataStructures@@QEAAXAEBQEAVBitStream@RakNet@@PEBDI@Z @3089
?Insert@?$List@PEAVCloudServerQueryFilter@RakNet@@@DataStructures@@QEAAXAEBQEAVCloudServerQueryFilter@RakNet@@PEBDI@Z @3090
?Insert@?$List@PEAVCommandParserInterface@RakNet@@@DataStructures@@QEAAXAEBQEAVCommandParserInterface@RakNet@@PEBDI@Z @3091
?Insert@?$List@PEAVConnection_RM3@RakNet@@@DataStructures@@QEAAXAEBQEAVConnection_RM3@RakNet@@PEBDI@Z @3092
?Insert@?$List@PEAVFileListProgress@RakNet@@@DataStructures@@QEAAXAEBQEAVFileListProgress@RakNet@@PEBDI@Z @3093
?Insert@?$List@PEAVPluginInterface2@RakNet@@@DataStructures@@QEAAXAEBQEAVPluginInterface2@RakNet@@PEBDI@Z @3094
?Insert@?$List@PEAVRackspace2EventCallback@RakNet@@@DataStructures@@QEAAXAEBQEAVRackspace2EventCallback@RakNet@@PEBDI@Z @3095
?Insert@?$List@PEAVRakNetSocket2@RakNet@@@DataStructures@@QEAAXAEBQEAVRakNetSocket2@RakNet@@PEBDI@Z @3096
?Insert@?$List@PEAVReplica3@RakNet@@@DataStructures@@QEAAXAEBQEAVReplica3@RakNet@@PEBDI@Z @3097
?Insert@?$List@PEAVTM_Team@RakNet@@@DataStructures@@QEAAXAEBQEAVTM_Team@RakNet@@PEBDI@Z @3098
?Insert@?$List@PEAVTM_TeamMember@RakNet@@@DataStructures@@QEAAXAEBQEAVTM_TeamMember@RakNet@@PEBDI@Z @3099
?Insert@?$List@PEAVTM_World@RakNet@@@DataStructures@@QEAAXAEBQEAVTM_World@RakNet@@PEBDI@Z @3100
?Insert@?$List@PEAX@DataStructures@@QEAAXAEBQEAXPEBDI@Z @3101
?Insert@?$List@U?$RangeNode@Uuint24_t@RakNet@@@DataStructures@@@DataStructures@@QEAAXAEBU?$RangeNode@Uuint24_t@RakNet@@@2@IPEBDI@Z @3102
?Insert@?$List@U?$RangeNode@Uuint24_t@RakNet@@@DataStructures@@@DataStructures@@QEAAXAEBU?$RangeNode@Uuint24_t@RakNet@@@2@PEBDI@Z @3103
?Insert@?$List@UAddrAndGuid@NatPunchthroughClient@RakNet@@@DataStructures@@QEAAXAEBUAddrAndGuid@NatPunchthroughClient@RakNet@@PEBDI@Z @3104
?Insert@?$List@UAddressOrGUID@RakNet@@@DataStructures@@QEAAXAEBUAddressOrGUID@RakNet@@PEBDI@Z @3105
?Insert@?$List@UClientState@@@DataStructures@@QEAAXAEBUClientState@@PEBDI@Z @3106
?Insert@?$List@UCloudKey@RakNet@@@DataStructures@@QEAAXAEBUCloudKey@RakNet@@IPEBDI@Z @3107
?Insert@?$List@UCloudKey@RakNet@@@DataStructures@@QEAAXAEBUCloudKey@RakNet@@PEBDI@Z @3108
?Insert@?$List@UColumnDescriptor@Table@DataStructures@@@DataStructures@@QEAAXAEBUColumnDescriptor@Table@2@PEBDI@Z @3109
?Insert@?$List@UConnectionRequestSystem@Router2@RakNet@@@DataStructures@@QEAAXAEBUConnectionRequestSystem@Router2@RakNet@@IPEBDI@Z @3110
?Insert@?$List@UConnectionRequestSystem@Router2@RakNet@@@DataStructures@@QEAAXAEBUConnectionRequestSystem@Router2@RakNet@@PEBDI@Z @3111
?Insert@?$List@UFileListNode@RakNet@@@DataStructures@@QEAAXAEBUFileListNode@RakNet@@PEBDI@Z @3112
?Insert@?$List@UFilteredSystem@RakNet@@@DataStructures@@QEAAXAEBUFilteredSystem@RakNet@@PEBDI@Z @3113
?Insert@?$List@UForwardedConnection@Router2@RakNet@@@DataStructures@@QEAAXAEBUForwardedConnection@Router2@RakNet@@PEBDI@Z @3114
?Insert@?$List@UHeapNode@?$Heap@_KPEAUInternalPacket@RakNet@@$0A@@DataStructures@@@DataStructures@@QEAAXAEBUHeapNode@?$Heap@_KPEAUInternalPacket@RakNet@@$0A@@2@PEBDI@Z @3115
?Insert@?$List@UIndexAndType@VariadicSQLParser@@@DataStructures@@QEAAXAEBUIndexAndType@VariadicSQLParser@@PEBDI@Z @3116
?Insert@?$List@UJoinRequestHelper@TM_World@RakNet@@@DataStructures@@QEAAXAEBUJoinRequestHelper@TM_World@RakNet@@IPEBDI@Z @3117
?Insert@?$List@UJoinRequestHelper@TM_World@RakNet@@@DataStructures@@QEAAXAEBUJoinRequestHelper@TM_World@RakNet@@PEBDI@Z @3118
?Insert@?$List@ULocalSlotObject@RPC4@RakNet@@@DataStructures@@QEAAXAEBULocalSlotObject@RPC4@RakNet@@IPEBDI@Z @3119
?Insert@?$List@ULocalSlotObject@RPC4@RakNet@@@DataStructures@@QEAAXAEBULocalSlotObject@RPC4@RakNet@@PEBDI@Z @3120
?Insert@?$List@UMapNode@?$Map@GPEAUFileListReceiver@RakNet@@$1??$defaultMapKeyComparison@G@DataStructures@@YAHAEBG0@Z@DataStructures@@@DataStructures@@QEAAXAEBUMapNode@?$Map@GPEAUFileListReceiver@RakNet@@$1??$defaultMapKeyComparison@G@DataStructures@@YAHAEBG0@Z@2@IPEBDI@Z @3121
?Insert@?$List@UMapNode@?$Map@GPEAUFileListReceiver@RakNet@@$1??$defaultMapKeyComparison@G@DataStructures@@YAHAEBG0@Z@DataStructures@@@DataStructures@@QEAAXAEBUMapNode@?$Map@GPEAUFileListReceiver@RakNet@@$1??$defaultMapKeyComparison@G@DataStructures@@YAHAEBG0@Z@2@PEBDI@Z @3122
?Insert@?$List@UMapNode@?$Map@HPEAVHuffmanEncodingTree@RakNet@@$1??$defaultMapKeyComparison@H@DataStructures@@YAHAEBH0@Z@DataStructures@@@DataStructures@@QEAAXAEBUMapNode@?$Map@HPEAVHuffmanEncodingTree@RakNet@@$1??$defaultMapKeyComparison@H@DataStructures@@YAHAEBH0@Z@2@IPEBDI@Z @3123
?Insert@?$List@UMapNode@?$Map@HPEAVHuffmanEncodingTree@RakNet@@$1??$defaultMapKeyComparison@H@DataStructures@@YAHAEBH0@Z@DataStructures@@@DataStructures@@QEAAXAEBUMapNode@?$Map@HPEAVHuffmanEncodingTree@RakNet@@$1??$defaultMapKeyComparison@H@DataStructures@@YAHAEBH0@Z@2@PEBDI@Z @3124
?Insert@?$List@UMapNode@?$Map@IUFLR_MemoryBlock@RakNet@@$1??$defaultMapKeyComparison@I@DataStructures@@YAHAEBI0@Z@DataStructures@@@DataStructures@@QEAAXAEBUMapNode@?$Map@IUFLR_MemoryBlock@RakNet@@$1??$defaultMapKeyComparison@I@DataStructures@@YAHAEBI0@Z@2@IPEBDI@Z @3125
?Insert@?$List@UMapNode@?$Map@IUFLR_MemoryBlock@RakNet@@$1??$defaultMapKeyComparison@I@DataStructures@@YAHAEBI0@Z@DataStructures@@@DataStructures@@QEAAXAEBUMapNode@?$Map@IUFLR_MemoryBlock@RakNet@@$1??$defaultMapKeyComparison@I@DataStructures@@YAHAEBI0@Z@2@PEBDI@Z @3126
?Insert@?$List@UMapNode@?$Map@USystemAddress@RakNet@@PEAVByteQueue@DataStructures@@$1??$defaultMapKeyComparison@USystemAddress@RakNet@@@4@YAHAEBU12@0@Z@DataStructures@@@DataStructures@@QEAAXAEBUMapNode@?$Map@USystemAddress@RakNet@@PEAVByteQueue@DataStructures@@$1??$defaultMapKeyComparison@USystemAddress@RakNet@@@4@YAHAEBU12@0@Z@2@IPEBDI@Z @3127
?Insert@?$List@UMapNode@?$Map@USystemAddress@RakNet@@PEAVByteQueue@DataStructures@@$1??$defaultMapKeyComparison@USystemAddress@RakNet@@@4@YAHAEBU12@0@Z@DataStructures@@@DataStructures@@QEAAXAEBUMapNode@?$Map@USystemAddress@RakNet@@PEAVByteQueue@DataStructures@@$1??$defaultMapKeyComparison@USystemAddress@RakNet@@@4@YAHAEBU12@0@Z@2@PEBDI@Z @3128
?Insert@?$List@UMiniPunchRequest@Router2@RakNet@@@DataStructures@@QEAAXAEBUMiniPunchRequest@Router2@RakNet@@PEBDI@Z @3129
?Insert@?$List@UMyTeamMembers@TeamBalancer@RakNet@@@DataStructures@@QEAAXAEBUMyTeamMembers@TeamBalancer@RakNet@@PEBDI@Z @3130
?Insert@?$List@UNATDetectionAttempt@NatTypeDetectionServer@RakNet@@@DataStructures@@QEAAXAEBUNATDetectionAttempt@NatTypeDetectionServer@RakNet@@PEBDI@Z @3131
?Insert@?$List@URackspaceOperation@Rackspace@RakNet@@@DataStructures@@QEAAXAEBURackspaceOperation@Rackspace@RakNet@@PEBDI@Z @3132
?Insert@?$List@URakNetGUID@RakNet@@@DataStructures@@QEAAXAEBURakNetGUID@RakNet@@IPEBDI@Z @3133
?Insert@?$List@URakNetGUID@RakNet@@@DataStructures@@QEAAXAEBURakNetGUID@RakNet@@PEBDI@Z @3134
?Insert@?$List@URakNetStatistics@RakNet@@@DataStructures@@QEAAXAEBURakNetStatistics@RakNet@@PEBDI@Z @3135
?Insert@?$List@URegisteredCommand@RakNet@@@DataStructures@@QEAAXAEBURegisteredCommand@RakNet@@IPEBDI@Z @3136
?Insert@?$List@URegisteredCommand@RakNet@@@DataStructures@@QEAAXAEBURegisteredCommand@RakNet@@PEBDI@Z @3137
?Insert@?$List@URemoteSystem@ReadyEvent@RakNet@@@DataStructures@@QEAAXAEBURemoteSystem@ReadyEvent@RakNet@@IPEBDI@Z @3138
?Insert@?$List@URequestedTeam@TM_TeamMember@RakNet@@@DataStructures@@QEAAXAEBURequestedTeam@TM_TeamMember@RakNet@@PEBDI@Z @3139
?Insert@?$List@UServerWithPing@UDPProxyClient@RakNet@@@DataStructures@@QEAAXAEBUServerWithPing@UDPProxyClient@RakNet@@PEBDI@Z @3140
?Insert@?$List@UServerWithPing@UDPProxyCoordinator@RakNet@@@DataStructures@@QEAAXAEBUServerWithPing@UDPProxyCoordinator@RakNet@@IPEBDI@Z @3141
?Insert@?$List@UServerWithPing@UDPProxyCoordinator@RakNet@@@DataStructures@@QEAAXAEBUServerWithPing@UDPProxyCoordinator@RakNet@@PEBDI@Z @3142
?Insert@?$List@UStrAndBool@@@DataStructures@@QEAAXAEBUStrAndBool@@IPEBDI@Z @3143
?Insert@?$List@UStrAndBool@@@DataStructures@@QEAAXAEBUStrAndBool@@PEBDI@Z @3144
?Insert@?$List@UStrAndGuid@RelayPlugin@RakNet@@@DataStructures@@QEAAXAEBUStrAndGuid@RelayPlugin@RakNet@@PEBDI@Z @3145
?Insert@?$List@USystemAddress@RakNet@@@DataStructures@@QEAAXAEBUSystemAddress@RakNet@@IPEBDI@Z @3146
?Insert@?$List@USystemAddress@RakNet@@@DataStructures@@QEAAXAEBUSystemAddress@RakNet@@PEBDI@Z @3147
?Insert@?$List@USystemAddressAndChannel@LogCommandParser@RakNet@@@DataStructures@@QEAAXAEBUSystemAddressAndChannel@LogCommandParser@RakNet@@PEBDI@Z @3148
?Insert@?$List@USystemAddressAndGuid@ConnectionGraph2@RakNet@@@DataStructures@@QEAAXAEBUSystemAddressAndGuid@ConnectionGraph2@RakNet@@IPEBDI@Z @3149
?Insert@?$List@UTeamMember@TeamBalancer@RakNet@@@DataStructures@@QEAAXAEBUTeamMember@TeamBalancer@RakNet@@PEBDI@Z @3150
?Insert@?$List@UUnreliableWithAckReceiptNode@ReliabilityLayer@RakNet@@@DataStructures@@QEAAXAEBUUnreliableWithAckReceiptNode@ReliabilityLayer@RakNet@@PEBDI@Z @3151
?Insert@?$List@UVerifiedJoinInProgressMember@FullyConnectedMesh2@RakNet@@@DataStructures@@QEAAXAEBUVerifiedJoinInProgressMember@FullyConnectedMesh2@RakNet@@PEBDI@Z @3152
?Insert@?$List@VRakString@RakNet@@@DataStructures@@QEAAXAEBVRakString@RakNet@@IPEBDI@Z @3153
?Insert@?$List@VRakString@RakNet@@@DataStructures@@QEAAXAEBVRakString@RakNet@@PEBDI@Z @3154
?Insert@?$List@_K@DataStructures@@QEAAXAEB_KPEBDI@Z @3155
?Insert@?$List@_N@DataStructures@@QEAAXAEB_NPEBDI@Z @3156
?Insert@?$OrderedList@GPEAUSplitPacketChannel@RakNet@@$1?SplitPacketChannelComp@2@YAHAEBGAEBQEAU12@@Z@DataStructures@@QEAAIAEBGAEBQEAUSplitPacketChannel@RakNet@@_NPEBDIP6AH01@Z@Z @3157
?Insert@?$OrderedList@GUMapNode@?$Map@GPEAUFileListReceiver@RakNet@@$1??$defaultMapKeyComparison@G@DataStructures@@YAHAEBG0@Z@DataStructures@@$1?NodeComparisonFunc@23@SAHAEBGAEBU123@@Z@DataStructures@@QEAAIAEBGAEBUMapNode@?$Map@GPEAUFileListReceiver@RakNet@@$1??$defaultMapKeyComparison@G@DataStructures@@YAHAEBG0@Z@2@_NPEBDIP6AH01@Z@Z @3158
?Insert@?$OrderedList@GUServerWithPing@UDPProxyCoordinator@RakNet@@$1?ServerWithPingComp@23@KAHAEBGAEBU123@@Z@DataStructures@@QEAAIAEBGAEBUServerWithPing@UDPProxyCoordinator@RakNet@@_NPEBDIP6AH01@Z@Z @3159
?Insert@?$OrderedList@HPEAUFilterSet@RakNet@@$1?FilterSetComp@2@YAHAEBHAEBQEAU12@@Z@DataStructures@@QEAAIAEBHAEBQEAUFilterSet@RakNet@@_NPEBDIP6AH01@Z@Z @3160
?Insert@?$OrderedList@HPEAUReadyEventNode@ReadyEvent@RakNet@@$1?ReadyEventNodeComp@23@SAHAEBHAEBQEAU123@@Z@DataStructures@@QEAAIAEBHAEBQEAUReadyEventNode@ReadyEvent@RakNet@@_NPEBDIP6AH01@Z@Z @3161
?Insert@?$OrderedList@HPEAUVoiceBuffer@RakNet@@$1?VoiceBufferComp@2@YAHAEBHAEBQEAU12@@Z@DataStructures@@QEAAIAEBHAEBQEAUVoiceBuffer@RakNet@@_NPEBDIP6AH01@Z@Z @3162
?Insert@?$OrderedList@HUMapNode@?$Map@HPEAVHuffmanEncodingTree@RakNet@@$1??$defaultMapKeyComparison@H@DataStructures@@YAHAEBH0@Z@DataStructures@@$1?NodeComparisonFunc@23@SAHAEBHAEBU123@@Z@DataStructures@@QEAAIAEBHAEBUMapNode@?$Map@HPEAVHuffmanEncodingTree@RakNet@@$1??$defaultMapKeyComparison@H@DataStructures@@YAHAEBH0@Z@2@_NPEBDIP6AH01@Z@Z @3163
?Insert@?$OrderedList@IPEAUChangedVariablesList@VariableDeltaSerializer@RakNet@@$1?UpdatedVariablesListPtrComp@23@KAHAEBIAEBQEAU123@@Z@DataStructures@@QEAAIAEBIAEBQEAUChangedVariablesList@VariableDeltaSerializer@RakNet@@_NPEBDIP6AH01@Z@Z @3164
?Insert@?$OrderedList@IPEAUGetRequest@CloudServer@RakNet@@$1?GetRequestComp@23@KAHAEBIAEBQEAU123@@Z@DataStructures@@QEAAIAEBIAEBQEAUGetRequest@CloudServer@RakNet@@_NPEBDIP6AH01@Z@Z @3165
?Insert@?$OrderedList@IUMapNode@?$Map@IUFLR_MemoryBlock@RakNet@@$1??$defaultMapKeyComparison@I@DataStructures@@YAHAEBI0@Z@DataStructures@@$1?NodeComparisonFunc@23@SAHAEBIAEBU123@@Z@DataStructures@@QEAAIAEBIAEBUMapNode@?$Map@IUFLR_MemoryBlock@RakNet@@$1??$defaultMapKeyComparison@I@DataStructures@@YAHAEBI0@Z@2@_NPEBDIP6AH01@Z@Z @3166
?Insert@?$OrderedList@PEADUStrAndBool@@$1?StrAndBoolComp@RakNet@@YAHAEBQEADAEBU1@@Z@DataStructures@@QEAAIAEBQEADAEBUStrAndBool@@_NPEBDIP6AH01@Z@Z @3167
?Insert@?$OrderedList@PEAUFCM2Participant@FullyConnectedMesh2@RakNet@@PEAU123@$1?FCM2ParticipantComp@@YAHAEBQEAU123@0@Z@DataStructures@@QEAAIAEBQEAUFCM2Participant@FullyConnectedMesh2@RakNet@@0_NPEBDIP6AH00@Z@Z @3168
?Insert@?$OrderedList@PEAURow@Table@DataStructures@@PEAU123@$1?RowSort@@YAHAEBQEAU123@0@Z@DataStructures@@QEAAIAEBQEAURow@Table@2@0_NPEBDIP6AH00@Z@Z @3169
?Insert@?$OrderedList@PEAUTimeAndValueQueue@StatisticsHistory@RakNet@@PEAU123@$1?TimeAndValueQueueCompAsc@@YAHAEBQEAU123@0@Z@DataStructures@@QEAAIAEBQEAUTimeAndValueQueue@StatisticsHistory@RakNet@@0_NPEBDIP6AH00@Z@Z @3170
?Insert@?$OrderedList@PEAVReplica3@RakNet@@PEAULastSerializationResult@2@$1?Replica3LSRComp@Connection_RM3@2@SAHAEBQEAV12@AEBQEAU32@@Z@DataStructures@@QEAAIAEBQEAVReplica3@RakNet@@AEBQEAULastSerializationResult@4@_NPEBDIP6AH01@Z@Z @3171
?Insert@?$OrderedList@PEBDURegisteredCommand@RakNet@@$1?RegisteredCommandComp@2@YAHAEBQEBDAEBU12@@Z@DataStructures@@QEAAIAEBQEBDAEBURegisteredCommand@RakNet@@_NPEBDIP6AH01@Z@Z @3172
?Insert@?$OrderedList@UCloudKey@RakNet@@U12@$1?CloudKeyComp@2@YAHAEBU12@0@Z@DataStructures@@QEAAIAEBUCloudKey@RakNet@@0_NPEBDIP6AH00@Z@Z @3173
?Insert@?$OrderedList@UConnectionRequestSystem@Router2@RakNet@@U123@$1?ConnectionRequestSystemComp@@YAHAEBU123@0@Z@DataStructures@@QEAAIAEBUConnectionRequestSystem@Router2@RakNet@@0_NPEBDIP6AH00@Z@Z @3174
?Insert@?$OrderedList@UJoinRequestHelper@TM_World@RakNet@@U123@$1?JoinRequestHelperComp@23@SAHAEBU123@0@Z@DataStructures@@QEAAIAEBUJoinRequestHelper@TM_World@RakNet@@0_NPEBDIP6AH00@Z@Z @3175
?Insert@?$OrderedList@ULocalSlotObject@RPC4@RakNet@@U123@$1?LocalSlotObjectComp@23@SAHAEBU123@0@Z@DataStructures@@QEAAIAEBULocalSlotObject@RPC4@RakNet@@0_NPEBDIP6AH00@Z@Z @3176
?Insert@?$OrderedList@URakNetGUID@RakNet@@PEAUBufferedGetResponseFromServer@CloudServer@2@$1?BufferedGetResponseFromServerComp@42@KAHAEBU12@AEBQEAU342@@Z@DataStructures@@QEAAIAEBURakNetGUID@RakNet@@AEBQEAUBufferedGetResponseFromServer@CloudServer@4@_NPEBDIP6AH01@Z@Z @3177
?Insert@?$OrderedList@URakNetGUID@RakNet@@PEAUCloudData@CloudServer@2@$1?KeyDataPtrComp@42@KAHAEBU12@AEBQEAU342@@Z@DataStructures@@QEAAIAEBURakNetGUID@RakNet@@AEBQEAUCloudData@CloudServer@4@_NPEBDIP6AH01@Z@Z @3178
?Insert@?$OrderedList@URakNetGUID@RakNet@@PEAUUser@NatPunchthroughServer@2@$1?NatPunchthroughUserComp@42@SAHAEBU12@AEBQEAU342@@Z@DataStructures@@QEAAIAEBURakNetGUID@RakNet@@AEBQEAUUser@NatPunchthroughServer@4@_NPEBDIP6AH01@Z@Z @3179
?Insert@?$OrderedList@URakNetGUID@RakNet@@PEAUVoiceChannel@2@$1?VoiceChannelComp@2@YAHAEBU12@AEBQEAU32@@Z@DataStructures@@QEAAIAEBURakNetGUID@RakNet@@AEBQEAUVoiceChannel@4@_NPEBDIP6AH01@Z@Z @3180
?Insert@?$OrderedList@URakNetGUID@RakNet@@U12@$1??$defaultOrderedListComparison@URakNetGUID@RakNet@@U12@@DataStructures@@YAHAEBU12@0@Z@DataStructures@@QEAAIAEBURakNetGUID@RakNet@@0_NPEBDIP6AH00@Z@Z @3181
?Insert@?$OrderedList@USystemAddress@RakNet@@U12@$1??$defaultOrderedListComparison@USystemAddress@RakNet@@U12@@DataStructures@@YAHAEBU12@0@Z@DataStructures@@QEAAIAEBUSystemAddress@RakNet@@0_NPEBDIP6AH00@Z@Z @3182
?Insert@?$OrderedList@USystemAddress@RakNet@@UMapNode@?$Map@USystemAddress@RakNet@@PEAVByteQueue@DataStructures@@$1??$defaultMapKeyComparison@USystemAddress@RakNet@@@4@YAHAEBU12@0@Z@DataStructures@@$1?NodeComparisonFunc@45@SAHAEBU12@AEBU345@@Z@DataStructures@@QEAAIAEBUSystemAddress@RakNet@@AEBUMapNode@?$Map@USystemAddress@RakNet@@PEAVByteQueue@DataStructures@@$1??$defaultMapKeyComparison@USystemAddress@RakNet@@@4@YAHAEBU12@0@Z@2@_NPEBDIP6AH01@Z@Z @3183
?Insert@?$OrderedList@Uuint24_t@RakNet@@U?$RangeNode@Uuint24_t@RakNet@@@DataStructures@@$1??$RangeNodeComp@Uuint24_t@RakNet@@@4@YAHAEBU12@AEBU34@@Z@DataStructures@@QEAAIAEBUuint24_t@RakNet@@AEBU?$RangeNode@Uuint24_t@RakNet@@@2@_NPEBDIP6AH01@Z@Z @3184
?Insert@?$OrderedList@VRakString@RakNet@@V12@$1??$defaultOrderedListComparison@VRakString@RakNet@@V12@@DataStructures@@YAHAEBV12@0@Z@DataStructures@@QEAAIAEBVRakString@RakNet@@0_NPEBDIP6AH00@Z@Z @3185
?Insert@?$RangeList@Uuint24_t@RakNet@@@DataStructures@@QEAAXUuint24_t@RakNet@@@Z @3186
?InsertAtEnd@?$OrderedList@URakNetGUID@RakNet@@U12@$1??$defaultOrderedListComparison@URakNetGUID@RakNet@@U12@@DataStructures@@YAHAEBU12@0@Z@DataStructures@@QEAAXAEBURakNetGUID@RakNet@@PEBDI@Z @3187
?InsertAtEnd@?$OrderedList@Uuint24_t@RakNet@@U?$RangeNode@Uuint24_t@RakNet@@@DataStructures@@$1??$RangeNodeComp@Uuint24_t@RakNet@@@4@YAHAEBU12@AEBU34@@Z@DataStructures@@QEAAXAEBU?$RangeNode@Uuint24_t@RakNet@@@2@PEBDI@Z @3188
?InsertAtIndex@?$OrderedList@EPEAULocalCallback@RPC4@RakNet@@$1?LocalCallbackComp@23@SAHAEBEAEBQEAU123@@Z@DataStructures@@QEAAXAEBQEAULocalCallback@RPC4@RakNet@@IPEBDI@Z @3189
?InsertAtIndex@?$OrderedList@UCloudKey@RakNet@@PEAUCloudDataList@CloudServer@2@$1?KeyDataListComp@42@KAHAEBU12@AEBQEAU342@@Z@DataStructures@@QEAAXAEBQEAUCloudDataList@CloudServer@RakNet@@IPEBDI@Z @3190
?InsertAtIndex@?$OrderedList@UCloudKey@RakNet@@PEAUKeySubscriberID@CloudServer@2@$1?KeySubscriberIDComp@42@KAHAEBU12@AEBQEAU342@@Z@DataStructures@@QEAAXAEBQEAUKeySubscriberID@CloudServer@RakNet@@IPEBDI@Z @3191
?InsertAtIndex@?$OrderedList@UCloudKey@RakNet@@U12@$1?CloudKeyComp@2@YAHAEBU12@0@Z@DataStructures@@QEAAXAEBUCloudKey@RakNet@@IPEBDI@Z @3192
?InsertAtIndex@?$OrderedList@URakNetGUID@RakNet@@PEAURemoteServer@CloudServer@2@$1?RemoteServerComp@42@KAHAEBU12@AEBQEAU342@@Z@DataStructures@@QEAAXAEBQEAURemoteServer@CloudServer@RakNet@@IPEBDI@Z @3193
?InsertAtIndex@?$OrderedList@URakNetGUID@RakNet@@PEAURemoteSystem@ConnectionGraph2@2@$1?RemoteSystemComp@42@SAHAEBU12@AEBQEAU342@@Z@DataStructures@@QEAAXAEBQEAURemoteSystem@ConnectionGraph2@RakNet@@IPEBDI@Z @3194
?InsertAtIndex@?$OrderedList@URakNetGUID@RakNet@@URemoteSystem@ReadyEvent@2@$1?RemoteSystemCompByGuid@42@SAHAEBU12@AEBU342@@Z@DataStructures@@QEAAXAEBURemoteSystem@ReadyEvent@RakNet@@IPEBDI@Z @3195
?InsertAtIndex@?$OrderedList@USenderAndTargetAddress@UDPProxyCoordinator@RakNet@@PEAUForwardingRequest@23@$1?ForwardingRequestComp@23@KAHAEBU123@AEBQEAU423@@Z@DataStructures@@QEAAXAEBQEAUForwardingRequest@UDPProxyCoordinator@RakNet@@IPEBDI@Z @3196
?InsertAtIndex@?$OrderedList@USystemAddress@RakNet@@U12@$1??$defaultOrderedListComparison@USystemAddress@RakNet@@U12@@DataStructures@@YAHAEBU12@0@Z@DataStructures@@QEAAXAEBUSystemAddress@RakNet@@IPEBDI@Z @3197
?InsertAtIndex@?$OrderedList@USystemAddressAndGuid@ConnectionGraph2@RakNet@@U123@$1?SystemAddressAndGuidComp@23@SAHAEBU123@0@Z@DataStructures@@QEAAXAEBUSystemAddressAndGuid@ConnectionGraph2@RakNet@@IPEBDI@Z @3198
?InsertAtIndex@?$OrderedList@Uuint24_t@RakNet@@U?$RangeNode@Uuint24_t@RakNet@@@DataStructures@@$1??$RangeNodeComp@Uuint24_t@RakNet@@@4@YAHAEBU12@AEBU34@@Z@DataStructures@@QEAAXAEBU?$RangeNode@Uuint24_t@RakNet@@@2@IPEBDI@Z @3199
?InsertAtIndex@?$OrderedList@VRakString@RakNet@@V12@$1??$defaultOrderedListComparison@VRakString@RakNet@@V12@@DataStructures@@YAHAEBV12@0@Z@DataStructures@@QEAAXAEBVRakString@RakNet@@IPEBDI@Z @3200
?InsertAtIndex@?$OrderedList@_KPEAUTrackedObject@StatisticsHistory@RakNet@@$1?TrackedObjectComp@23@SAHAEB_KAEBQEAU123@@Z@DataStructures@@QEAAXAEBQEAUTrackedObject@StatisticsHistory@RakNet@@IPEBDI@Z @3201
?InsertBranchDown@?$BPlusTree@IPEAURow@Table@DataStructures@@$0BA@@DataStructures@@IEAAPEAU?$Page@IPEAURow@Table@DataStructures@@$0BA@@2@IAEBQEAURow@Table@2@PEAU32@PEAUReturnAction@12@PEA_N@Z @3202
?InsertIntoNode@?$BPlusTree@IPEAURow@Table@DataStructures@@$0BA@@DataStructures@@IEAAPEAU?$Page@IPEAURow@Table@DataStructures@@$0BA@@2@IAEBQEAURow@Table@2@HPEAU32@1PEAUReturnAction@12@@Z @3203
?InsertNodeIntoSortedList@HuffmanEncodingTree@RakNet@@AEBAXPEAUHuffmanEncodingTreeNode@@PEAV?$LinkedList@PEAUHuffmanEncodingTreeNode@@@DataStructures@@@Z @3204
?Instance@StringCompressor@RakNet@@SAPEAV12@XZ @3205
?Instance@StringTable@RakNet@@SAPEAV12@XZ @3206
?InterruptSignal@RPC4@RakNet@@QEAAXXZ @3207
?InvokeSignal@RPC4@RakNet@@IEAAXUHashIndex@DataStructures@@PEAVBitStream@2@PEAUPacket@2@@Z @3208
?IsActive@RakPeer@RakNet@@UEBA_NXZ @3209
?IsBanned@RakPeer@RakNet@@UEAA_NPEBD@Z @3210
?IsBerkleySocket@RakNetSocket2@RakNet@@QEBA_NXZ @3211
?IsBigEndian@BitStream@RakNet@@SA_NXZ @3212
?IsBusy@HTTPConnection2@RakNet@@QEBA_NXZ @3213
?IsBusy@HTTPConnection@RakNet@@QEBA_NXZ @3214
?IsCompleted@DynDNS@RakNet@@QEBA_NXZ @3215
?IsConnected@HTTPConnection2@RakNet@@IEAA_NUSystemAddress@2@@Z @3216
?IsConnectedHost@FullyConnectedMesh2@RakNet@@QEBA_NXZ @3217
?IsEmailAddress@RakString@RakNet@@QEBA_NXZ @3218
?IsEmpty@?$Queue@PEAUBufferedCommandStruct@RakPeer@RakNet@@@DataStructures@@QEBA_NXZ @3219
?IsEmpty@?$Queue@PEAUFileToPush@FileListTransfer@RakNet@@@DataStructures@@QEBA_NXZ @3220
?IsEmpty@?$Queue@PEAUPacket@RakNet@@@DataStructures@@QEBA_NXZ @3221
?IsEmpty@?$Queue@PEAURequestedConnectionStruct@RakPeer@RakNet@@@DataStructures@@QEBA_NXZ @3222
?IsEmpty@?$Queue@PEAUSocketQueryOutput@RakPeer@RakNet@@@DataStructures@@QEBA_NXZ @3223
?IsEmpty@?$Queue@PEAUStartForwardingInputStruct@UDPForwarder@RakNet@@@DataStructures@@QEBA_NXZ @3224
?IsEmpty@?$Queue@PEAUStopForwardingStruct@UDPForwarder@RakNet@@@DataStructures@@QEBA_NXZ @3225
?IsEmpty@?$Queue@PEAUSystemAddress@RakNet@@@DataStructures@@QEBA_NXZ @3226
?IsEmpty@?$Queue@UBadResponse@HTTPConnection@RakNet@@@DataStructures@@QEBA_NXZ @3227
?IsEmpty@?$Queue@UDSTAndFac@NatPunchthroughClient@RakNet@@@DataStructures@@QEBA_NXZ @3228
?IsEmpty@?$Queue@UDatagramHistoryNode@ReliabilityLayer@RakNet@@@DataStructures@@QEBA_NXZ @3229
?IsEmpty@?$Queue@UOutgoingCommand@HTTPConnection@RakNet@@@DataStructures@@QEBA_NXZ @3230
?IsEmpty@?$Queue@USystemAddress@RakNet@@@DataStructures@@QEBA_NXZ @3231
?IsEmpty@?$Queue@UTimeAndValue2@BPSTracker@RakNet@@@DataStructures@@QEBA_NXZ @3232
?IsEmpty@?$Queue@VRakString@RakNet@@@DataStructures@@QEBA_NXZ @3233
?IsEmpty@?$ThreadsafeAllocatingQueue@UPacket@RakNet@@@DataStructures@@QEAA_NXZ @3234
?IsEmpty@RakString@RakNet@@QEBA_NXZ @3235
?IsEmpty@RakWString@RakNet@@QEBA_NXZ @3236
?IsHandlerActive@FileListTransfer@RakNet@@QEAA_NG@Z @3237
?IsHostSystem@FullyConnectedMesh2@RakNet@@QEBA_NXZ @3238
?IsIn@?$CircularLinkedList@PEAUHuffmanEncodingTreeNode@@@DataStructures@@QEAA_NAEBQEAUHuffmanEncodingTreeNode@@@Z @3239
?IsInProgress@NatTypeDetectionClient@RakNet@@IEBA_NXZ @3240
?IsInSecurityExceptionList@RakPeer@RakNet@@UEAA_NPEBD@Z @3241
?IsInitialized@RakVoice@RakNet@@QEAA_NXZ @3242
?IsLANAddress@SystemAddress@RakNet@@QEAA_NXZ @3243
?IsLocalIP@RakPeer@RakNet@@UEAA_NPEBD@Z @3244
?IsLoopback@SystemAddress@RakNet@@QEBA_NXZ @3245
?IsLoopbackAddress@RakPeer@RakNet@@IEBA_NAEBUAddressOrGUID@2@_N@Z @3246
?IsLoopbackMode@RakVoice@RakNet@@QEBA_NXZ @3247
?IsNetworkOrder@BitStream@RakNet@@SA_NXZ @3248
?IsNetworkOrderInternal@BitStream@RakNet@@SA_NXZ @3249
?IsNetworkSimulatorActive@RakPeer@RakNet@@UEAA_NXZ @3250
?IsOnTeam@TM_TeamMember@RakNet@@QEBA_NPEAVTM_Team@2@@Z @3251
?IsPortInUse@IRNS2_Berkley@RakNet@@SA_NGPEBDGH@Z @3252
?IsRunning@DynDNS@RakNet@@QEBA_NXZ @3253
?IsSlash@@YA_NE@Z @3254
?IsUndefined@AddressOrGUID@RakNet@@QEBA_NXZ @3255
?ItemAtIndex@?$Hash@UAddressOrGUID@RakNet@@UFilteredSystem@2@$0IAA@$1?ToInteger@12@SAKAEBU12@@Z@DataStructures@@QEAAAEAUFilteredSystem@RakNet@@AEBUHashIndex@2@@Z @3256
?ItemAtIndex@?$Hash@URakNetGUID@RakNet@@PEAURemoteCloudClient@CloudServer@2@$0IAA@$1?ToUint32@12@SAKAEBU12@@Z@DataStructures@@QEAAAEAPEAURemoteCloudClient@CloudServer@RakNet@@AEBUHashIndex@2@@Z @3257
?ItemAtIndex@?$Hash@VRakString@RakNet@@P6AXPEAVBitStream@2@0PEAUPacket@2@@Z$0EA@$1?ToInteger@12@SAKAEBV12@@Z@DataStructures@@QEAAAEAP6AXPEAVBitStream@RakNet@@0PEAUPacket@4@@ZAEBUHashIndex@2@@Z @3258
?ItemAtIndex@?$Hash@VRakString@RakNet@@P6AXPEAVBitStream@2@PEAUPacket@2@@Z$0EA@$1?ToInteger@12@SAKAEBV12@@Z@DataStructures@@QEAAAEAP6AXPEAVBitStream@RakNet@@PEAUPacket@4@@ZAEBUHashIndex@2@@Z @3259
?ItemAtIndex@?$Hash@VRakString@RakNet@@PEAULocalSlot@RPC4@2@$0BAA@$1?ToInteger@12@SAKAEBV12@@Z@DataStructures@@QEAAAEAPEAULocalSlot@RPC4@RakNet@@AEBUHashIndex@2@@Z @3260
?ItemAtIndex@?$Hash@VRakString@RakNet@@PEAUTimeAndValueQueue@StatisticsHistory@2@$0CA@$1?ToInteger@12@SAKAEBV12@@Z@DataStructures@@QEAAAEAPEAUTimeAndValueQueue@StatisticsHistory@RakNet@@AEBUHashIndex@2@@Z @3261
?ItemAtIndex@?$Hash@VRakString@RakNet@@V12@$0BA@$1?ToInteger@12@SAKAEBV12@@Z@DataStructures@@QEAAAEAVRakString@RakNet@@AEBUHashIndex@2@@Z @3262
?ItemAtIndex@?$Hash@_KPEAVTM_Team@RakNet@@$0BAA@$1?ToUint32@12@SAKAEB_K@Z@DataStructures@@QEAAAEAPEAVTM_Team@RakNet@@AEBUHashIndex@2@@Z @3263
?ItemAtIndex@?$Hash@_KPEAVTM_TeamMember@RakNet@@$0BAA@$1?ToUint32@12@SAKAEB_K@Z@DataStructures@@QEAAAEAPEAVTM_TeamMember@RakNet@@AEBUHashIndex@2@@Z @3264
?JoinAnyTeamCheck@TM_TeamMember@RakNet@@IEBA_NXZ @3265
?JoinGroup@RelayPlugin@RakNet@@IEAAPEAURP_Group@12@PEAU312@PEAPEAUStrAndGuidAndRoom@12@@Z @3266
?JoinGroup@RelayPlugin@RakNet@@IEAAPEAURP_Group@12@URakNetGUID@2@VRakString@2@@Z @3267
?JoinGroupRequest@RelayPlugin@RakNet@@QEAAXAEBURakNetGUID@2@VRakString@2@@Z @3268
?JoinSpecificTeamCheck@TM_TeamMember@RakNet@@IEBA_NPEAVTM_Team@2@_N@Z @3269
?KeyDataListComp@CloudServer@RakNet@@KAHAEBUCloudKey@2@AEBQEAUCloudDataList@12@@Z @3270
?KeyDataPtrComp@CloudServer@RakNet@@KAHAEBURakNetGUID@2@AEBQEAUCloudData@12@@Z @3271
?KeySubscriberIDComp@CloudServer@RakNet@@KAHAEBUCloudKey@2@AEBQEAUKeySubscriberID@12@@Z @3272
?LeaveAllTeams@TM_TeamMember@RakNet@@QEAA_NE@Z @3273
?LeaveGroup@RelayPlugin@RakNet@@IEAAXPEAPEAUStrAndGuidAndRoom@12@@Z @3274
?LeaveGroup@RelayPlugin@RakNet@@QEAAXAEBURakNetGUID@2@@Z @3275
?LeaveTeam@TM_Team@RakNet@@QEAAXPEAVTM_TeamMember@2@E@Z @3276
?LeaveTeam@TM_TeamMember@RakNet@@QEAA_NPEAVTM_Team@2@E@Z @3277
?LeaveTeamCheck@TM_TeamMember@RakNet@@IEBA_NPEAVTM_Team@2@@Z @3278
?LeftChild@?$Heap@_KPEAUInternalPacket@RakNet@@$0A@@DataStructures@@IEBAII@Z @3279
?LessThan@RakNet@@YA_N_K0@Z @3280
?ListFlavors@Rackspace@RakNet@@QEAAXXZ @3281
?ListImages@Rackspace@RakNet@@QEAAXXZ @3282
?ListMissingOrChangedFiles@FileList@RakNet@@QEAAXPEBDPEAV12@_N2@Z @3283
?ListParsers@ConsoleServer@RakNet@@IEAAXUSystemAddress@2@@Z @3284
?ListServerAddresses@Rackspace@RakNet@@QEAAXVRakString@2@@Z @3285
?ListServers@Rackspace@RakNet@@QEAAXXZ @3286
?ListServersWithDetails@Rackspace@RakNet@@QEAAXXZ @3287
?ListSharedIPGroups@Rackspace@RakNet@@QEAAXXZ @3288
?ListSharedIPGroupsWithDetails@Rackspace@RakNet@@QEAAXXZ @3289
?LocalCallbackComp@RPC4@RakNet@@SAHAEBEAEBQEAULocalCallback@12@@Z @3290
?LocalSlotObjectComp@RPC4@RakNet@@SAHAEBULocalSlotObject@12@0@Z @3291
?Lock@SimpleMutex@RakNet@@QEAAXXZ @3292
?LockInput@?$ThreadPool@UThreadData@FileListTransfer@RakNet@@H@@QEAAXXZ @3293
?LockMutex@RakString@RakNet@@SAXXZ @3294
?LogHeader@PacketLogger@RakNet@@UEAAXXZ @3295
?LogStringNotFound@StringTable@RakNet@@IEAAXPEBD@Z @3296
?LoginToCoordinator@UDPProxyServer@RakNet@@QEAA_NVRakString@2@USystemAddress@2@@Z @3297
?MakeFilePath@RakString@RakNet@@QEAAAEAV12@XZ @3298
?Merge@?$CircularLinkedList@PEAUHuffmanEncodingTreeNode@@@DataStructures@@AEAA?AV12@V12@0@Z @3299
?MergeAllObjectsOnKey@StatisticsHistory@RakNet@@QEBAXVRakString@2@PEAUTimeAndValueQueue@12@W4SHDataCategory@12@@Z @3300
?Mergesort@?$CircularLinkedList@PEAUHuffmanEncodingTreeNode@@@DataStructures@@AEAA?AV12@AEBV12@@Z @3301
?MessageFilterStrComp@RakNet@@YAHAEBQEAD0@Z @3302
?MoveMemberThatWantsToJoinTeam@TeamBalancer@RakNet@@IEAAXE@Z @3303
?MoveMemberThatWantsToJoinTeamInternal@TeamBalancer@RakNet@@IEAAEE@Z @3304
?NATTypeDetectionResultToString@RakNet@@YAPEBDW4NATTypeDetectionResult@1@@Z @3305
?NATTypeDetectionResultToStringFriendly@RakNet@@YAPEBDW4NATTypeDetectionResult@1@@Z @3306
?NatPunchthroughUserComp@NatPunchthroughServer@RakNet@@SAHAEBURakNetGUID@2@AEBQEAUUser@12@@Z @3307
?NetworkIDToHashIndex@NetworkIDManager@RakNet@@IEAAI_K@Z @3308
?NodeComparisonFunc@?$Map@GPEAUFileListReceiver@RakNet@@$1??$defaultMapKeyComparison@G@DataStructures@@YAHAEBG0@Z@DataStructures@@SAHAEBGAEBUMapNode@12@@Z @3309
?NodeComparisonFunc@?$Map@HPEAVHuffmanEncodingTree@RakNet@@$1??$defaultMapKeyComparison@H@DataStructures@@YAHAEBH0@Z@DataStructures@@SAHAEBHAEBUMapNode@12@@Z @3310
?NodeComparisonFunc@?$Map@IUFLR_MemoryBlock@RakNet@@$1??$defaultMapKeyComparison@I@DataStructures@@YAHAEBI0@Z@DataStructures@@SAHAEBIAEBUMapNode@12@@Z @3311
?NodeComparisonFunc@?$Map@USystemAddress@RakNet@@PEAVByteQueue@DataStructures@@$1??$defaultMapKeyComparison@USystemAddress@RakNet@@@4@YAHAEBU12@0@Z@DataStructures@@SAHAEBUSystemAddress@RakNet@@AEBUMapNode@12@@Z @3312
?NonVariadic@RakString@RakNet@@SA?AV12@PEBD@Z @3313
?NotifyAndFlagForShutdown@RakPeer@RakNet@@IEAAXUSystemAddress@2@_NEW4PacketPriority@@@Z @3314
?NotifyClientSubscribersOfDataChange@CloudServer@RakNet@@IEAAXPEAUCloudData@12@AEAUCloudKey@2@AEAV?$OrderedList@URakNetGUID@RakNet@@U12@$1??$defaultOrderedListComparison@URakNetGUID@RakNet@@U12@@DataStructures@@YAHAEBU12@0@Z@DataStructures@@_N@Z @3315
?NotifyClientSubscribersOfDataChange@CloudServer@RakNet@@IEAAXPEAUCloudQueryRow@2@AEAV?$OrderedList@URakNetGUID@RakNet@@U12@$1??$defaultOrderedListComparison@URakNetGUID@RakNet@@U12@@DataStructures@@YAHAEBU12@0@Z@DataStructures@@_N@Z @3316
?NotifyNoTeam@TeamBalancer@RakNet@@IEAAX_KURakNetGUID@2@@Z @3317
?NotifyServerSubscribersOfDataChange@CloudServer@RakNet@@IEAAXPEAUCloudData@12@AEAUCloudKey@2@_N@Z @3318
?NotifyTeamAssigment@TeamBalancer@RakNet@@IEAAXI@Z @3319
?NotifyTeamSwitchPending@TeamBalancer@RakNet@@IEAAXURakNetGUID@2@E_K@Z @3320
?NotifyTeamsLocked@TeamBalancer@RakNet@@IEAAXURakNetGUID@2@E@Z @3321
?NotifyUsersInRoom@RelayPlugin@RakNet@@IEAAXPEAURP_Group@12@HAEBVRakString@2@@Z @3322
?NumberOfConnections@RakPeer@RakNet@@UEBAGXZ @3323
?NumberOfLeadingZeroes@BitStream@RakNet@@SAHC@Z @3324
?NumberOfLeadingZeroes@BitStream@RakNet@@SAHE@Z @3325
?NumberOfLeadingZeroes@BitStream@RakNet@@SAHF@Z @3326
?NumberOfLeadingZeroes@BitStream@RakNet@@SAHG@Z @3327
?NumberOfLeadingZeroes@BitStream@RakNet@@SAHH@Z @3328
?NumberOfLeadingZeroes@BitStream@RakNet@@SAHI@Z @3329
?NumberOfLeadingZeroes@BitStream@RakNet@@SAH_J@Z @3330
?NumberOfLeadingZeroes@BitStream@RakNet@@SAH_K@Z @3331
?OPUS_test@RakVoice@RakNet@@QEAAHHHH@Z @3332
?OnAck@PacketLogger@RakNet@@UEAAXIUSystemAddress@2@I@Z @3333
?OnAck@PluginInterface2@RakNet@@UEAAXIUSystemAddress@2@I@Z @3334
?OnAddFilesFromDirectoryStarted@FLP_Printf@RakNet@@UEAAXPEAVFileList@2@PEAD@Z @3335
?OnAddFilesFromDirectoryStarted@FileListProgress@RakNet@@UEAAXPEAVFileList@2@PEAD@Z @3336
?OnAddToRequestedTeams@TeamManager@RakNet@@IEAAXPEAUPacket@2@PEAVTM_World@2@@Z @3337
?OnAttach@FullyConnectedMesh2@RakNet@@UEAAXXZ @3338
?OnAttach@NatPunchthroughClient@RakNet@@UEAAXXZ @3339
?OnAttach@PluginInterface2@RakNet@@UEAAXXZ @3340
?OnAttach@RPC4@RakNet@@MEAAXXZ @3341
?OnAttach@TeamBalancer@RakNet@@MEAAXXZ @3342
?OnAttach@UDPProxyServer@RakNet@@UEAAXXZ @3343
?OnAuthenticationResult@RackspaceEventCallback_Default@RakNet@@UEAAXW4RackspaceEventType@2@PEBD@Z @3344
?OnCancelTeamRequest@TeamBalancer@RakNet@@IEAAXPEAUPacket@2@@Z @3345
?OnClientMessage@NatPunchthroughDebugInterface_PacketLogger@RakNet@@UEAAXPEBD@Z @3346
?OnClientMessage@NatPunchthroughDebugInterface_Printf@RakNet@@UEAAXPEBD@Z @3347
?OnClientReady@NatPunchthroughServer@RakNet@@IEAAXPEAUPacket@2@@Z @3348
?OnClosedConnection@CloudServer@RakNet@@MEAAXAEBUSystemAddress@2@URakNetGUID@2@W4PI2_LostConnectionReason@2@@Z @3349
?OnClosedConnection@ConnectionGraph2@RakNet@@MEAAXAEBUSystemAddress@2@URakNetGUID@2@W4PI2_LostConnectionReason@2@@Z @3350
?OnClosedConnection@FileListTransfer@RakNet@@UEAAXAEBUSystemAddress@2@URakNetGUID@2@W4PI2_LostConnectionReason@2@@Z @3351
?OnClosedConnection@FullyConnectedMesh2@RakNet@@UEAAXAEBUSystemAddress@2@URakNetGUID@2@W4PI2_LostConnectionReason@2@@Z @3352
?OnClosedConnection@HTTPConnection2@RakNet@@UEAAXAEBUSystemAddress@2@URakNetGUID@2@W4PI2_LostConnectionReason@2@@Z @3353
?OnClosedConnection@MessageFilter@RakNet@@UEAAXAEBUSystemAddress@2@URakNetGUID@2@W4PI2_LostConnectionReason@2@@Z @3354
?OnClosedConnection@NatPunchthroughClient@RakNet@@UEAAXAEBUSystemAddress@2@URakNetGUID@2@W4PI2_LostConnectionReason@2@@Z @3355
?OnClosedConnection@NatPunchthroughServer@RakNet@@UEAAXAEBUSystemAddress@2@URakNetGUID@2@W4PI2_LostConnectionReason@2@@Z @3356
?OnClosedConnection@NatTypeDetectionClient@RakNet@@UEAAXAEBUSystemAddress@2@URakNetGUID@2@W4PI2_LostConnectionReason@2@@Z @3357
?OnClosedConnection@NatTypeDetectionServer@RakNet@@UEAAXAEBUSystemAddress@2@URakNetGUID@2@W4PI2_LostConnectionReason@2@@Z @3358
?OnClosedConnection@PluginInterface2@RakNet@@UEAAXAEBUSystemAddress@2@URakNetGUID@2@W4PI2_LostConnectionReason@2@@Z @3359
?OnClosedConnection@Rackspace@RakNet@@QEAAXUSystemAddress@2@@Z @3360
?OnClosedConnection@RakNetTransport2@RakNet@@UEAAXAEBUSystemAddress@2@URakNetGUID@2@W4PI2_LostConnectionReason@2@@Z @3361
?OnClosedConnection@RakVoice@RakNet@@UEAAXAEBUSystemAddress@2@URakNetGUID@2@W4PI2_LostConnectionReason@2@@Z @3362
?OnClosedConnection@RelayPlugin@RakNet@@UEAAXAEBUSystemAddress@2@URakNetGUID@2@W4PI2_LostConnectionReason@2@@Z @3363
?OnClosedConnection@ReplicaManager3@RakNet@@MEAAXAEBUSystemAddress@2@URakNetGUID@2@W4PI2_LostConnectionReason@2@@Z @3364
?OnClosedConnection@Router2@RakNet@@UEAAXAEBUSystemAddress@2@URakNetGUID@2@W4PI2_LostConnectionReason@2@@Z @3365
?OnClosedConnection@StatisticsHistoryPlugin@RakNet@@MEAAXAEBUSystemAddress@2@URakNetGUID@2@W4PI2_LostConnectionReason@2@@Z @3366
?OnClosedConnection@TeamBalancer@RakNet@@MEAAXAEBUSystemAddress@2@URakNetGUID@2@W4PI2_LostConnectionReason@2@@Z @3367
?OnClosedConnection@TeamManager@RakNet@@MEAAXAEBUSystemAddress@2@URakNetGUID@2@W4PI2_LostConnectionReason@2@@Z @3368
?OnClosedConnection@TwoWayAuthentication@RakNet@@UEAAXAEBUSystemAddress@2@URakNetGUID@2@W4PI2_LostConnectionReason@2@@Z @3369
?OnClosedConnection@UDPProxyCoordinator@RakNet@@UEAAXAEBUSystemAddress@2@URakNetGUID@2@W4PI2_LostConnectionReason@2@@Z @3370
?OnClosedConnection@UDPProxyServer@RakNet@@UEAAXAEBUSystemAddress@2@URakNetGUID@2@W4PI2_LostConnectionReason@2@@Z @3371
?OnCommand@LogCommandParser@RakNet@@UEAA_NPEBDIPEAPEADPEAVTransportInterface@2@AEBUSystemAddress@2@0@Z @3372
?OnCommand@RakNetCommandParser@RakNet@@UEAA_NPEBDIPEAPEADPEAVTransportInterface@2@AEBUSystemAddress@2@0@Z @3373
?OnCompletion@NatTypeDetectionClient@RakNet@@IEAAXW4NATTypeDetectionResult@2@@Z @3374
?OnConfirmResizedServer@RackspaceEventCallback_Default@RakNet@@UEAAXW4RackspaceEventType@2@PEBD@Z @3375
?OnConnectAtTime@NatPunchthroughClient@RakNet@@IEAAXPEAUPacket@2@@Z @3376
?OnConnectedPong@RakPeer@RakNet@@IEAAX_K0PEAURemoteSystemStruct@12@@Z @3377
?OnConnectionAttemptFailure@RackspaceEventCallback_Default@RakNet@@UEAAXW4RackspaceOperationType@2@PEBD@Z @3378
?OnConnectionLost@CommandParserInterface@RakNet@@UEAAXAEBUSystemAddress@2@PEAVTransportInterface@2@@Z @3379
?OnConnectionLost@LogCommandParser@RakNet@@UEAAXAEBUSystemAddress@2@PEAVTransportInterface@2@@Z @3380
?OnConnectionRequest@RakPeer@RakNet@@IEAAXPEAURemoteSystemStruct@12@_K@Z @3381
?OnConstructToThisConnection@Connection_RM3@RakNet@@IEAAXIPEAVReplicaManager3@2@@Z @3382
?OnConstructToThisConnection@Connection_RM3@RakNet@@IEAAXPEAVReplica3@2@PEAVReplicaManager3@2@@Z @3383
?OnConstruction@ReplicaManager3@RakNet@@IEAA?AW4PluginReceiveResult@2@PEAUPacket@2@PEAEHURakNetGUID@2@EE@Z @3384
?OnCreateImageResult@RackspaceEventCallback_Default@RakNet@@UEAAXW4RackspaceEventType@2@PEBD@Z @3385
?OnCreateServerResult@RackspaceEventCallback_Default@RakNet@@UEAAXW4RackspaceEventType@2@PEBD@Z @3386
?OnCreateSharedIPGroup@RackspaceEventCallback_Default@RakNet@@UEAAXW4RackspaceEventType@2@PEBD@Z @3387
?OnDeleteImageResult@RackspaceEventCallback_Default@RakNet@@UEAAXW4RackspaceEventType@2@PEBD@Z @3388
?OnDeleteServer@RackspaceEventCallback_Default@RakNet@@UEAAXW4RackspaceEventType@2@PEBD@Z @3389
?OnDeleteServerAddress@RackspaceEventCallback_Default@RakNet@@UEAAXW4RackspaceEventType@2@PEBD@Z @3390
?OnDeleteSharedIPGroup@RackspaceEventCallback_Default@RakNet@@UEAAXW4RackspaceEventType@2@PEBD@Z @3391
?OnDereference@Connection_RM3@RakNet@@IEAAXPEAVReplica3@2@PEAVReplicaManager3@2@@Z @3392
?OnDetach@NatPunchthroughClient@RakNet@@UEAAXXZ @3393
?OnDetach@NatTypeDetectionClient@RakNet@@UEAAXXZ @3394
?OnDetach@PluginInterface2@RakNet@@UEAAXXZ @3395
?OnDetach@ReplicaManager3@RakNet@@MEAAXXZ @3396
?OnDetach@UDPProxyServer@RakNet@@UEAAXXZ @3397
?OnDetectionRequest@NatTypeDetectionServer@RakNet@@IEAAXPEAUPacket@2@@Z @3398
?OnDirectSocketReceive@PacketLogger@RakNet@@UEAAXPEBDIUSystemAddress@2@@Z @3399
?OnDirectSocketReceive@PluginInterface2@RakNet@@UEAAXPEBDIUSystemAddress@2@@Z @3400
?OnDirectSocketSend@PacketLogger@RakNet@@UEAAXPEBDIUSystemAddress@2@@Z @3401
?OnDirectSocketSend@PluginInterface2@RakNet@@UEAAXPEBDIUSystemAddress@2@@Z @3402
?OnDirectory@FLP_Printf@RakNet@@UEAAXPEAVFileList@2@PEADI@Z @3403
?OnDirectory@FileListProgress@RakNet@@UEAAXPEAVFileList@2@PEADI@Z @3404
?OnDoNotQueryDestruction@Connection_RM3@RakNet@@IEAAXIPEAVReplicaManager3@2@@Z @3405
?OnDownloadComplete@ReplicaManager3@RakNet@@IEAA?AW4PluginReceiveResult@2@PEAUPacket@2@PEAEHURakNetGUID@2@EE@Z @3406
?OnDownloadExisting@Connection_RM3@RakNet@@IEAAXPEAVReplica3@2@PEAVReplicaManager3@2@@Z @3407
?OnDownloadFromOtherSystem@Connection_RM3@RakNet@@IEAAXPEAVReplica3@2@PEAVReplicaManager3@2@@Z @3408
?OnDownloadFromThisSystem@Connection_RM3@RakNet@@IEAAXPEAVReplica3@2@PEAVReplicaManager3@2@@Z @3409
?OnDownloadRequest@DirectoryDeltaTransfer@RakNet@@IEAAXPEAUPacket@2@@Z @3410
?OnDownloadStarted@ReplicaManager3@RakNet@@IEAA?AW4PluginReceiveResult@2@PEAUPacket@2@PEAEHURakNetGUID@2@EE@Z @3411
?OnFailedConnectionAttempt@FullyConnectedMesh2@RakNet@@UEAAXPEAUPacket@2@W4PI2_FailedConnectionAttemptReason@2@@Z @3412
?OnFailedConnectionAttempt@HTTPConnection2@RakNet@@UEAAXPEAUPacket@2@W4PI2_FailedConnectionAttemptReason@2@@Z @3413
?OnFailedConnectionAttempt@PluginInterface2@RakNet@@UEAAXPEAUPacket@2@W4PI2_FailedConnectionAttemptReason@2@@Z @3414
?OnFailedConnectionAttempt@Router2@RakNet@@UEAAXPEAUPacket@2@W4PI2_FailedConnectionAttemptReason@2@@Z @3415
?OnFailureNotification@NatPunchthroughClient@RakNet@@IEAAXPEAUPacket@2@@Z @3416
?OnFile@FileListProgress@RakNet@@UEAAXPEAVFileList@2@PEAD1I@Z @3417
?OnFilePush@FileListProgress@RakNet@@UEAAXPEBDIII_NUSystemAddress@2@G@Z @3418
?OnFilePushesComplete@FLP_Printf@RakNet@@UEAAXUSystemAddress@2@G@Z @3419
?OnFilePushesComplete@FileListProgress@RakNet@@UEAAXUSystemAddress@2@G@Z @3420
?OnForwardingReplyFromServerToCoordinator@UDPProxyCoordinator@RakNet@@IEAAXPEAUPacket@2@@Z @3421
?OnForwardingRequestFromClientToCoordinator@UDPProxyCoordinator@RakNet@@IEAAXPEAUPacket@2@@Z @3422
?OnForwardingRequestFromCoordinatorToServer@UDPProxyServer@RakNet@@IEAAXPEAUPacket@2@@Z @3423
?OnForwardingSuccess@Router2@RakNet@@IEAA_NPEAUPacket@2@@Z @3424
?OnGet@CloudClientCallback@RakNet@@UEAAXPEAUCloudQueryResult@2@PEA_N@Z @3425
?OnGetFlavorDetailsResult@RackspaceEventCallback_Default@RakNet@@UEAAXW4RackspaceEventType@2@PEBD@Z @3426
?OnGetImageDetailsResult@RackspaceEventCallback_Default@RakNet@@UEAAXW4RackspaceEventType@2@PEBD@Z @3427
?OnGetMostRecentPort@NatPunchthroughClient@RakNet@@IEAAXPEAUPacket@2@@Z @3428
?OnGetMostRecentPort@NatPunchthroughServer@RakNet@@IEAAXPEAUPacket@2@@Z @3429
?OnGetReponse@CloudClient@RakNet@@UEAAXPEAUCloudQueryResult@2@PEAUPacket@2@PEAVCloudAllocator@2@@Z @3430
?OnGetReponse@CloudClient@RakNet@@UEAAXPEAUPacket@2@PEAVCloudClientCallback@2@PEAVCloudAllocator@2@@Z @3431
?OnGetRequest@CloudServer@RakNet@@MEAAXPEAUPacket@2@@Z @3432
?OnGetServerDetails@RackspaceEventCallback_Default@RakNet@@UEAAXW4RackspaceEventType@2@PEBD@Z @3433
?OnGetSharedIPGroupDetails@RackspaceEventCallback_Default@RakNet@@UEAAXW4RackspaceEventType@2@PEBD@Z @3434
?OnGroupMessageFromClient@RelayPlugin@RakNet@@IEAAXPEAUPacket@2@@Z @3435
?OnHashedNonceAndPassword@TwoWayAuthentication@RakNet@@IEAA?AW4PluginReceiveResult@2@PEAUPacket@2@@Z @3436
?OnInformFCMGuid@FullyConnectedMesh2@RakNet@@IEAAXPEAUPacket@2@@Z @3437
?OnInternalPacket@PacketLogger@RakNet@@UEAAXPEAUInternalPacket@2@IUSystemAddress@2@IH@Z @3438
?OnInternalPacket@PluginInterface2@RakNet@@UEAAXPEAUInternalPacket@2@IUSystemAddress@2@IH@Z @3439
?OnInvalidMessage@MessageFilter@RakNet@@IEAAXPEAUFilterSet@2@UAddressOrGUID@2@E@Z @3440
?OnJoinAnyTeam@TeamManager@RakNet@@IEAAXPEAUPacket@2@PEAVTM_World@2@@Z @3441
?OnJoinGroupRequestFromClient@RelayPlugin@RakNet@@IEAAXPEAUPacket@2@@Z @3442
?OnJoinRequestedTeam@TeamManager@RakNet@@IEAAXPEAUPacket@2@PEAVTM_World@2@@Z @3443
?OnLeaveGroupRequestFromClient@RelayPlugin@RakNet@@IEAAXPEAUPacket@2@@Z @3444
?OnLeaveTeam@TeamManager@RakNet@@IEAAXPEAUPacket@2@PEAVTM_World@2@@Z @3445
?OnListFlavorsResult@RackspaceEventCallback_Default@RakNet@@UEAAXW4RackspaceEventType@2@PEBD@Z @3446
?OnListImagesResult@RackspaceEventCallback_Default@RakNet@@UEAAXW4RackspaceEventType@2@PEBD@Z @3447
?OnListServerAddresses@RackspaceEventCallback_Default@RakNet@@UEAAXW4RackspaceEventType@2@PEBD@Z @3448
?OnListServersResult@RackspaceEventCallback_Default@RakNet@@UEAAXW4RackspaceEventType@2@PEBD@Z @3449
?OnListServersWithDetailsResult@RackspaceEventCallback_Default@RakNet@@UEAAXW4RackspaceEventType@2@PEBD@Z @3450
?OnListSharedIPGroups@RackspaceEventCallback_Default@RakNet@@UEAAXW4RackspaceEventType@2@PEBD@Z @3451
?OnListSharedIPGroupsWithDetails@RackspaceEventCallback_Default@RakNet@@UEAAXW4RackspaceEventType@2@PEBD@Z @3452
?OnLocalReference@Connection_RM3@RakNet@@IEAAXPEAVReplica3@2@PEAVReplicaManager3@2@@Z @3453
?OnLoginRequestFromServerToCoordinator@UDPProxyCoordinator@RakNet@@IEAAXPEAUPacket@2@@Z @3454
?OnMessageReceipt@VariableDeltaSerializer@RakNet@@QEAAXURakNetGUID@2@I_N@Z @3455
?OnMiniPunchReply@Router2@RakNet@@IEAAXPEAUPacket@2@@Z @3456
?OnMiniPunchReplyBounce@Router2@RakNet@@IEAAXPEAUPacket@2@@Z @3457
?OnNATPunchthroughRequest@NatPunchthroughServer@RakNet@@IEAAXPEAUPacket@2@@Z @3458
?OnNeverConstruct@Connection_RM3@RakNet@@IEAAXIPEAVReplicaManager3@2@@Z @3459
?OnNeverSerialize@Connection_RM3@RakNet@@IEAAXPEAULastSerializationResult@2@PEAVReplicaManager3@2@@Z @3460
?OnNewConnection@ConnectionGraph2@RakNet@@MEAAXAEBUSystemAddress@2@URakNetGUID@2@_N@Z @3461
?OnNewConnection@FullyConnectedMesh2@RakNet@@UEAAXAEBUSystemAddress@2@URakNetGUID@2@_N@Z @3462
?OnNewConnection@HTTPConnection2@RakNet@@UEAAXAEBUSystemAddress@2@URakNetGUID@2@_N@Z @3463
?OnNewConnection@MessageFilter@RakNet@@UEAAXAEBUSystemAddress@2@URakNetGUID@2@_N@Z @3464
?OnNewConnection@NatPunchthroughClient@RakNet@@UEAAXAEBUSystemAddress@2@URakNetGUID@2@_N@Z @3465
?OnNewConnection@NatPunchthroughServer@RakNet@@UEAAXAEBUSystemAddress@2@URakNetGUID@2@_N@Z @3466
?OnNewConnection@PluginInterface2@RakNet@@UEAAXAEBUSystemAddress@2@URakNetGUID@2@_N@Z @3467
?OnNewConnection@RakNetTransport2@RakNet@@UEAAXAEBUSystemAddress@2@URakNetGUID@2@_N@Z @3468
?OnNewConnection@ReplicaManager3@RakNet@@MEAAXAEBUSystemAddress@2@URakNetGUID@2@_N@Z @3469
?OnNewConnection@StatisticsHistoryPlugin@RakNet@@MEAAXAEBUSystemAddress@2@URakNetGUID@2@_N@Z @3470
?OnNewConnection@TeamManager@RakNet@@MEAAXAEBUSystemAddress@2@URakNetGUID@2@_N@Z @3471
?OnNewIncomingConnection@CommandParserInterface@RakNet@@UEAAXAEBUSystemAddress@2@PEAVTransportInterface@2@@Z @3472
?OnNewIncomingConnection@LogCommandParser@RakNet@@UEAAXAEBUSystemAddress@2@PEAVTransportInterface@2@@Z @3473
?OnNonceReply@TwoWayAuthentication@RakNet@@IEAAXPEAUPacket@2@@Z @3474
?OnNonceRequest@TwoWayAuthentication@RakNet@@IEAAXPEAUPacket@2@@Z @3475
?OnOpenChannelReply@RakVoice@RakNet@@IEAAXPEAUPacket@2@@Z @3476
?OnOpenChannelRequest@RakVoice@RakNet@@IEAAXPEAUPacket@2@@Z @3477
?OnPasswordResult@TwoWayAuthentication@RakNet@@IEAAXPEAUPacket@2@@Z @3478
?OnPingServers@UDPProxyClient@RakNet@@IEAAXPEAUPacket@2@@Z @3479
?OnPingServersReplyFromClientToCoordinator@UDPProxyCoordinator@RakNet@@IEAAXPEAUPacket@2@@Z @3480
?OnPoppedConnection@Replica3@RakNet@@UEAAXPEAVConnection_RM3@2@@Z @3481
?OnPostRequest@CloudServer@RakNet@@MEAAXPEAUPacket@2@@Z @3482
?OnPreSerializeTick@VariableDeltaSerializer@RakNet@@QEAAXXZ @3483
?OnPunchthroughFailure@NatPunchthroughClient@RakNet@@IEAAXXZ @3484
?OnPushBackPacket@PacketLogger@RakNet@@UEAAXPEBDIUSystemAddress@2@@Z @3485
?OnPushBackPacket@PluginInterface2@RakNet@@UEAAXPEBDIUSystemAddress@2@@Z @3486
?OnQueryForwarding@Router2@RakNet@@IEAAXPEAUPacket@2@@Z @3487
?OnQueryForwardingReply@Router2@RakNet@@IEAAXPEAUPacket@2@@Z @3488
?OnRNS2Recv@NatTypeDetectionClient@RakNet@@UEAAXPEAURNS2RecvStruct@2@@Z @3489
?OnRNS2Recv@NatTypeDetectionServer@RakNet@@UEAAXPEAURNS2RecvStruct@2@@Z @3490
?OnRNS2Recv@RakPeer@RakNet@@MEAAXPEAURNS2RecvStruct@2@@Z @3491
?OnRakPeerShutdown@CloudServer@RakNet@@MEAAXXZ @3492
?OnRakPeerShutdown@FileListTransfer@RakNet@@UEAAXXZ @3493
?OnRakPeerShutdown@FullyConnectedMesh2@RakNet@@UEAAXXZ @3494
?OnRakPeerShutdown@NatPunchthroughClient@RakNet@@UEAAXXZ @3495
?OnRakPeerShutdown@NatTypeDetectionClient@RakNet@@UEAAXXZ @3496
?OnRakPeerShutdown@PluginInterface2@RakNet@@UEAAXXZ @3497
?OnRakPeerShutdown@ReplicaManager3@RakNet@@MEAAXXZ @3498
?OnRakPeerShutdown@Router2@RakNet@@UEAAXXZ @3499
?OnRakPeerShutdown@TwoWayAuthentication@RakNet@@UEAAXXZ @3500
?OnRakPeerShutdown@UDPProxyClient@RakNet@@UEAAXXZ @3501
?OnRakPeerShutdown@UDPProxyServer@RakNet@@UEAAXXZ @3502
?OnRakPeerStartup@FullyConnectedMesh2@RakNet@@UEAAXXZ @3503
?OnRakPeerStartup@PluginInterface2@RakNet@@UEAAXXZ @3504
?OnRakPeerStartup@UDPProxyServer@RakNet@@UEAAXXZ @3505
?OnReadyForNextPunchthrough@NatPunchthroughClient@RakNet@@IEAAXXZ @3506
?OnRebootServer@RackspaceEventCallback_Default@RakNet@@UEAAXW4RackspaceEventType@2@PEBD@Z @3507
?OnRebuildServer@RackspaceEventCallback_Default@RakNet@@UEAAXW4RackspaceEventType@2@PEBD@Z @3508
?OnReceive@CloudClient@RakNet@@MEAA?AW4PluginReceiveResult@2@PEAUPacket@2@@Z @3509
?OnReceive@CloudServer@RakNet@@MEAA?AW4PluginReceiveResult@2@PEAUPacket@2@@Z @3510
?OnReceive@ConnectionGraph2@RakNet@@MEAA?AW4PluginReceiveResult@2@PEAUPacket@2@@Z @3511
?OnReceive@DirectoryDeltaTransfer@RakNet@@UEAA?AW4PluginReceiveResult@2@PEAUPacket@2@@Z @3512
?OnReceive@FileListTransfer@RakNet@@UEAA?AW4PluginReceiveResult@2@PEAUPacket@2@@Z @3513
?OnReceive@FullyConnectedMesh2@RakNet@@UEAA?AW4PluginReceiveResult@2@PEAUPacket@2@@Z @3514
?OnReceive@HTTPConnection2@RakNet@@UEAA?AW4PluginReceiveResult@2@PEAUPacket@2@@Z @3515
?OnReceive@MessageFilter@RakNet@@UEAA?AW4PluginReceiveResult@2@PEAUPacket@2@@Z @3516
?OnReceive@NatPunchthroughClient@RakNet@@UEAA?AW4PluginReceiveResult@2@PEAUPacket@2@@Z @3517
?OnReceive@NatPunchthroughServer@RakNet@@UEAA?AW4PluginReceiveResult@2@PEAUPacket@2@@Z @3518
?OnReceive@NatTypeDetectionClient@RakNet@@UEAA?AW4PluginReceiveResult@2@PEAUPacket@2@@Z @3519
?OnReceive@NatTypeDetectionServer@RakNet@@UEAA?AW4PluginReceiveResult@2@PEAUPacket@2@@Z @3520
?OnReceive@PluginInterface2@RakNet@@UEAA?AW4PluginReceiveResult@2@PEAUPacket@2@@Z @3521
?OnReceive@RPC4@RakNet@@MEAA?AW4PluginReceiveResult@2@PEAUPacket@2@@Z @3522
?OnReceive@Rackspace@RakNet@@QEAAXPEAUPacket@2@@Z @3523
?OnReceive@RakNetTransport2@RakNet@@UEAA?AW4PluginReceiveResult@2@PEAUPacket@2@@Z @3524
?OnReceive@RakVoice@RakNet@@UEAA?AW4PluginReceiveResult@2@PEAUPacket@2@@Z @3525
?OnReceive@RelayPlugin@RakNet@@UEAA?AW4PluginReceiveResult@2@PEAUPacket@2@@Z @3526
?OnReceive@ReplicaManager3@RakNet@@MEAA?AW4PluginReceiveResult@2@PEAUPacket@2@@Z @3527
?OnReceive@Router2@RakNet@@UEAA?AW4PluginReceiveResult@2@PEAUPacket@2@@Z @3528
?OnReceive@TeamBalancer@RakNet@@MEAA?AW4PluginReceiveResult@2@PEAUPacket@2@@Z @3529
?OnReceive@TeamManager@RakNet@@MEAA?AW4PluginReceiveResult@2@PEAUPacket@2@@Z @3530
?OnReceive@TwoWayAuthentication@RakNet@@UEAA?AW4PluginReceiveResult@2@PEAUPacket@2@@Z @3531
?OnReceive@UDPProxyClient@RakNet@@UEAA?AW4PluginReceiveResult@2@PEAUPacket@2@@Z @3532
?OnReceive@UDPProxyCoordinator@RakNet@@UEAA?AW4PluginReceiveResult@2@PEAUPacket@2@@Z @3533
?OnReceive@UDPProxyServer@RakNet@@UEAA?AW4PluginReceiveResult@2@PEAUPacket@2@@Z @3534
?OnReferencePush@FileListTransfer@RakNet@@IEAAXPEAUPacket@2@_N@Z @3535
?OnReferencePushAck@FileListTransfer@RakNet@@IEAAXPEAUPacket@2@@Z @3536
?OnReleaseRequest@CloudServer@RakNet@@MEAAXPEAUPacket@2@@Z @3537
?OnReliabilityLayerNotification@PacketLogger@RakNet@@UEAAXPEBDIUSystemAddress@2@_N@Z @3538
?OnReliabilityLayerNotification@PluginInterface2@RakNet@@UEAAXPEBDIUSystemAddress@2@_N@Z @3539
?OnRemoveFromRequestedTeams@TeamManager@RakNet@@IEAA_NPEAUPacket@2@PEAVTM_World@2@@Z @3540
?OnRemoveFromTeamsRequestedAndAddTeam@TeamManager@RakNet@@IEAAXPEAUPacket@2@PEAVTM_World@2@@Z @3541
?OnRemoveSubscribedKeyFromServers@CloudServer@RakNet@@IEAAXPEAUPacket@2@@Z @3542
?OnRemoveUploadedKeyFromServers@CloudServer@RakNet@@IEAAXPEAUPacket@2@@Z @3543
?OnReplicaAlreadyExists@Connection_RM3@RakNet@@IEAAXIPEAVReplicaManager3@2@@Z @3544
?OnRequestAnyTeam@TeamBalancer@RakNet@@IEAAXPEAUPacket@2@@Z @3545
?OnRequestFCMGuid@FullyConnectedMesh2@RakNet@@IEAAXPEAUPacket@2@@Z @3546
?OnRequestForwarding@Router2@RakNet@@IEAAXPEAUPacket@2@@Z @3547
?OnRequestSpecificTeam@TeamBalancer@RakNet@@IEAAXPEAUPacket@2@@Z @3548
?OnRequestedTeamChangePending@TeamBalancer@RakNet@@IEAA?AW4PluginReceiveResult@2@PEAUPacket@2@@Z @3549
?OnRerouted@Router2@RakNet@@IEAAXPEAUPacket@2@@Z @3550
?OnResizeServer@RackspaceEventCallback_Default@RakNet@@UEAAXW4RackspaceEventType@2@PEBD@Z @3551
?OnRespondConnectionCount@FullyConnectedMesh2@RakNet@@IEAAXPEAUPacket@2@@Z @3552
?OnRevertResizedServer@RackspaceEventCallback_Default@RakNet@@UEAAXW4RackspaceEventType@2@PEBD@Z @3553
?OnSendAborted@FLP_Printf@RakNet@@UEAAXUSystemAddress@2@@Z @3554
?OnSendAborted@FileListProgress@RakNet@@UEAAXUSystemAddress@2@@Z @3555
?OnSendDestructionFromQuery@Connection_RM3@RakNet@@IEAAXIPEAVReplicaManager3@2@@Z @3556
?OnSendSubscribedKeyToServers@CloudServer@RakNet@@IEAAXPEAUPacket@2@@Z @3557
?OnSendUploadedAndSubscribedKeysToServer@CloudServer@RakNet@@IEAAXPEAUPacket@2@@Z @3558
?OnSendUploadedKeyToServers@CloudServer@RakNet@@IEAAXPEAUPacket@2@@Z @3559
?OnSerialize@ReplicaManager3@RakNet@@IEAA?AW4PluginReceiveResult@2@PEAUPacket@2@PEAEHURakNetGUID@2@_KEE@Z @3560
?OnSerializeTransmission@Replica3@RakNet@@UEAAXPEAVBitStream@2@PEAVConnection_RM3@2@QEAI_K@Z @3561
?OnServerDataChanged@CloudServer@RakNet@@IEAAXPEAUPacket@2@@Z @3562
?OnServerMessage@NatPunchthroughServerDebugInterface_PacketLogger@RakNet@@UEAAXPEBD@Z @3563
?OnServerMessage@NatPunchthroughServerDebugInterface_Printf@RakNet@@UEAAXPEBD@Z @3564
?OnServerToServerGetRequest@CloudServer@RakNet@@MEAAXPEAUPacket@2@@Z @3565
?OnServerToServerGetResponse@CloudServer@RakNet@@MEAAXPEAUPacket@2@@Z @3566
?OnSetBalanceTeams@TeamManager@RakNet@@IEAAXPEAUPacket@2@PEAVTM_World@2@@Z @3567
?OnSetBalanceTeamsInitial@TeamManager@RakNet@@IEAAXPEAUPacket@2@PEAVTM_World@2@@Z @3568
?OnSetJoinPermissions@TeamManager@RakNet@@IEAAXPEAUPacket@2@PEAVTM_World@2@@Z @3569
?OnSetMemberLimit@TeamManager@RakNet@@IEAAXPEAUPacket@2@PEAVTM_World@2@@Z @3570
?OnShareServerAddress@RackspaceEventCallback_Default@RakNet@@UEAAXW4RackspaceEventType@2@PEBD@Z @3571
?OnShutdown@RakVoice@RakNet@@UEAAXXZ @3572
?OnStatusUpdateToNewHost@TeamBalancer@RakNet@@IEAAXPEAUPacket@2@@Z @3573
?OnSubscriptionNotification@CloudClient@RakNet@@UEAAXPEAUPacket@2@PEAVCloudClientCallback@2@PEAVCloudAllocator@2@@Z @3574
?OnSubscriptionNotification@CloudClient@RakNet@@UEAAXPEA_NPEAUCloudQueryRow@2@PEAUPacket@2@PEAVCloudAllocator@2@@Z @3575
?OnSubscriptionNotification@CloudClientCallback@RakNet@@UEAAXPEAUCloudQueryRow@2@_NPEA_N@Z @3576
?OnTeamAssigned@TeamBalancer@RakNet@@IEAA?AW4PluginReceiveResult@2@PEAUPacket@2@@Z @3577
?OnTeamsLocked@TeamBalancer@RakNet@@IEAA?AW4PluginReceiveResult@2@PEAUPacket@2@@Z @3578
?OnTestPortRestricted@NatTypeDetectionClient@RakNet@@IEAAXPEAUPacket@2@@Z @3579
?OnTransportChange@CommandParserInterface@RakNet@@UEAAXPEAVTransportInterface@2@@Z @3580
?OnTransportChange@LogCommandParser@RakNet@@UEAAXPEAVTransportInterface@2@@Z @3581
?OnUnsubscribeRequest@CloudServer@RakNet@@MEAAXPEAUPacket@2@@Z @3582
?OnUpdateListsToNoTeam@TeamManager@RakNet@@IEAAXPEAUPacket@2@PEAVTM_World@2@@Z @3583
?OnUpdateMinTotalConnectionCount@FullyConnectedMesh2@RakNet@@IEAAXPEAUPacket@2@@Z @3584
?OnUpdateServerNameOrPassword@RackspaceEventCallback_Default@RakNet@@UEAAXW4RackspaceEventType@2@PEBD@Z @3585
?OnUpdateTeamsRequestedToAny@TeamManager@RakNet@@IEAAXPEAUPacket@2@PEAVTM_World@2@@Z @3586
?OnUpdateTeamsRequestedToNoneAndAddTeam@TeamManager@RakNet@@IEAAXPEAUPacket@2@PEAVTM_World@2@@Z @3587
?OnUserReplicaPreSerializeTick@Replica3@RakNet@@UEAAXXZ @3588
?OnVerifiedJoinAccepted@FullyConnectedMesh2@RakNet@@MEAAXPEAUPacket@2@@Z @3589
?OnVerifiedJoinCapable@FullyConnectedMesh2@RakNet@@IEAA?AW4PluginReceiveResult@2@PEAUPacket@2@@Z @3590
?OnVerifiedJoinFailed@FullyConnectedMesh2@RakNet@@MEAAXURakNetGUID@2@_N@Z @3591
?OnVerifiedJoinRejected@FullyConnectedMesh2@RakNet@@MEAAXPEAUPacket@2@@Z @3592
?OnVerifiedJoinStart@FullyConnectedMesh2@RakNet@@IEAA?AW4PluginReceiveResult@2@PEAUPacket@2@@Z @3593
?OnVoiceData@RakVoice@RakNet@@MEAAXPEAUPacket@2@@Z @3594
?OpenChannel@RakVoice@RakNet@@IEAAXPEAUPacket@2@@Z @3595
?OpenNAT@NatPunchthroughClient@RakNet@@QEAA_NURakNetGUID@2@AEBUSystemAddress@2@@Z @3596
?PadWithZeroToByteLength@BitStream@RakNet@@QEAAXI@Z @3597
?Parent@?$Heap@_KPEAUInternalPacket@RakNet@@$0A@@DataStructures@@IEBAII@Z @3598
?ParseConnectionRequestPacket@RakPeer@RakNet@@IEAAXPEAURemoteSystemStruct@12@AEBUSystemAddress@2@PEBDH@Z @3599
?ParseConsoleString@CommandParserInterface@RakNet@@SAXPEADDEPEAIPEAPEADI@Z @3600
?ParticipantListComplete@FullyConnectedMesh2@RakNet@@IEAA_NXZ @3601
?Peek@?$CircularLinkedList@PEAUHuffmanEncodingTreeNode@@@DataStructures@@QEAAAEAPEAUHuffmanEncodingTreeNode@@XZ @3602
?Peek@?$Hash@URakNetGUID@RakNet@@PEAUStrAndGuidAndRoom@RelayPlugin@2@$0BPKA@$1?ToUint32@12@SAKAEBU12@@Z@DataStructures@@QEAAPEAPEAUStrAndGuidAndRoom@RelayPlugin@RakNet@@URakNetGUID@5@@Z @3603
?Peek@?$Hash@USystemAddress@RakNet@@UClientState@@$0BAA@$1?SystemAddressHash@@YAKAEBU12@@Z@DataStructures@@QEAAPEAUClientState@@USystemAddress@RakNet@@@Z @3604
?Peek@?$Hash@VRakString@RakNet@@PEAUStrAndGuidAndRoom@RelayPlugin@2@$0BPKA@$1?ToInteger@12@SAKAEBV12@@Z@DataStructures@@QEAAPEAPEAUStrAndGuidAndRoom@RelayPlugin@RakNet@@VRakString@5@@Z @3605
?Peek@?$Heap@_KPEAUInternalPacket@RakNet@@$0A@@DataStructures@@QEBAPEAUInternalPacket@RakNet@@I@Z @3606
?Peek@?$Queue@PEAURequest@HTTPConnection2@RakNet@@@DataStructures@@QEBAPEAURequest@HTTPConnection2@RakNet@@XZ @3607
?Peek@?$Queue@UBadResponse@HTTPConnection@RakNet@@@DataStructures@@QEBA?AUBadResponse@HTTPConnection@RakNet@@XZ @3608
?Peek@?$Queue@UPendingChallenge@TwoWayAuthentication@RakNet@@@DataStructures@@QEBA?AUPendingChallenge@TwoWayAuthentication@RakNet@@XZ @3609
?Peek@?$Queue@UTimeAndValue2@BPSTracker@RakNet@@@DataStructures@@QEBA?AUTimeAndValue2@BPSTracker@RakNet@@XZ @3610
?Peek@?$Queue@UTimeAndValue@StatisticsHistory@RakNet@@@DataStructures@@QEBA?AUTimeAndValue@StatisticsHistory@RakNet@@XZ @3611
?Peek@?$Queue@_N@DataStructures@@QEBA_NXZ @3612
?PeekTail@?$Queue@UTimeAndValue@StatisticsHistory@RakNet@@@DataStructures@@QEBA?AUTimeAndValue@StatisticsHistory@RakNet@@XZ @3613
?PeekWeight@?$Heap@_KPEAUInternalPacket@RakNet@@$0A@@DataStructures@@QEBA_KI@Z @3614
?Ping@RakPeer@RakNet@@UEAAXUSystemAddress@2@@Z @3615
?Ping@RakPeer@RakNet@@UEAA_NPEBDG_NI@Z @3616
?PingInternal@RakPeer@RakNet@@IEAAXUSystemAddress@2@_NW4PacketReliability@@@Z @3617
?Pop@?$CircularLinkedList@PEAUHuffmanEncodingTreeNode@@@DataStructures@@QEAAPEAUHuffmanEncodingTreeNode@@XZ @3618
?Pop@?$Hash@URakNetGUID@RakNet@@PEAUStrAndGuidAndRoom@RelayPlugin@2@$0BPKA@$1?ToUint32@12@SAKAEBU12@@Z@DataStructures@@QEAA_NAEAPEAUStrAndGuidAndRoom@RelayPlugin@RakNet@@URakNetGUID@5@PEBDI@Z @3619
?Pop@?$Hash@VRakString@RakNet@@P6AXPEAVBitStream@2@0PEAUPacket@2@@Z$0EA@$1?ToInteger@12@SAKAEBV12@@Z@DataStructures@@QEAA_NAEAP6AXPEAVBitStream@RakNet@@0PEAUPacket@4@@ZVRakString@4@PEBDI@Z @3620
?Pop@?$Hash@VRakString@RakNet@@P6AXPEAVBitStream@2@PEAUPacket@2@@Z$0EA@$1?ToInteger@12@SAKAEBV12@@Z@DataStructures@@QEAA_NAEAP6AXPEAVBitStream@RakNet@@PEAUPacket@4@@ZVRakString@4@PEBDI@Z @3621
?Pop@?$Heap@_KPEAUInternalPacket@RakNet@@$0A@@DataStructures@@QEAAPEAUInternalPacket@RakNet@@I@Z @3622
?Pop@?$List@PEAUFCM2Participant@FullyConnectedMesh2@RakNet@@@DataStructures@@QEAAAEAPEAUFCM2Participant@FullyConnectedMesh2@RakNet@@XZ @3623
?Pop@?$Queue@I@DataStructures@@QEAAIXZ @3624
?Pop@?$Queue@P6AHUThreadData@FileListTransfer@RakNet@@PEA_NPEAX@Z@DataStructures@@QEAAP6AHUThreadData@FileListTransfer@RakNet@@PEA_NPEAX@ZXZ @3625
?Pop@?$Queue@PEAD@DataStructures@@QEAAPEADXZ @3626
?Pop@?$Queue@PEAU?$Page@IPEAURow@Table@DataStructures@@$0BA@@DataStructures@@@DataStructures@@QEAAPEAU?$Page@IPEAURow@Table@DataStructures@@$0BA@@2@XZ @3627
?Pop@?$Queue@PEAUBufferedCommandStruct@RakPeer@RakNet@@@DataStructures@@QEAAPEAUBufferedCommandStruct@RakPeer@RakNet@@XZ @3628
?Pop@?$Queue@PEAUFileToPush@FileListTransfer@RakNet@@@DataStructures@@QEAAPEAUFileToPush@FileListTransfer@RakNet@@XZ @3629
?Pop@?$Queue@PEAUHuffmanEncodingTreeNode@@@DataStructures@@QEAAPEAUHuffmanEncodingTreeNode@@XZ @3630
?Pop@?$Queue@PEAUInternalPacket@RakNet@@@DataStructures@@QEAAPEAUInternalPacket@RakNet@@XZ @3631
?Pop@?$Queue@PEAUPacket@RakNet@@@DataStructures@@QEAAPEAUPacket@RakNet@@XZ @3632
?Pop@?$Queue@PEAURNS2RecvStruct@RakNet@@@DataStructures@@QEAAPEAURNS2RecvStruct@RakNet@@XZ @3633
?Pop@?$Queue@PEAURequestedConnectionStruct@RakPeer@RakNet@@@DataStructures@@QEAAPEAURequestedConnectionStruct@RakPeer@RakNet@@XZ @3634
?Pop@?$Queue@PEAUSocketQueryOutput@RakPeer@RakNet@@@DataStructures@@QEAAPEAUSocketQueryOutput@RakPeer@RakNet@@XZ @3635
?Pop@?$Queue@PEAUStartForwardingInputStruct@UDPForwarder@RakNet@@@DataStructures@@QEAAPEAUStartForwardingInputStruct@UDPForwarder@RakNet@@XZ @3636
?Pop@?$Queue@PEAUStopForwardingStruct@UDPForwarder@RakNet@@@DataStructures@@QEAAPEAUStopForwardingStruct@UDPForwarder@RakNet@@XZ @3637
?Pop@?$Queue@PEAUSystemAddress@RakNet@@@DataStructures@@QEAAPEAUSystemAddress@RakNet@@XZ @3638
?Pop@?$Queue@UBadResponse@HTTPConnection@RakNet@@@DataStructures@@QEAA?AUBadResponse@HTTPConnection@RakNet@@XZ @3639
?Pop@?$Queue@UDSTAndFac@NatPunchthroughClient@RakNet@@@DataStructures@@QEAA?AUDSTAndFac@NatPunchthroughClient@RakNet@@XZ @3640
?Pop@?$Queue@UDatagramHistoryNode@ReliabilityLayer@RakNet@@@DataStructures@@QEAA?AUDatagramHistoryNode@ReliabilityLayer@RakNet@@XZ @3641
?Pop@?$Queue@UOutgoingCommand@HTTPConnection@RakNet@@@DataStructures@@QEAA?AUOutgoingCommand@HTTPConnection@RakNet@@XZ @3642
?Pop@?$Queue@UPendingChallenge@TwoWayAuthentication@RakNet@@@DataStructures@@QEAA?AUPendingChallenge@TwoWayAuthentication@RakNet@@XZ @3643
?Pop@?$Queue@USystemAddress@RakNet@@@DataStructures@@QEAA?AUSystemAddress@RakNet@@XZ @3644
?Pop@?$Queue@UThreadData@FileListTransfer@RakNet@@@DataStructures@@QEAA?AUThreadData@FileListTransfer@RakNet@@XZ @3645
?Pop@?$Queue@UTimeAndValue2@BPSTracker@RakNet@@@DataStructures@@QEAA?AUTimeAndValue2@BPSTracker@RakNet@@XZ @3646
?Pop@?$Queue@UTimeAndValue@StatisticsHistory@RakNet@@@DataStructures@@QEAA?AUTimeAndValue@StatisticsHistory@RakNet@@XZ @3647
?Pop@?$Queue@VRakString@RakNet@@@DataStructures@@QEAA?AVRakString@RakNet@@XZ @3648
?Pop@?$Queue@_N@DataStructures@@QEAA_NXZ @3649
?Pop@?$ThreadsafeAllocatingQueue@UBufferedCommandStruct@RakPeer@RakNet@@@DataStructures@@QEAAPEAUBufferedCommandStruct@RakPeer@RakNet@@XZ @3650
?Pop@?$ThreadsafeAllocatingQueue@USocketQueryOutput@RakPeer@RakNet@@@DataStructures@@QEAAPEAUSocketQueryOutput@RakPeer@RakNet@@XZ @3651
?Pop@?$ThreadsafeAllocatingQueue@UStartForwardingInputStruct@UDPForwarder@RakNet@@@DataStructures@@QEAAPEAUStartForwardingInputStruct@UDPForwarder@RakNet@@XZ @3652
?Pop@?$ThreadsafeAllocatingQueue@UStopForwardingStruct@UDPForwarder@RakNet@@@DataStructures@@QEAAPEAUStopForwardingStruct@UDPForwarder@RakNet@@XZ @3653
?PopBufferedPacket@RakPeer@RakNet@@IEAAPEAURNS2RecvStruct@2@XZ @3654
?PopConnection@ReplicaManager3@RakNet@@IEAAPEAVConnection_RM3@2@IE@Z @3655
?PopConnection@ReplicaManager3@RakNet@@QEAAPEAVConnection_RM3@2@URakNetGUID@2@E@Z @3656
?PopInaccurate@?$ThreadsafeAllocatingQueue@UBufferedCommandStruct@RakPeer@RakNet@@@DataStructures@@QEAAPEAUBufferedCommandStruct@RakPeer@RakNet@@XZ @3657
?PopInaccurate@?$ThreadsafeAllocatingQueue@UPacket@RakNet@@@DataStructures@@QEAAPEAUPacket@RakNet@@XZ @3658
?PopInaccurate@?$ThreadsafeAllocatingQueue@USystemAddress@RakNet@@@DataStructures@@QEAAPEAUSystemAddress@RakNet@@XZ @3659
?PopTail@?$Queue@UTimeAndValue@StatisticsHistory@RakNet@@@DataStructures@@QEAA?AUTimeAndValue@StatisticsHistory@RakNet@@XZ @3660
?PopulateDataFromDisk@FileList@RakNet@@QEAAXPEBD_N11@Z @3661
?Post@CloudClient@RakNet@@UEAAXPEAUCloudKey@2@PEBEIURakNetGUID@2@@Z @3662
?Post@HTTPConnection@RakNet@@QEAAXPEBD00@Z @3663
?PostDeserializeConstruction@Replica3@RakNet@@UEAAXPEAVBitStream@2@PEAVConnection_RM3@2@@Z @3664
?PostDeserializeConstructionExisting@Replica3@RakNet@@UEAAXPEAVBitStream@2@PEAVConnection_RM3@2@@Z @3665
?PostSerializeConstruction@Replica3@RakNet@@UEAAXPEAVBitStream@2@PEAVConnection_RM3@2@@Z @3666
?PostSerializeConstructionExisting@Replica3@RakNet@@UEAAXPEAVBitStream@2@PEAVConnection_RM3@2@@Z @3667
?PreDestruction@Replica3@RakNet@@UEAAXPEAVConnection_RM3@2@@Z @3668
?Preallocate@?$List@I@DataStructures@@QEAAXIPEBDI@Z @3669
?Preallocate@?$List@PEAUInternalPacket@RakNet@@@DataStructures@@QEAAXIPEBDI@Z @3670
?Preallocate@?$List@_N@DataStructures@@QEAAXIPEBDI@Z @3671
?PrintBits@BitStream@RakNet@@QEBAXPEAD@Z @3672
?PrintBits@BitStream@RakNet@@QEBAXXZ @3673
?PrintChannels@LogCommandParser@RakNet@@IEBAXAEBUSystemAddress@2@PEAVTransportInterface@2@@Z @3674
?PrintColumnHeaders@Table@DataStructures@@QEBAXPEADHD@Z @3675
?PrintHex@BitStream@RakNet@@QEBAXPEAD@Z @3676
?PrintHex@BitStream@RakNet@@QEBAXXZ @3677
?PrintRow@Table@DataStructures@@QEBAXPEADHD_NPEAURow@12@@Z @3678
?Printf@RakString@RakNet@@QEAAXXZ @3679
?Printf@RakWString@RakNet@@QEAAXXZ @3680
?ProcessAndTransmitGetRequest@CloudServer@RakNet@@IEAAXPEAUGetRequest@12@@Z @3681
?ProcessCloudQueryWithAddresses@CloudServer@RakNet@@IEAAXAEAUCloudQueryWithAddresses@12@AEAV?$List@PEAUCloudData@CloudServer@RakNet@@@DataStructures@@AEAV?$List@UCloudKey@RakNet@@@5@@Z @3682
?ProcessTCPPacket@HTTPConnection@RakNet@@QEAAXPEAUPacket@2@@Z @3683
?ProcessTeamAssigned@TeamManager@RakNet@@IEAAXPEAVBitStream@2@@Z @3684
?ProcessVerifiedJoinInProgressIfCompleted@FullyConnectedMesh2@RakNet@@IEAA_NPEAUVerifiedJoinInProgress@12@@Z @3685
?Push@?$Hash@UAddressOrGUID@RakNet@@UFilteredSystem@2@$0IAA@$1?ToInteger@12@SAKAEBU12@@Z@DataStructures@@QEAAXUAddressOrGUID@RakNet@@AEBUFilteredSystem@4@PEBDI@Z @3686
?Push@?$Hash@URakNetGUID@RakNet@@PEAURemoteCloudClient@CloudServer@2@$0IAA@$1?ToUint32@12@SAKAEBU12@@Z@DataStructures@@QEAAXURakNetGUID@RakNet@@AEBQEAURemoteCloudClient@CloudServer@4@PEBDI@Z @3687
?Push@?$Hash@URakNetGUID@RakNet@@PEAUStrAndGuidAndRoom@RelayPlugin@2@$0BPKA@$1?ToUint32@12@SAKAEBU12@@Z@DataStructures@@QEAAXURakNetGUID@RakNet@@AEBQEAUStrAndGuidAndRoom@RelayPlugin@4@PEBDI@Z @3688
?Push@?$Hash@USystemAddress@RakNet@@UClientState@@$0BAA@$1?SystemAddressHash@@YAKAEBU12@@Z@DataStructures@@QEAAXUSystemAddress@RakNet@@AEBUClientState@@PEBDI@Z @3689
?Push@?$Hash@VRakString@RakNet@@P6AXPEAVBitStream@2@0PEAUPacket@2@@Z$0EA@$1?ToInteger@12@SAKAEBV12@@Z@DataStructures@@QEAAXVRakString@RakNet@@AEBQ6AXPEAVBitStream@4@1PEAUPacket@4@@ZPEBDI@Z @3690
?Push@?$Hash@VRakString@RakNet@@P6AXPEAVBitStream@2@PEAUPacket@2@@Z$0EA@$1?ToInteger@12@SAKAEBV12@@Z@DataStructures@@QEAAXVRakString@RakNet@@AEBQ6AXPEAVBitStream@4@PEAUPacket@4@@ZPEBDI@Z @3691
?Push@?$Hash@VRakString@RakNet@@PEAULocalSlot@RPC4@2@$0BAA@$1?ToInteger@12@SAKAEBV12@@Z@DataStructures@@QEAAXVRakString@RakNet@@AEBQEAULocalSlot@RPC4@4@PEBDI@Z @3692
?Push@?$Hash@VRakString@RakNet@@PEAUStrAndGuidAndRoom@RelayPlugin@2@$0BPKA@$1?ToInteger@12@SAKAEBV12@@Z@DataStructures@@QEAAXVRakString@RakNet@@AEBQEAUStrAndGuidAndRoom@RelayPlugin@4@PEBDI@Z @3693
?Push@?$Hash@VRakString@RakNet@@PEAUTimeAndValueQueue@StatisticsHistory@2@$0CA@$1?ToInteger@12@SAKAEBV12@@Z@DataStructures@@QEAAXVRakString@RakNet@@AEBQEAUTimeAndValueQueue@StatisticsHistory@4@PEBDI@Z @3694
?Push@?$Hash@VRakString@RakNet@@V12@$0BA@$1?ToInteger@12@SAKAEBV12@@Z@DataStructures@@QEAAXVRakString@RakNet@@AEBV34@PEBDI@Z @3695
?Push@?$Hash@_KPEAVTM_Team@RakNet@@$0BAA@$1?ToUint32@12@SAKAEB_K@Z@DataStructures@@QEAAX_KAEBQEAVTM_Team@RakNet@@PEBDI@Z @3696
?Push@?$Hash@_KPEAVTM_TeamMember@RakNet@@$0BAA@$1?ToUint32@12@SAKAEB_K@Z@DataStructures@@QEAAX_KAEBQEAVTM_TeamMember@RakNet@@PEBDI@Z @3697
?Push@?$Heap@_KPEAUInternalPacket@RakNet@@$0A@@DataStructures@@QEAAXAEB_KAEBQEAUInternalPacket@RakNet@@PEBDI@Z @3698
?Push@?$List@E@DataStructures@@QEAAXAEBEPEBDI@Z @3699
?Push@?$List@I@DataStructures@@QEAAXAEBIPEBDI@Z @3700
?Push@?$List@PEAUCloudData@CloudServer@RakNet@@@DataStructures@@QEAAXAEBQEAUCloudData@CloudServer@RakNet@@PEBDI@Z @3701
?Push@?$List@PEAUCloudQueryRow@RakNet@@@DataStructures@@QEAAXAEBQEAUCloudQueryRow@RakNet@@PEBDI@Z @3702
?Push@?$List@PEAUConnnectRequest@Router2@RakNet@@@DataStructures@@QEAAXAEBQEAUConnnectRequest@Router2@RakNet@@PEBDI@Z @3703
?Push@?$List@PEAUFCM2Participant@FullyConnectedMesh2@RakNet@@@DataStructures@@QEAAXAEBQEAUFCM2Participant@FullyConnectedMesh2@RakNet@@PEBDI@Z @3704
?Push@?$List@PEAUFileToPushRecipient@FileListTransfer@RakNet@@@DataStructures@@QEAAXAEBQEAUFileToPushRecipient@FileListTransfer@RakNet@@PEBDI@Z @3705
?Push@?$List@PEAUInternalPacket@RakNet@@@DataStructures@@QEAAXAEBQEAUInternalPacket@RakNet@@PEBDI@Z @3706
?Push@?$List@PEAULastSerializationResult@RakNet@@@DataStructures@@QEAAXAEBQEAULastSerializationResult@RakNet@@PEBDI@Z @3707
?Push@?$List@PEAULocalSlot@RPC4@RakNet@@@DataStructures@@QEAAXAEBQEAULocalSlot@RPC4@RakNet@@PEBDI@Z @3708
?Push@?$List@PEAUNonceAndRemoteSystemRequest@TwoWayAuthentication@RakNet@@@DataStructures@@QEAAXAEBQEAUNonceAndRemoteSystemRequest@TwoWayAuthentication@RakNet@@PEBDI@Z @3709
?Push@?$List@PEAUPingServerGroup@UDPProxyClient@RakNet@@@DataStructures@@QEAAXAEBQEAUPingServerGroup@UDPProxyClient@RakNet@@PEBDI@Z @3710
?Push@?$List@PEAURM3World@ReplicaManager3@RakNet@@@DataStructures@@QEAAXAEBQEAURM3World@ReplicaManager3@RakNet@@PEBDI@Z @3711
?Push@?$List@PEAURP_Group@RelayPlugin@RakNet@@@DataStructures@@QEAAXAEBQEAURP_Group@RelayPlugin@RakNet@@PEBDI@Z @3712
?Push@?$List@PEAURemoteCloudClient@CloudServer@RakNet@@@DataStructures@@QEAAXAEBQEAURemoteCloudClient@CloudServer@RakNet@@PEBDI@Z @3713
?Push@?$List@PEAURemoteServer@CloudServer@RakNet@@@DataStructures@@QEAAXAEBQEAURemoteServer@CloudServer@RakNet@@PEBDI@Z @3714
?Push@?$List@PEAURemoteSystemVariableHistory@VariableDeltaSerializer@RakNet@@@DataStructures@@QEAAXAEBQEAURemoteSystemVariableHistory@VariableDeltaSerializer@RakNet@@PEBDI@Z @3715
?Push@?$List@PEAURequest@HTTPConnection2@RakNet@@@DataStructures@@QEAAXAEBQEAURequest@HTTPConnection2@RakNet@@PEBDI@Z @3716
?Push@?$List@PEAUStrAndGuidAndRoom@RelayPlugin@RakNet@@@DataStructures@@QEAAXAEBQEAUStrAndGuidAndRoom@RelayPlugin@RakNet@@PEBDI@Z @3717
?Push@?$List@PEAUTimeAndValueQueue@StatisticsHistory@RakNet@@@DataStructures@@QEAAXAEBQEAUTimeAndValueQueue@StatisticsHistory@RakNet@@PEBDI@Z @3718
?Push@?$List@PEAUVerifiedJoinInProgress@FullyConnectedMesh2@RakNet@@@DataStructures@@QEAAXAEBQEAUVerifiedJoinInProgress@FullyConnectedMesh2@RakNet@@PEBDI@Z @3719
?Push@?$List@PEAVBitStream@RakNet@@@DataStructures@@QEAAXAEBQEAVBitStream@RakNet@@PEBDI@Z @3720
?Push@?$List@PEAVCloudServerQueryFilter@RakNet@@@DataStructures@@QEAAXAEBQEAVCloudServerQueryFilter@RakNet@@PEBDI@Z @3721
?Push@?$List@PEAVConnection_RM3@RakNet@@@DataStructures@@QEAAXAEBQEAVConnection_RM3@RakNet@@PEBDI@Z @3722
?Push@?$List@PEAVFileListProgress@RakNet@@@DataStructures@@QEAAXAEBQEAVFileListProgress@RakNet@@PEBDI@Z @3723
?Push@?$List@PEAVRackspace2EventCallback@RakNet@@@DataStructures@@QEAAXAEBQEAVRackspace2EventCallback@RakNet@@PEBDI@Z @3724
?Push@?$List@PEAVRakNetSocket2@RakNet@@@DataStructures@@QEAAXAEBQEAVRakNetSocket2@RakNet@@PEBDI@Z @3725
?Push@?$List@PEAVReplica3@RakNet@@@DataStructures@@QEAAXAEBQEAVReplica3@RakNet@@PEBDI@Z @3726
?Push@?$List@PEAVTM_Team@RakNet@@@DataStructures@@QEAAXAEBQEAVTM_Team@RakNet@@PEBDI@Z @3727
?Push@?$List@PEAVTM_TeamMember@RakNet@@@DataStructures@@QEAAXAEBQEAVTM_TeamMember@RakNet@@PEBDI@Z @3728
?Push@?$List@PEAVTM_World@RakNet@@@DataStructures@@QEAAXAEBQEAVTM_World@RakNet@@PEBDI@Z @3729
?Push@?$List@UAddrAndGuid@NatPunchthroughClient@RakNet@@@DataStructures@@QEAAXAEBUAddrAndGuid@NatPunchthroughClient@RakNet@@PEBDI@Z @3730
?Push@?$List@UAddressOrGUID@RakNet@@@DataStructures@@QEAAXAEBUAddressOrGUID@RakNet@@PEBDI@Z @3731
?Push@?$List@UClientState@@@DataStructures@@QEAAXAEBUClientState@@PEBDI@Z @3732
?Push@?$List@UCloudKey@RakNet@@@DataStructures@@QEAAXAEBUCloudKey@RakNet@@PEBDI@Z @3733
?Push@?$List@UConnectionRequestSystem@Router2@RakNet@@@DataStructures@@QEAAXAEBUConnectionRequestSystem@Router2@RakNet@@PEBDI@Z @3734
?Push@?$List@UFilteredSystem@RakNet@@@DataStructures@@QEAAXAEBUFilteredSystem@RakNet@@PEBDI@Z @3735
?Push@?$List@UForwardedConnection@Router2@RakNet@@@DataStructures@@QEAAXAEBUForwardedConnection@Router2@RakNet@@PEBDI@Z @3736
?Push@?$List@UMiniPunchRequest@Router2@RakNet@@@DataStructures@@QEAAXAEBUMiniPunchRequest@Router2@RakNet@@PEBDI@Z @3737
?Push@?$List@UMyTeamMembers@TeamBalancer@RakNet@@@DataStructures@@QEAAXAEBUMyTeamMembers@TeamBalancer@RakNet@@PEBDI@Z @3738
?Push@?$List@UNATDetectionAttempt@NatTypeDetectionServer@RakNet@@@DataStructures@@QEAAXAEBUNATDetectionAttempt@NatTypeDetectionServer@RakNet@@PEBDI@Z @3739
?Push@?$List@URakNetGUID@RakNet@@@DataStructures@@QEAAXAEBURakNetGUID@RakNet@@PEBDI@Z @3740
?Push@?$List@URakNetStatistics@RakNet@@@DataStructures@@QEAAXAEBURakNetStatistics@RakNet@@PEBDI@Z @3741
?Push@?$List@URequestedTeam@TM_TeamMember@RakNet@@@DataStructures@@QEAAXAEBURequestedTeam@TM_TeamMember@RakNet@@PEBDI@Z @3742
?Push@?$List@UServerWithPing@UDPProxyClient@RakNet@@@DataStructures@@QEAAXAEBUServerWithPing@UDPProxyClient@RakNet@@PEBDI@Z @3743
?Push@?$List@UStrAndGuid@RelayPlugin@RakNet@@@DataStructures@@QEAAXAEBUStrAndGuid@RelayPlugin@RakNet@@PEBDI@Z @3744
?Push@?$List@USystemAddress@RakNet@@@DataStructures@@QEAAXAEBUSystemAddress@RakNet@@PEBDI@Z @3745
?Push@?$List@UTeamMember@TeamBalancer@RakNet@@@DataStructures@@QEAAXAEBUTeamMember@TeamBalancer@RakNet@@PEBDI@Z @3746
?Push@?$List@UUnreliableWithAckReceiptNode@ReliabilityLayer@RakNet@@@DataStructures@@QEAAXAEBUUnreliableWithAckReceiptNode@ReliabilityLayer@RakNet@@PEBDI@Z @3747
?Push@?$List@UVerifiedJoinInProgressMember@FullyConnectedMesh2@RakNet@@@DataStructures@@QEAAXAEBUVerifiedJoinInProgressMember@FullyConnectedMesh2@RakNet@@PEBDI@Z @3748
?Push@?$List@VRakString@RakNet@@@DataStructures@@QEAAXAEBVRakString@RakNet@@PEBDI@Z @3749
?Push@?$List@_K@DataStructures@@QEAAXAEB_KPEBDI@Z @3750
?Push@?$List@_N@DataStructures@@QEAAXAEB_NPEBDI@Z @3751
?Push@?$Queue@H@DataStructures@@QEAAXAEBHPEBDI@Z @3752
?Push@?$Queue@I@DataStructures@@QEAAXAEBIPEBDI@Z @3753
?Push@?$Queue@P6AHUThreadData@FileListTransfer@RakNet@@PEA_NPEAX@Z@DataStructures@@QEAAXAEBQ6AHUThreadData@FileListTransfer@RakNet@@PEA_NPEAX@ZPEBDI@Z @3754
?Push@?$Queue@PEAD@DataStructures@@QEAAXAEBQEADPEBDI@Z @3755
?Push@?$Queue@PEAU?$Page@IPEAURow@Table@DataStructures@@$0BA@@DataStructures@@@DataStructures@@QEAAXAEBQEAU?$Page@IPEAURow@Table@DataStructures@@$0BA@@2@PEBDI@Z @3756
?Push@?$Queue@PEAUBufferedCommandStruct@RakPeer@RakNet@@@DataStructures@@QEAAXAEBQEAUBufferedCommandStruct@RakPeer@RakNet@@PEBDI@Z @3757
?Push@?$Queue@PEAUFileToPush@FileListTransfer@RakNet@@@DataStructures@@QEAAXAEBQEAUFileToPush@FileListTransfer@RakNet@@PEBDI@Z @3758
?Push@?$Queue@PEAUHuffmanEncodingTreeNode@@@DataStructures@@QEAAXAEBQEAUHuffmanEncodingTreeNode@@PEBDI@Z @3759
?Push@?$Queue@PEAUInternalPacket@RakNet@@@DataStructures@@QEAAXAEBQEAUInternalPacket@RakNet@@PEBDI@Z @3760
?Push@?$Queue@PEAUPacket@RakNet@@@DataStructures@@QEAAXAEBQEAUPacket@RakNet@@PEBDI@Z @3761
?Push@?$Queue@PEAURNS2RecvStruct@RakNet@@@DataStructures@@QEAAXAEBQEAURNS2RecvStruct@RakNet@@PEBDI@Z @3762
?Push@?$Queue@PEAURequest@HTTPConnection2@RakNet@@@DataStructures@@QEAAXAEBQEAURequest@HTTPConnection2@RakNet@@PEBDI@Z @3763
?Push@?$Queue@PEAURequestedConnectionStruct@RakPeer@RakNet@@@DataStructures@@QEAAXAEBQEAURequestedConnectionStruct@RakPeer@RakNet@@PEBDI@Z @3764
?Push@?$Queue@PEAUSocketQueryOutput@RakPeer@RakNet@@@DataStructures@@QEAAXAEBQEAUSocketQueryOutput@RakPeer@RakNet@@PEBDI@Z @3765
?Push@?$Queue@PEAUStartForwardingInputStruct@UDPForwarder@RakNet@@@DataStructures@@QEAAXAEBQEAUStartForwardingInputStruct@UDPForwarder@RakNet@@PEBDI@Z @3766
?Push@?$Queue@PEAUStopForwardingStruct@UDPForwarder@RakNet@@@DataStructures@@QEAAXAEBQEAUStopForwardingStruct@UDPForwarder@RakNet@@PEBDI@Z @3767
?Push@?$Queue@PEAUSystemAddress@RakNet@@@DataStructures@@QEAAXAEBQEAUSystemAddress@RakNet@@PEBDI@Z @3768
?Push@?$Queue@UBadResponse@HTTPConnection@RakNet@@@DataStructures@@QEAAXAEBUBadResponse@HTTPConnection@RakNet@@PEBDI@Z @3769
?Push@?$Queue@UDSTAndFac@NatPunchthroughClient@RakNet@@@DataStructures@@QEAAXAEBUDSTAndFac@NatPunchthroughClient@RakNet@@PEBDI@Z @3770
?Push@?$Queue@UDatagramHistoryNode@ReliabilityLayer@RakNet@@@DataStructures@@QEAAXAEBUDatagramHistoryNode@ReliabilityLayer@RakNet@@PEBDI@Z @3771
?Push@?$Queue@UOutgoingCommand@HTTPConnection@RakNet@@@DataStructures@@QEAAXAEBUOutgoingCommand@HTTPConnection@RakNet@@PEBDI@Z @3772
?Push@?$Queue@UPendingChallenge@TwoWayAuthentication@RakNet@@@DataStructures@@QEAAXAEBUPendingChallenge@TwoWayAuthentication@RakNet@@PEBDI@Z @3773
?Push@?$Queue@UStartForwardingOutputStruct@UDPForwarder@RakNet@@@DataStructures@@QEAAXAEBUStartForwardingOutputStruct@UDPForwarder@RakNet@@PEBDI@Z @3774
?Push@?$Queue@USystemAddress@RakNet@@@DataStructures@@QEAAXAEBUSystemAddress@RakNet@@PEBDI@Z @3775
?Push@?$Queue@UThreadData@FileListTransfer@RakNet@@@DataStructures@@QEAAXAEBUThreadData@FileListTransfer@RakNet@@PEBDI@Z @3776
?Push@?$Queue@UTimeAndValue2@BPSTracker@RakNet@@@DataStructures@@QEAAXAEBUTimeAndValue2@BPSTracker@RakNet@@PEBDI@Z @3777
?Push@?$Queue@UTimeAndValue@StatisticsHistory@RakNet@@@DataStructures@@QEAAXAEBUTimeAndValue@StatisticsHistory@RakNet@@PEBDI@Z @3778
?Push@?$Queue@VRakString@RakNet@@@DataStructures@@QEAAXAEBVRakString@RakNet@@PEBDI@Z @3779
?Push@?$Queue@_N@DataStructures@@QEAAXAEB_NPEBDI@Z @3780
?Push@?$ThreadsafeAllocatingQueue@UBufferedCommandStruct@RakPeer@RakNet@@@DataStructures@@QEAAXPEAUBufferedCommandStruct@RakPeer@RakNet@@@Z @3781
?Push@?$ThreadsafeAllocatingQueue@UPacket@RakNet@@@DataStructures@@QEAAXPEAUPacket@RakNet@@@Z @3782
?Push@?$ThreadsafeAllocatingQueue@USocketQueryOutput@RakPeer@RakNet@@@DataStructures@@QEAAXPEAUSocketQueryOutput@RakPeer@RakNet@@@Z @3783
?Push@?$ThreadsafeAllocatingQueue@UStartForwardingInputStruct@UDPForwarder@RakNet@@@DataStructures@@QEAAXPEAUStartForwardingInputStruct@UDPForwarder@RakNet@@@Z @3784
?Push@?$ThreadsafeAllocatingQueue@UStopForwardingStruct@UDPForwarder@RakNet@@@DataStructures@@QEAAXPEAUStopForwardingStruct@UDPForwarder@RakNet@@@Z @3785
?Push@?$ThreadsafeAllocatingQueue@USystemAddress@RakNet@@@DataStructures@@QEAAXPEAUSystemAddress@RakNet@@@Z @3786
?PushAtHead@?$Queue@PEAUFileToPush@FileListTransfer@RakNet@@@DataStructures@@QEAAXAEBQEAUFileToPush@FileListTransfer@RakNet@@IPEBDI@Z @3787
?PushAtHead@?$Queue@PEAUPacket@RakNet@@@DataStructures@@QEAAXAEBQEAUPacket@RakNet@@IPEBDI@Z @3788
?PushAtHead@?$Queue@UTimeAndValue@StatisticsHistory@RakNet@@@DataStructures@@QEAAXAEBUTimeAndValue@StatisticsHistory@RakNet@@IPEBDI@Z @3789
?PushBackPacket@RakPeer@RakNet@@UEAAXPEAUPacket@2@_N@Z @3790
?PushBackPacket@TCPInterface@RakNet@@UEAAXPEAUPacket@2@_N@Z @3791
?PushBackPacketUnified@PluginInterface2@RakNet@@IEAAXPEAUPacket@2@_N@Z @3792
?PushBitStream@TeamManager@RakNet@@IEAAXPEAVBitStream@2@@Z @3793
?PushBufferedPacket@RakPeer@RakNet@@IEAAXPEAURNS2RecvStruct@2@@Z @3794
?PushConnection@ReplicaManager3@RakNet@@QEAA_NPEAVConnection_RM3@2@E@Z @3795
?PushFailure@NatPunchthroughClient@RakNet@@IEAAXXZ @3796
?PushNewHost@FullyConnectedMesh2@RakNet@@IEAAXAEBURakNetGUID@2@U32@@Z @3797
?PushNotificationsToQueues@PacketizedTCP@RakNet@@IEAAXXZ @3798
?PushSeries@?$Heap@_KPEAUInternalPacket@RakNet@@$0A@@DataStructures@@QEAAXAEB_KAEBQEAUInternalPacket@RakNet@@PEBDI@Z @3799
?PushSuccess@NatPunchthroughClient@RakNet@@IEAAXXZ @3800
?PushTeamAssigned@TeamManager@RakNet@@IEAAXPEAVTM_TeamMember@2@@Z @3801
?PushToUser@TwoWayAuthentication@RakNet@@IEAAXEVRakString@2@UAddressOrGUID@2@@Z @3802
?QueryActionOnPopConnection_Client@Replica3@RakNet@@UEBA?AW4RM3ActionOnPopConnection@2@PEAVConnection_RM3@2@@Z @3803
?QueryActionOnPopConnection_PeerToPeer@Replica3@RakNet@@UEBA?AW4RM3ActionOnPopConnection@2@PEAVConnection_RM3@2@@Z @3804
?QueryActionOnPopConnection_Server@Replica3@RakNet@@UEBA?AW4RM3ActionOnPopConnection@2@PEAVConnection_RM3@2@@Z @3805
?QueryConstructionMode@Connection_RM3@RakNet@@UEBA?AW4ConstructionMode@12@XZ @3806
?QueryConstruction_ClientConstruction@Replica3@RakNet@@UEAA?AW4RM3ConstructionState@2@PEAVConnection_RM3@2@_N@Z @3807
?QueryConstruction_PeerToPeer@Replica3@RakNet@@UEAA?AW4RM3ConstructionState@2@PEAVConnection_RM3@2@W4Replica3P2PMode@2@@Z @3808
?QueryConstruction_ServerConstruction@Replica3@RakNet@@UEAA?AW4RM3ConstructionState@2@PEAVConnection_RM3@2@_N@Z @3809
?QueryDestruction@Replica3@RakNet@@UEAA?AW4RM3DestructionState@2@PEAVConnection_RM3@2@PEAVReplicaManager3@2@@Z @3810
?QueryGroupDownloadMessages@Connection_RM3@RakNet@@UEBA_NXZ @3811
?QueryRelayDestruction@Replica3@RakNet@@UEBA_NPEAVConnection_RM3@2@@Z @3812
?QueryRemoteConstruction_ClientConstruction@Replica3@RakNet@@UEAA_NPEAVConnection_RM3@2@_N@Z @3813
?QueryRemoteConstruction_PeerToPeer@Replica3@RakNet@@UEAA_NPEAVConnection_RM3@2@@Z @3814
?QueryRemoteConstruction_ServerConstruction@Replica3@RakNet@@UEAA_NPEAVConnection_RM3@2@_N@Z @3815
?QueryReplicaList@Connection_RM3@RakNet@@UEAAXAEAV?$List@PEAVReplica3@RakNet@@@DataStructures@@0@Z @3816
?QueryRow@Table@DataStructures@@IEAAXAEAV?$List@I@2@0IPEAURow@12@PEAUFilterQuery@12@PEAV12@@Z @3817
?QuerySerializationList@Connection_RM3@RakNet@@UEAA_NAEAV?$List@PEAVReplica3@RakNet@@@DataStructures@@@Z @3818
?QuerySerialization_ClientSerializable@Replica3@RakNet@@UEAA?AW4RM3QuerySerializationResult@2@PEAVConnection_RM3@2@_N@Z @3819
?QuerySerialization_PeerToPeer@Replica3@RakNet@@UEAA?AW4RM3QuerySerializationResult@2@PEAVConnection_RM3@2@W4Replica3P2PMode@2@@Z @3820
?QuerySerialization_ServerSerializable@Replica3@RakNet@@UEAA?AW4RM3QuerySerializationResult@2@PEAVConnection_RM3@2@_N@Z @3821
?QueryTable@Table@DataStructures@@QEAAXPEAIIPEAUFilterQuery@12@I0IPEAV12@@Z @3822
?QueueOpenNAT@NatPunchthroughClient@RakNet@@IEAAXURakNetGUID@2@AEBUSystemAddress@2@@Z @3823
?QuoteIfSpaces@@YAXPEAD@Z @3824
?RakSleep@@YAXI@Z @3825
?RakStringComp@RakString@RakNet@@SAHAEBV12@0@Z @3826
?RandomMT@RakNetRandom@RakNet@@QEAAIXZ @3827
?RandomMT@RakNetRandomSync@RakNet@@QEAAIXZ @3828
?Read@BitStream@RakNet@@QEAA_NAEAV12@@Z @3829
?Read@BitStream@RakNet@@QEAA_NAEAV12@I@Z @3830
?Read@BitStream@RakNet@@QEAA_NPEAD@Z @3831
?Read@BitStream@RakNet@@QEAA_NPEADI@Z @3832
?Read@BitStream@RakNet@@QEAA_NPEAE@Z @3833
?Read@BitStream@RakNet@@QEAA_NPEAV12@@Z @3834
?Read@BitStream@RakNet@@QEAA_NPEAV12@I@Z @3835
?Read@HTTPConnection@RakNet@@QEAA?AVRakString@2@XZ @3836
?ReadAlignedBytes@BitStream@RakNet@@QEAA_NPEAEI@Z @3837
?ReadAlignedBytesSafe@BitStream@RakNet@@QEAA_NPEADAEAHH@Z @3838
?ReadAlignedBytesSafe@BitStream@RakNet@@QEAA_NPEADAEAII@Z @3839
?ReadAlignedBytesSafeAlloc@BitStream@RakNet@@QEAA_NPEAPEADAEAHI@Z @3840
?ReadAlignedBytesSafeAlloc@BitStream@RakNet@@QEAA_NPEAPEADAEAII@Z @3841
?ReadAlignedVar16@BitStream@RakNet@@QEAA_NPEAD@Z @3842
?ReadAlignedVar32@BitStream@RakNet@@QEAA_NPEAD@Z @3843
?ReadAlignedVar8@BitStream@RakNet@@QEAA_NPEAD@Z @3844
?ReadBit@BitStream@RakNet@@QEAA_NXZ @3845
?ReadBits@BitStream@RakNet@@QEAA_NPEAEI_N@Z @3846
?ReadCompressed@BitStream@RakNet@@AEAA_NPEAEI_N@Z @3847
?ReadFloat16@BitStream@RakNet@@QEAA_NAEAMMM@Z @3848
?ReadIntFromSubstring@RakString@RakNet@@SAHPEBD_K1@Z @3849
?ReadLine@Rackspace@RakNet@@IEAAXPEBD0AEAVRakString@2@@Z @3850
?ReadLock@?$SingleProducerConsumer@PEAD@DataStructures@@QEAAPEAPEADXZ @3851
?ReadVerifiedJoinInProgressMember@FullyConnectedMesh2@RakNet@@IEAAXPEAVBitStream@2@PEAUVerifiedJoinInProgressMember@12@@Z @3852
?Realloc@RakString@RakNet@@IEAAXPEAUSharedString@12@_K@Z @3853
?ReassembleLine@TelnetTransport@RakNet@@IEAA_NPEAUTelnetClient@12@E@Z @3854
?RebootServer@Rackspace@RakNet@@QEAAXVRakString@2@0@Z @3855
?RebuildServer@Rackspace@RakNet@@QEAAXVRakString@2@0@Z @3856
?Receive@PacketizedTCP@RakNet@@UEAAPEAUPacket@2@XZ @3857
?Receive@RakNetTransport2@RakNet@@UEAAPEAUPacket@2@XZ @3858
?Receive@RakPeer@RakNet@@UEAAPEAUPacket@2@XZ @3859
?Receive@TCPInterface@RakNet@@UEAAPEAUPacket@2@XZ @3860
?Receive@TelnetTransport@RakNet@@UEAAPEAUPacket@2@XZ @3861
?ReceiveFrame@RakVoice@RakNet@@QEAA_NIPEAX@Z @3862
?ReceiveHasPackets@TCPInterface@RakNet@@UEAA_NXZ @3863
?ReceiveInt@TCPInterface@RakNet@@IEAAPEAUPacket@2@XZ @3864
?RecvFrom@UDPForwarder@RakNet@@IEAAXIPEAUForwardEntry@12@@Z @3865
?RecvFromBlocking@RNS2_Berkley@RakNet@@IEAAXPEAURNS2RecvStruct@2@@Z @3866
?RecvFromBlockingIPV4@RNS2_Berkley@RakNet@@IEAAXPEAURNS2RecvStruct@2@@Z @3867
?RecvFromBlockingIPV4And6@RNS2_Berkley@RakNet@@IEAAXPEAURNS2RecvStruct@2@@Z @3868
?RecvFromLoop@RNS2_Berkley@RakNet@@KAIPEAX@Z @3869
?RecvFromLoopInt@RNS2_Berkley@RakNet@@IEAAIXZ @3870
?Reference@ReplicaManager3@RakNet@@QEAAXPEAVReplica3@2@E@Z @3871
?ReferenceInternal@ReplicaManager3@RakNet@@IEAAIPEAVReplica3@2@E@Z @3872
?ReferenceRemoteSystem@RakPeer@RakNet@@IEAAXAEBUSystemAddress@2@I@Z @3873
?RegisterBlockingFunction@RPC4@RakNet@@QEAA_NPEBDP6AXPEAVBitStream@2@1PEAUPacket@2@@Z@Z @3874
?RegisterCommand@CommandParserInterface@RakNet@@UEAAXEPEBD0@Z @3875
?RegisterFunction@RPC4@RakNet@@QEAA_NPEBDP6AXPEAVBitStream@2@PEAUPacket@2@@Z@Z @3876
?RegisterLocalCallback@RPC4@RakNet@@QEAAXPEBDE@Z @3877
?RegisterSlot@RPC4@RakNet@@QEAAXPEBDP6AXPEAVBitStream@2@PEAUPacket@2@@ZH@Z @3878
?RegisteredCommandComp@RakNet@@YAHAEBQEBDAEBURegisteredCommand@1@@Z @3879
?Release@?$MemoryPool@$$BY0CAA@E@DataStructures@@QEAAXPEAY0CAA@EPEBDI@Z @3880
?Release@?$MemoryPool@$$BY0CAAA@E@DataStructures@@QEAAXPEAY0CAAA@EPEBDI@Z @3881
?Release@?$MemoryPool@$$BY0IA@E@DataStructures@@QEAAXPEAY0IA@EPEBDI@Z @3882
?Release@?$MemoryPool@$$BY0IAA@E@DataStructures@@QEAAXPEAY0IAA@EPEBDI@Z @3883
?Release@?$MemoryPool@PEAURemoteClient@RakNet@@@DataStructures@@QEAAXPEAPEAURemoteClient@RakNet@@PEBDI@Z @3884
?Release@?$MemoryPool@U?$Page@IPEAURow@Table@DataStructures@@$0BA@@DataStructures@@@DataStructures@@QEAAXPEAU?$Page@IPEAURow@Table@DataStructures@@$0BA@@2@PEBDI@Z @3885
?Release@?$MemoryPool@UBufferedCommandStruct@RakPeer@RakNet@@@DataStructures@@QEAAXPEAUBufferedCommandStruct@RakPeer@RakNet@@PEBDI@Z @3886
?Release@?$MemoryPool@UChangedVariablesList@VariableDeltaSerializer@RakNet@@@DataStructures@@QEAAXPEAUChangedVariablesList@VariableDeltaSerializer@RakNet@@PEBDI@Z @3887
?Release@?$MemoryPool@UInternalPacket@RakNet@@@DataStructures@@QEAAXPEAUInternalPacket@RakNet@@PEBDI@Z @3888
?Release@?$MemoryPool@UInternalPacketRefCountedData@RakNet@@@DataStructures@@QEAAXPEAUInternalPacketRefCountedData@RakNet@@PEBDI@Z @3889
?Release@?$MemoryPool@UMessageNumberNode@ReliabilityLayer@RakNet@@@DataStructures@@QEAAXPEAUMessageNumberNode@ReliabilityLayer@RakNet@@PEBDI@Z @3890
?Release@?$MemoryPool@UPacket@RakNet@@@DataStructures@@QEAAXPEAUPacket@RakNet@@PEBDI@Z @3891
?Release@?$MemoryPool@URemoteSystemIndex@RakNet@@@DataStructures@@QEAAXPEAURemoteSystemIndex@RakNet@@PEBDI@Z @3892
?Release@?$MemoryPool@USocketQueryOutput@RakPeer@RakNet@@@DataStructures@@QEAAXPEAUSocketQueryOutput@RakPeer@RakNet@@PEBDI@Z @3893
?Release@?$MemoryPool@UStartForwardingInputStruct@UDPForwarder@RakNet@@@DataStructures@@QEAAXPEAUStartForwardingInputStruct@UDPForwarder@RakNet@@PEBDI@Z @3894
?Release@?$MemoryPool@UStopForwardingStruct@UDPForwarder@RakNet@@@DataStructures@@QEAAXPEAUStopForwardingStruct@UDPForwarder@RakNet@@PEBDI@Z @3895
?Release@?$MemoryPool@USystemAddress@RakNet@@@DataStructures@@QEAAXPEAUSystemAddress@RakNet@@PEBDI@Z @3896
?Release@BytePool@DataStructures@@QEAAXPEAEPEBDI@Z @3897
?Release@CloudClient@RakNet@@UEAAXAEAV?$List@UCloudKey@RakNet@@@DataStructures@@URakNetGUID@2@@Z @3898
?Release@ReferenceCounter@RakNet@@QEAAHXZ @3899
?ReleaseSockets@RakPeer@RakNet@@UEAAXAEAV?$List@PEAVRakNetSocket2@RakNet@@@DataStructures@@@Z @3900
?ReloadMT@RakNetRandom@RakNet@@QEAAIXZ @3901
?RemoteServerComp@CloudServer@RakNet@@KAHAEBURakNetGUID@2@AEBQEAURemoteServer@12@@Z @3902
?RemoteSystemComp@ConnectionGraph2@RakNet@@SAHAEBURakNetGUID@2@AEBQEAURemoteSystem@12@@Z @3903
?RemoteSystemLookupHashIndex@RakPeer@RakNet@@IEBAIAEBUSystemAddress@2@@Z @3904
?Remove@?$Hash@UAddressOrGUID@RakNet@@UFilteredSystem@2@$0IAA@$1?ToInteger@12@SAKAEBU12@@Z@DataStructures@@QEAA_NUAddressOrGUID@RakNet@@PEBDI@Z @3905
?Remove@?$Hash@URakNetGUID@RakNet@@PEAURemoteCloudClient@CloudServer@2@$0IAA@$1?ToUint32@12@SAKAEBU12@@Z@DataStructures@@QEAA_NURakNetGUID@RakNet@@PEBDI@Z @3906
?Remove@?$Hash@USystemAddress@RakNet@@UClientState@@$0BAA@$1?SystemAddressHash@@YAKAEBU12@@Z@DataStructures@@QEAA_NUSystemAddress@RakNet@@PEBDI@Z @3907
?Remove@?$Hash@VRakString@RakNet@@PEAUStrAndGuidAndRoom@RelayPlugin@2@$0BPKA@$1?ToInteger@12@SAKAEBV12@@Z@DataStructures@@QEAA_NVRakString@RakNet@@PEBDI@Z @3908
?Remove@?$Hash@_KPEAVTM_Team@RakNet@@$0BAA@$1?ToUint32@12@SAKAEB_K@Z@DataStructures@@QEAA_N_KPEBDI@Z @3909
?Remove@?$Hash@_KPEAVTM_TeamMember@RakNet@@$0BAA@$1?ToUint32@12@SAKAEB_K@Z@DataStructures@@QEAA_N_KPEBDI@Z @3910
?Remove@?$OrderedList@URakNetGUID@RakNet@@U12@$1??$defaultOrderedListComparison@URakNetGUID@RakNet@@U12@@DataStructures@@YAHAEBU12@0@Z@DataStructures@@QEAAIAEBURakNetGUID@RakNet@@P6AH00@Z@Z @3911
?Remove@?$OrderedList@USenderAndTargetAddress@UDPProxyCoordinator@RakNet@@PEAUForwardingRequest@23@$1?ForwardingRequestComp@23@KAHAEBU123@AEBQEAU423@@Z@DataStructures@@QEAAIAEBUSenderAndTargetAddress@UDPProxyCoordinator@RakNet@@P6AH0AEBQEAUForwardingRequest@45@@Z@Z @3912
?RemoveAllQueryFilters@CloudServer@RakNet@@QEAAXXZ @3913
?RemoveAtIndex@?$Hash@UAddressOrGUID@RakNet@@UFilteredSystem@2@$0IAA@$1?ToInteger@12@SAKAEBU12@@Z@DataStructures@@QEAA_NUHashIndex@2@PEBDI@Z @3914
?RemoveAtIndex@?$Hash@URakNetGUID@RakNet@@PEAURemoteCloudClient@CloudServer@2@$0IAA@$1?ToUint32@12@SAKAEBU12@@Z@DataStructures@@QEAA_NUHashIndex@2@PEBDI@Z @3915
?RemoveAtIndex@?$Hash@USystemAddress@RakNet@@UClientState@@$0BAA@$1?SystemAddressHash@@YAKAEBU12@@Z@DataStructures@@QEAA_NUHashIndex@2@PEBDI@Z @3916
?RemoveAtIndex@?$Hash@VRakString@RakNet@@PEAULocalSlot@RPC4@2@$0BAA@$1?ToInteger@12@SAKAEBV12@@Z@DataStructures@@QEAA_NUHashIndex@2@PEBDI@Z @3917
?RemoveAtIndex@?$Hash@VRakString@RakNet@@PEAUStrAndGuidAndRoom@RelayPlugin@2@$0BPKA@$1?ToInteger@12@SAKAEBV12@@Z@DataStructures@@QEAA_NUHashIndex@2@PEBDI@Z @3918
?RemoveAtIndex@?$Hash@_KPEAVTM_Team@RakNet@@$0BAA@$1?ToUint32@12@SAKAEB_K@Z@DataStructures@@QEAA_NUHashIndex@2@PEBDI@Z @3919
?RemoveAtIndex@?$Hash@_KPEAVTM_TeamMember@RakNet@@$0BAA@$1?ToUint32@12@SAKAEB_K@Z@DataStructures@@QEAA_NUHashIndex@2@PEBDI@Z @3920
?RemoveAtIndex@?$List@PEAUBanStruct@RakPeer@RakNet@@@DataStructures@@QEAAXI@Z @3921
?RemoveAtIndex@?$List@PEAUBufferedGetResponseFromServer@CloudServer@RakNet@@@DataStructures@@QEAAXI@Z @3922
?RemoveAtIndex@?$List@PEAUCell@Table@DataStructures@@@DataStructures@@QEAAXI@Z @3923
?RemoveAtIndex@?$List@PEAUChangedVariablesList@VariableDeltaSerializer@RakNet@@@DataStructures@@QEAAXI@Z @3924
?RemoveAtIndex@?$List@PEAUCloudData@CloudServer@RakNet@@@DataStructures@@QEAAXI@Z @3925
?RemoveAtIndex@?$List@PEAUCloudDataList@CloudServer@RakNet@@@DataStructures@@QEAAXI@Z @3926
?RemoveAtIndex@?$List@PEAUConnectionAttempt@NatPunchthroughServer@RakNet@@@DataStructures@@QEAAXI@Z @3927
?RemoveAtIndex@?$List@PEAUFileToPushRecipient@FileListTransfer@RakNet@@@DataStructures@@QEAAXI@Z @3928
?RemoveAtIndex@?$List@PEAUFilterSet@RakNet@@@DataStructures@@QEAAXI@Z @3929
?RemoveAtIndex@?$List@PEAUForwardEntry@UDPForwarder@RakNet@@@DataStructures@@QEAAXI@Z @3930
?RemoveAtIndex@?$List@PEAUForwardingRequest@UDPProxyCoordinator@RakNet@@@DataStructures@@QEAAXI@Z @3931
?RemoveAtIndex@?$List@PEAUGetRequest@CloudServer@RakNet@@@DataStructures@@QEAAXI@Z @3932
?RemoveAtIndex@?$List@PEAUKeySubscriberID@CloudServer@RakNet@@@DataStructures@@QEAAXI@Z @3933
?RemoveAtIndex@?$List@PEAULastSerializationResult@RakNet@@@DataStructures@@QEAAXI@Z @3934
?RemoveAtIndex@?$List@PEAULocalCallback@RPC4@RakNet@@@DataStructures@@QEAAXI@Z @3935
?RemoveAtIndex@?$List@PEAUNonceAndRemoteSystemRequest@TwoWayAuthentication@RakNet@@@DataStructures@@QEAAXI@Z @3936
?RemoveAtIndex@?$List@PEAUPingServerGroup@UDPProxyClient@RakNet@@@DataStructures@@QEAAXI@Z @3937
?RemoveAtIndex@?$List@PEAUReadyEventNode@ReadyEvent@RakNet@@@DataStructures@@QEAAXI@Z @3938
?RemoveAtIndex@?$List@PEAURemoteServer@CloudServer@RakNet@@@DataStructures@@QEAAXI@Z @3939
?RemoveAtIndex@?$List@PEAURemoteSystem@ConnectionGraph2@RakNet@@@DataStructures@@QEAAXI@Z @3940
?RemoveAtIndex@?$List@PEAUSharedString@RakString@RakNet@@@DataStructures@@QEAAXI@Z @3941
?RemoveAtIndex@?$List@PEAUSplitPacketChannel@RakNet@@@DataStructures@@QEAAXI@Z @3942
?RemoveAtIndex@?$List@PEAUTrackedObject@StatisticsHistory@RakNet@@@DataStructures@@QEAAXI@Z @3943
?RemoveAtIndex@?$List@PEAUUser@NatPunchthroughServer@RakNet@@@DataStructures@@QEAAXI@Z @3944
?RemoveAtIndex@?$List@PEAUVerifiedJoinInProgress@FullyConnectedMesh2@RakNet@@@DataStructures@@QEAAXI@Z @3945
?RemoveAtIndex@?$List@PEAUVoiceChannel@RakNet@@@DataStructures@@QEAAXI@Z @3946
?RemoveAtIndex@?$List@PEAVCloudServerQueryFilter@RakNet@@@DataStructures@@QEAAXI@Z @3947
?RemoveAtIndex@?$List@PEAVConnection_RM3@RakNet@@@DataStructures@@QEAAXI@Z @3948
?RemoveAtIndex@?$List@PEAVFileListProgress@RakNet@@@DataStructures@@QEAAXI@Z @3949
?RemoveAtIndex@?$List@PEAVRackspace2EventCallback@RakNet@@@DataStructures@@QEAAXI@Z @3950
?RemoveAtIndex@?$List@PEAVReplica3@RakNet@@@DataStructures@@QEAAXI@Z @3951
?RemoveAtIndex@?$List@PEAVTM_Team@RakNet@@@DataStructures@@QEAAXI@Z @3952
?RemoveAtIndex@?$List@PEAVTM_TeamMember@RakNet@@@DataStructures@@QEAAXI@Z @3953
?RemoveAtIndex@?$List@U?$RangeNode@Uuint24_t@RakNet@@@DataStructures@@@DataStructures@@QEAAXI@Z @3954
?RemoveAtIndex@?$List@UCloudKey@RakNet@@@DataStructures@@QEAAXI@Z @3955
?RemoveAtIndex@?$List@UColumnDescriptor@Table@DataStructures@@@DataStructures@@QEAAXI@Z @3956
?RemoveAtIndex@?$List@UConnectionRequestSystem@Router2@RakNet@@@DataStructures@@QEAAXI@Z @3957
?RemoveAtIndex@?$List@UFileListNode@RakNet@@@DataStructures@@QEAAXI@Z @3958
?RemoveAtIndex@?$List@UMapNode@?$Map@GPEAUFileListReceiver@RakNet@@$1??$defaultMapKeyComparison@G@DataStructures@@YAHAEBG0@Z@DataStructures@@@DataStructures@@QEAAXI@Z @3959
?RemoveAtIndex@?$List@UMapNode@?$Map@IUFLR_MemoryBlock@RakNet@@$1??$defaultMapKeyComparison@I@DataStructures@@YAHAEBI0@Z@DataStructures@@@DataStructures@@QEAAXI@Z @3960
?RemoveAtIndex@?$List@UMapNode@?$Map@USystemAddress@RakNet@@PEAVByteQueue@DataStructures@@$1??$defaultMapKeyComparison@USystemAddress@RakNet@@@4@YAHAEBU12@0@Z@DataStructures@@@DataStructures@@QEAAXI@Z @3961
?RemoveAtIndex@?$List@URackspaceOperation@Rackspace@RakNet@@@DataStructures@@QEAAXI@Z @3962
?RemoveAtIndex@?$List@URakNetGUID@RakNet@@@DataStructures@@QEAAXI@Z @3963
?RemoveAtIndex@?$List@URemoteSystem@ReadyEvent@RakNet@@@DataStructures@@QEAAXI@Z @3964
?RemoveAtIndex@?$List@URequestedTeam@TM_TeamMember@RakNet@@@DataStructures@@QEAAXI@Z @3965
?RemoveAtIndex@?$List@USystemAddress@RakNet@@@DataStructures@@QEAAXI@Z @3966
?RemoveAtIndex@?$List@USystemAddressAndGuid@ConnectionGraph2@RakNet@@@DataStructures@@QEAAXI@Z @3967
?RemoveAtIndex@?$List@UUnreliableWithAckReceiptNode@ReliabilityLayer@RakNet@@@DataStructures@@QEAAXI@Z @3968
?RemoveAtIndex@?$List@VRakString@RakNet@@@DataStructures@@QEAAXI@Z @3969
?RemoveAtIndex@?$Map@GPEAUFileListReceiver@RakNet@@$1??$defaultMapKeyComparison@G@DataStructures@@YAHAEBG0@Z@DataStructures@@QEAAXI@Z @3970
?RemoveAtIndex@?$Map@USystemAddress@RakNet@@PEAVByteQueue@DataStructures@@$1??$defaultMapKeyComparison@USystemAddress@RakNet@@@4@YAHAEBU12@0@Z@DataStructures@@QEAAXI@Z @3971
?RemoveAtIndex@?$OrderedList@EPEAULocalCallback@RPC4@RakNet@@$1?LocalCallbackComp@23@SAHAEBEAEBQEAU123@@Z@DataStructures@@QEAAXI@Z @3972
?RemoveAtIndex@?$OrderedList@GPEAUSplitPacketChannel@RakNet@@$1?SplitPacketChannelComp@2@YAHAEBGAEBQEAU12@@Z@DataStructures@@QEAAXI@Z @3973
?RemoveAtIndex@?$OrderedList@GUMapNode@?$Map@GPEAUFileListReceiver@RakNet@@$1??$defaultMapKeyComparison@G@DataStructures@@YAHAEBG0@Z@DataStructures@@$1?NodeComparisonFunc@23@SAHAEBGAEBU123@@Z@DataStructures@@QEAAXI@Z @3974
?RemoveAtIndex@?$OrderedList@HPEAUFilterSet@RakNet@@$1?FilterSetComp@2@YAHAEBHAEBQEAU12@@Z@DataStructures@@QEAAXI@Z @3975
?RemoveAtIndex@?$OrderedList@HPEAUReadyEventNode@ReadyEvent@RakNet@@$1?ReadyEventNodeComp@23@SAHAEBHAEBQEAU123@@Z@DataStructures@@QEAAXI@Z @3976
?RemoveAtIndex@?$OrderedList@IPEAUChangedVariablesList@VariableDeltaSerializer@RakNet@@$1?UpdatedVariablesListPtrComp@23@KAHAEBIAEBQEAU123@@Z@DataStructures@@QEAAXI@Z @3977
?RemoveAtIndex@?$OrderedList@IPEAUGetRequest@CloudServer@RakNet@@$1?GetRequestComp@23@KAHAEBIAEBQEAU123@@Z@DataStructures@@QEAAXI@Z @3978
?RemoveAtIndex@?$OrderedList@IUMapNode@?$Map@IUFLR_MemoryBlock@RakNet@@$1??$defaultMapKeyComparison@I@DataStructures@@YAHAEBI0@Z@DataStructures@@$1?NodeComparisonFunc@23@SAHAEBIAEBU123@@Z@DataStructures@@QEAAXI@Z @3979
?RemoveAtIndex@?$OrderedList@PEAVReplica3@RakNet@@PEAULastSerializationResult@2@$1?Replica3LSRComp@Connection_RM3@2@SAHAEBQEAV12@AEBQEAU32@@Z@DataStructures@@QEAAXI@Z @3980
?RemoveAtIndex@?$OrderedList@UCloudKey@RakNet@@PEAUCloudDataList@CloudServer@2@$1?KeyDataListComp@42@KAHAEBU12@AEBQEAU342@@Z@DataStructures@@QEAAXI@Z @3981
?RemoveAtIndex@?$OrderedList@UCloudKey@RakNet@@PEAUKeySubscriberID@CloudServer@2@$1?KeySubscriberIDComp@42@KAHAEBU12@AEBQEAU342@@Z@DataStructures@@QEAAXI@Z @3982
?RemoveAtIndex@?$OrderedList@UCloudKey@RakNet@@U12@$1?CloudKeyComp@2@YAHAEBU12@0@Z@DataStructures@@QEAAXI@Z @3983
?RemoveAtIndex@?$OrderedList@URakNetGUID@RakNet@@PEAUBufferedGetResponseFromServer@CloudServer@2@$1?BufferedGetResponseFromServerComp@42@KAHAEBU12@AEBQEAU342@@Z@DataStructures@@QEAAXI@Z @3984
?RemoveAtIndex@?$OrderedList@URakNetGUID@RakNet@@PEAUCloudData@CloudServer@2@$1?KeyDataPtrComp@42@KAHAEBU12@AEBQEAU342@@Z@DataStructures@@QEAAXI@Z @3985
?RemoveAtIndex@?$OrderedList@URakNetGUID@RakNet@@PEAURemoteServer@CloudServer@2@$1?RemoteServerComp@42@KAHAEBU12@AEBQEAU342@@Z@DataStructures@@QEAAXI@Z @3986
?RemoveAtIndex@?$OrderedList@URakNetGUID@RakNet@@PEAURemoteSystem@ConnectionGraph2@2@$1?RemoteSystemComp@42@SAHAEBU12@AEBQEAU342@@Z@DataStructures@@QEAAXI@Z @3987
?RemoveAtIndex@?$OrderedList@URakNetGUID@RakNet@@PEAUUser@NatPunchthroughServer@2@$1?NatPunchthroughUserComp@42@SAHAEBU12@AEBQEAU342@@Z@DataStructures@@QEAAXI@Z @3988
?RemoveAtIndex@?$OrderedList@URakNetGUID@RakNet@@PEAUVoiceChannel@2@$1?VoiceChannelComp@2@YAHAEBU12@AEBQEAU32@@Z@DataStructures@@QEAAXI@Z @3989
?RemoveAtIndex@?$OrderedList@URakNetGUID@RakNet@@U12@$1??$defaultOrderedListComparison@URakNetGUID@RakNet@@U12@@DataStructures@@YAHAEBU12@0@Z@DataStructures@@QEAAXI@Z @3990
?RemoveAtIndex@?$OrderedList@URakNetGUID@RakNet@@URemoteSystem@ReadyEvent@2@$1?RemoteSystemCompByGuid@42@SAHAEBU12@AEBU342@@Z@DataStructures@@QEAAXI@Z @3991
?RemoveAtIndex@?$OrderedList@USenderAndTargetAddress@UDPProxyCoordinator@RakNet@@PEAUForwardingRequest@23@$1?ForwardingRequestComp@23@KAHAEBU123@AEBQEAU423@@Z@DataStructures@@QEAAXI@Z @3992
?RemoveAtIndex@?$OrderedList@USystemAddress@RakNet@@U12@$1??$defaultOrderedListComparison@USystemAddress@RakNet@@U12@@DataStructures@@YAHAEBU12@0@Z@DataStructures@@QEAAXI@Z @3993
?RemoveAtIndex@?$OrderedList@USystemAddress@RakNet@@UMapNode@?$Map@USystemAddress@RakNet@@PEAVByteQueue@DataStructures@@$1??$defaultMapKeyComparison@USystemAddress@RakNet@@@4@YAHAEBU12@0@Z@DataStructures@@$1?NodeComparisonFunc@45@SAHAEBU12@AEBU345@@Z@DataStructures@@QEAAXI@Z @3994
?RemoveAtIndex@?$OrderedList@USystemAddressAndGuid@ConnectionGraph2@RakNet@@U123@$1?SystemAddressAndGuidComp@23@SAHAEBU123@0@Z@DataStructures@@QEAAXI@Z @3995
?RemoveAtIndex@?$OrderedList@Uuint24_t@RakNet@@U?$RangeNode@Uuint24_t@RakNet@@@DataStructures@@$1??$RangeNodeComp@Uuint24_t@RakNet@@@4@YAHAEBU12@AEBU34@@Z@DataStructures@@QEAAXI@Z @3996
?RemoveAtIndex@?$OrderedList@VRakString@RakNet@@V12@$1??$defaultOrderedListComparison@VRakString@RakNet@@V12@@DataStructures@@YAHAEBV12@0@Z@DataStructures@@QEAAXI@Z @3997
?RemoveAtIndex@?$OrderedList@_KPEAUTrackedObject@StatisticsHistory@RakNet@@$1?TrackedObjectComp@23@SAHAEB_KAEBQEAU123@@Z@DataStructures@@QEAAXI@Z @3998
?RemoveAtIndex@?$Queue@P6AHUThreadData@FileListTransfer@RakNet@@PEA_NPEAX@Z@DataStructures@@QEAAXI@Z @3999
?RemoveAtIndex@?$Queue@PEAURequest@HTTPConnection2@RakNet@@@DataStructures@@QEAAXI@Z @4000
?RemoveAtIndex@?$Queue@PEAURequestedConnectionStruct@RakPeer@RakNet@@@DataStructures@@QEAAXI@Z @4001
?RemoveAtIndex@?$Queue@UPendingChallenge@TwoWayAuthentication@RakNet@@@DataStructures@@QEAAXI@Z @4002
?RemoveAtIndex@?$Queue@UStartForwardingOutputStruct@UDPForwarder@RakNet@@@DataStructures@@QEAAXI@Z @4003
?RemoveAtIndex@?$Queue@UThreadData@FileListTransfer@RakNet@@@DataStructures@@QEAAXI@Z @4004
?RemoveAtIndexFast@?$List@PEAUConnnectRequest@Router2@RakNet@@@DataStructures@@QEAAXI@Z @4005
?RemoveAtIndexFast@?$List@PEAUForwardEntry@UDPForwarder@RakNet@@@DataStructures@@QEAAXI@Z @4006
?RemoveAtIndexFast@?$List@PEAURM3World@ReplicaManager3@RakNet@@@DataStructures@@QEAAXI@Z @4007
?RemoveAtIndexFast@?$List@PEAURP_Group@RelayPlugin@RakNet@@@DataStructures@@QEAAXI@Z @4008
?RemoveAtIndexFast@?$List@PEAURemoteSystemVariableHistory@VariableDeltaSerializer@RakNet@@@DataStructures@@QEAAXI@Z @4009
?RemoveAtIndexFast@?$List@PEAURequest@HTTPConnection2@RakNet@@@DataStructures@@QEAAXI@Z @4010
?RemoveAtIndexFast@?$List@PEAVTM_Team@RakNet@@@DataStructures@@QEAAXI@Z @4011
?RemoveAtIndexFast@?$List@PEAVTM_World@RakNet@@@DataStructures@@QEAAXI@Z @4012
?RemoveAtIndexFast@?$List@UAddrAndGuid@NatPunchthroughClient@RakNet@@@DataStructures@@QEAAXI@Z @4013
?RemoveAtIndexFast@?$List@UConnectionRequestSystem@Router2@RakNet@@@DataStructures@@QEAAXI@Z @4014
?RemoveAtIndexFast@?$List@UForwardedConnection@Router2@RakNet@@@DataStructures@@QEAAXI@Z @4015
?RemoveAtIndexFast@?$List@UMiniPunchRequest@Router2@RakNet@@@DataStructures@@QEAAXI@Z @4016
?RemoveAtIndexFast@?$List@UMyTeamMembers@TeamBalancer@RakNet@@@DataStructures@@QEAAXI@Z @4017
?RemoveAtIndexFast@?$List@UNATDetectionAttempt@NatTypeDetectionServer@RakNet@@@DataStructures@@QEAAXI@Z @4018
?RemoveAtIndexFast@?$List@UStrAndGuid@RelayPlugin@RakNet@@@DataStructures@@QEAAXI@Z @4019
?RemoveAtIndexFast@?$List@USystemAddress@RakNet@@@DataStructures@@QEAAXI@Z @4020
?RemoveAtIndexFast@?$List@UTeamMember@TeamBalancer@RakNet@@@DataStructures@@QEAAXI@Z @4021
?RemoveAtIndexFast@?$List@_K@DataStructures@@QEAAXI@Z @4022
?RemoveByGuid@TeamBalancer@RakNet@@IEAAXURakNetGUID@2@@Z @4023
?RemoveCallback@FileList@RakNet@@QEAAXPEAVFileListProgress@2@@Z @4024
?RemoveCallback@FileListTransfer@RakNet@@QEAAXPEAVFileListProgress@2@@Z @4025
?RemoveCharacter@RakString@RakNet@@QEAAXD@Z @4026
?RemoveColumn@Table@DataStructures@@QEAAXI@Z @4027
?RemoveCommandParser@ConsoleServer@RakNet@@QEAAXPEAVCommandParserInterface@2@@Z @4028
?RemoveConnectionRequest@Router2@RakNet@@IEAAXI@Z @4029
?RemoveEventCallback@Rackspace@RakNet@@QEAAXPEAVRackspace2EventCallback@2@@Z @4030
?RemoveFromActiveSystemList@RakPeer@RakNet@@IEAAXAEBUSystemAddress@2@@Z @4031
?RemoveFromAllTeamsInternal@TM_TeamMember@RakNet@@IEAAXXZ @4032
?RemoveFromBanList@RakPeer@RakNet@@UEAAXPEBD@Z @4033
?RemoveFromConnectionList@PacketizedTCP@RakNet@@IEAAXAEBUSystemAddress@2@@Z @4034
?RemoveFromEnd@?$List@PEAUBanStruct@RakPeer@RakNet@@@DataStructures@@QEAAXI@Z @4035
?RemoveFromEnd@?$List@PEAUBufferedGetResponseFromServer@CloudServer@RakNet@@@DataStructures@@QEAAXI@Z @4036
?RemoveFromEnd@?$List@PEAUCell@Table@DataStructures@@@DataStructures@@QEAAXI@Z @4037
?RemoveFromEnd@?$List@PEAUChangedVariablesList@VariableDeltaSerializer@RakNet@@@DataStructures@@QEAAXI@Z @4038
?RemoveFromEnd@?$List@PEAUCloudData@CloudServer@RakNet@@@DataStructures@@QEAAXI@Z @4039
?RemoveFromEnd@?$List@PEAUCloudDataList@CloudServer@RakNet@@@DataStructures@@QEAAXI@Z @4040
?RemoveFromEnd@?$List@PEAUConnectionAttempt@NatPunchthroughServer@RakNet@@@DataStructures@@QEAAXI@Z @4041
?RemoveFromEnd@?$List@PEAUFileToPushRecipient@FileListTransfer@RakNet@@@DataStructures@@QEAAXI@Z @4042
?RemoveFromEnd@?$List@PEAUFilterSet@RakNet@@@DataStructures@@QEAAXI@Z @4043
?RemoveFromEnd@?$List@PEAUForwardEntry@UDPForwarder@RakNet@@@DataStructures@@QEAAXI@Z @4044
?RemoveFromEnd@?$List@PEAUForwardingRequest@UDPProxyCoordinator@RakNet@@@DataStructures@@QEAAXI@Z @4045
?RemoveFromEnd@?$List@PEAUGetRequest@CloudServer@RakNet@@@DataStructures@@QEAAXI@Z @4046
?RemoveFromEnd@?$List@PEAUKeySubscriberID@CloudServer@RakNet@@@DataStructures@@QEAAXI@Z @4047
?RemoveFromEnd@?$List@PEAULastSerializationResult@RakNet@@@DataStructures@@QEAAXI@Z @4048
?RemoveFromEnd@?$List@PEAULocalCallback@RPC4@RakNet@@@DataStructures@@QEAAXI@Z @4049
?RemoveFromEnd@?$List@PEAUNonceAndRemoteSystemRequest@TwoWayAuthentication@RakNet@@@DataStructures@@QEAAXI@Z @4050
?RemoveFromEnd@?$List@PEAUPingServerGroup@UDPProxyClient@RakNet@@@DataStructures@@QEAAXI@Z @4051
?RemoveFromEnd@?$List@PEAUReadyEventNode@ReadyEvent@RakNet@@@DataStructures@@QEAAXI@Z @4052
?RemoveFromEnd@?$List@PEAURemoteServer@CloudServer@RakNet@@@DataStructures@@QEAAXI@Z @4053
?RemoveFromEnd@?$List@PEAURemoteSystem@ConnectionGraph2@RakNet@@@DataStructures@@QEAAXI@Z @4054
?RemoveFromEnd@?$List@PEAUSharedString@RakString@RakNet@@@DataStructures@@QEAAXI@Z @4055
?RemoveFromEnd@?$List@PEAUSplitPacketChannel@RakNet@@@DataStructures@@QEAAXI@Z @4056
?RemoveFromEnd@?$List@PEAUTelnetClient@TelnetTransport@RakNet@@@DataStructures@@QEAAXI@Z @4057
?RemoveFromEnd@?$List@PEAUTrackedObject@StatisticsHistory@RakNet@@@DataStructures@@QEAAXI@Z @4058
?RemoveFromEnd@?$List@PEAUUser@NatPunchthroughServer@RakNet@@@DataStructures@@QEAAXI@Z @4059
?RemoveFromEnd@?$List@PEAUVerifiedJoinInProgress@FullyConnectedMesh2@RakNet@@@DataStructures@@QEAAXI@Z @4060
?RemoveFromEnd@?$List@PEAUVoiceChannel@RakNet@@@DataStructures@@QEAAXI@Z @4061
?RemoveFromEnd@?$List@PEAVCloudServerQueryFilter@RakNet@@@DataStructures@@QEAAXI@Z @4062
?RemoveFromEnd@?$List@PEAVCommandParserInterface@RakNet@@@DataStructures@@QEAAXI@Z @4063
?RemoveFromEnd@?$List@PEAVConnection_RM3@RakNet@@@DataStructures@@QEAAXI@Z @4064
?RemoveFromEnd@?$List@PEAVFileListProgress@RakNet@@@DataStructures@@QEAAXI@Z @4065
?RemoveFromEnd@?$List@PEAVPluginInterface2@RakNet@@@DataStructures@@QEAAXI@Z @4066
?RemoveFromEnd@?$List@PEAVRackspace2EventCallback@RakNet@@@DataStructures@@QEAAXI@Z @4067
?RemoveFromEnd@?$List@PEAVReplica3@RakNet@@@DataStructures@@QEAAXI@Z @4068
?RemoveFromEnd@?$List@PEAVTM_Team@RakNet@@@DataStructures@@QEAAXI@Z @4069
?RemoveFromEnd@?$List@PEAVTM_TeamMember@RakNet@@@DataStructures@@QEAAXI@Z @4070
?RemoveFromEnd@?$List@U?$RangeNode@Uuint24_t@RakNet@@@DataStructures@@@DataStructures@@QEAAXI@Z @4071
?RemoveFromEnd@?$List@UCloudKey@RakNet@@@DataStructures@@QEAAXI@Z @4072
?RemoveFromEnd@?$List@UColumnDescriptor@Table@DataStructures@@@DataStructures@@QEAAXI@Z @4073
?RemoveFromEnd@?$List@UConnectionRequestSystem@Router2@RakNet@@@DataStructures@@QEAAXI@Z @4074
?RemoveFromEnd@?$List@UFileListNode@RakNet@@@DataStructures@@QEAAXI@Z @4075
?RemoveFromEnd@?$List@UHeapNode@?$Heap@_KPEAUInternalPacket@RakNet@@$0A@@DataStructures@@@DataStructures@@QEAAXI@Z @4076
?RemoveFromEnd@?$List@UMapNode@?$Map@GPEAUFileListReceiver@RakNet@@$1??$defaultMapKeyComparison@G@DataStructures@@YAHAEBG0@Z@DataStructures@@@DataStructures@@QEAAXI@Z @4077
?RemoveFromEnd@?$List@UMapNode@?$Map@IUFLR_MemoryBlock@RakNet@@$1??$defaultMapKeyComparison@I@DataStructures@@YAHAEBI0@Z@DataStructures@@@DataStructures@@QEAAXI@Z @4078
?RemoveFromEnd@?$List@UMapNode@?$Map@USystemAddress@RakNet@@PEAVByteQueue@DataStructures@@$1??$defaultMapKeyComparison@USystemAddress@RakNet@@@4@YAHAEBU12@0@Z@DataStructures@@@DataStructures@@QEAAXI@Z @4079
?RemoveFromEnd@?$List@URackspaceOperation@Rackspace@RakNet@@@DataStructures@@QEAAXI@Z @4080
?RemoveFromEnd@?$List@URakNetGUID@RakNet@@@DataStructures@@QEAAXI@Z @4081
?RemoveFromEnd@?$List@URemoteSystem@ReadyEvent@RakNet@@@DataStructures@@QEAAXI@Z @4082
?RemoveFromEnd@?$List@URequestedTeam@TM_TeamMember@RakNet@@@DataStructures@@QEAAXI@Z @4083
?RemoveFromEnd@?$List@USystemAddress@RakNet@@@DataStructures@@QEAAXI@Z @4084
?RemoveFromEnd@?$List@USystemAddressAndChannel@LogCommandParser@RakNet@@@DataStructures@@QEAAXI@Z @4085
?RemoveFromEnd@?$List@USystemAddressAndGuid@ConnectionGraph2@RakNet@@@DataStructures@@QEAAXI@Z @4086
?RemoveFromEnd@?$List@UUnreliableWithAckReceiptNode@ReliabilityLayer@RakNet@@@DataStructures@@QEAAXI@Z @4087
?RemoveFromEnd@?$List@VRakString@RakNet@@@DataStructures@@QEAAXI@Z @4088
?RemoveFromEnd@?$OrderedList@Uuint24_t@RakNet@@U?$RangeNode@Uuint24_t@RakNet@@@DataStructures@@$1??$RangeNodeComp@Uuint24_t@RakNet@@@4@YAHAEBU12@AEBU34@@Z@DataStructures@@QEAAXI@Z @4089
?RemoveFromFailureQueue@NatPunchthroughClient@RakNet@@IEAA_NXZ @4090
?RemoveFromList@FileListTransfer@RakNet@@IEAAXPEAUFileToPushRecipient@12@@Z @4091
?RemoveFromRequestedTeams@TM_TeamMember@RakNet@@IEAA_NPEAVTM_Team@2@@Z @4092
?RemoveFromSecurityExceptionList@RakPeer@RakNet@@UEAAXPEBD@Z @4093
?RemoveFromSpecificTeamInternal@TM_TeamMember@RakNet@@IEAAXPEAVTM_Team@2@@Z @4094
?RemoveFromTeamMemberList@TM_Team@RakNet@@IEAAXPEAVTM_TeamMember@2@@Z @4095
?RemoveFromTeamsRequestedAndAddTeam@TeamManager@RakNet@@IEAAXPEAVTM_TeamMember@2@PEAVTM_Team@2@_N1@Z @4096
?RemoveIfExists@?$OrderedList@USystemAddress@RakNet@@U12@$1??$defaultOrderedListComparison@USystemAddress@RakNet@@U12@@DataStructures@@YAHAEBU12@0@Z@DataStructures@@QEAAIAEBUSystemAddress@RakNet@@P6AH00@Z@Z @4097
?RemoveInputAtIndex@?$ThreadPool@UThreadData@FileListTransfer@RakNet@@H@@QEAAXI@Z @4098
?RemoveObject@StatisticsHistory@RakNet@@QEAA_N_KPEAPEAX@Z @4099
?RemoveObjectAtIndex@StatisticsHistory@RakNet@@QEAAXI@Z @4100
?RemoveParticipantOnServer@RelayPlugin@RakNet@@QEAAXAEBURakNetGUID@2@@Z @4101
?RemoveParticipantRequestFromClient@RelayPlugin@RakNet@@QEAAXAEBURakNetGUID@2@@Z @4102
?RemovePendingRequest@HTTPConnection2@RakNet@@IEAAXUSystemAddress@2@@Z @4103
?RemoveQueryFilter@CloudServer@RakNet@@QEAAXPEAVCloudServerQueryFilter@2@@Z @4104
?RemoveReceiver@FileListTransfer@RakNet@@QEAAXUSystemAddress@2@@Z @4105
?RemoveReference@StringCompressor@RakNet@@SAXXZ @4106
?RemoveReference@StringTable@RakNet@@SAXXZ @4107
?RemoveRemoteSystemVariableHistory@VariableDeltaSerializer@RakNet@@IEAAXXZ @4108
?RemoveRemoteSystemVariableHistory@VariableDeltaSerializer@RakNet@@QEAAXURakNetGUID@2@@Z @4109
?RemoveRow@Table@DataStructures@@QEAA_NI@Z @4110
?RemoveRows@Table@DataStructures@@QEAAXPEAV12@@Z @4111
?RemoveServer@CloudServer@RakNet@@QEAAXURakNetGUID@2@@Z @4112
?RemoveSpecificSubscriber@CloudServer@RakNet@@IEAAXURakNetGUID@2@PEAUCloudDataList@12@0@Z @4113
?RemoveSubscribedKeyFromServers@CloudServer@RakNet@@IEAAXAEAUCloudKey@2@@Z @4114
?RemoveTeamMember@TeamBalancer@RakNet@@IEAAXI@Z @4115
?RemoveUploadedKeyFromServers@CloudServer@RakNet@@IEAAXAEAUCloudKey@2@@Z @4116
?RemoveWorld@ReplicaManager3@RakNet@@QEAAXE@Z @4117
?RemoveWorld@TeamManager@RakNet@@QEAAXE@Z @4118
?Replace@?$CircularLinkedList@PEAUHuffmanEncodingTreeNode@@@DataStructures@@QEAAXAEBQEAUHuffmanEncodingTreeNode@@@Z @4119
?Replace@?$List@G@DataStructures@@QEAAXAEBGGIPEBDI@Z @4120
?Replace@RakString@RakNet@@QEAAXIIE@Z @4121
?Replica3LSRComp@Connection_RM3@RakNet@@SAHAEBQEAVReplica3@2@AEBQEAULastSerializationResult@2@@Z @4122
?ReportHash@CSHA1@@QEBA_NPEADW4REPORT_TYPE@1@@Z @4123
?ReportHashStl@CSHA1@@QEBA_NAEAV?$basic_string@DU?$char_traits@D@std@@V?$allocator@D@2@@std@@W4REPORT_TYPE@1@@Z @4124
?RequestAnyTeam@TeamBalancer@RakNet@@QEAAX_K@Z @4125
?RequestForwarding@Router2@RakNet@@IEAAXPEAUConnnectRequest@12@@Z @4126
?RequestForwarding@UDPProxyClient@RakNet@@QEAA_NUSystemAddress@2@00IPEAVBitStream@2@@Z @4127
?RequestForwarding@UDPProxyClient@RakNet@@QEAA_NUSystemAddress@2@0URakNetGUID@2@IPEAVBitStream@2@@Z @4128
?RequestSpecificTeam@TeamBalancer@RakNet@@QEAAX_KE@Z @4129
?RequestTeam@TM_TeamMember@RakNet@@QEAA_NUTeamSelection@2@@Z @4130
?RequestTeamSwitch@TM_TeamMember@RakNet@@QEAA_NPEAVTM_Team@2@0@Z @4131
?RequestVoiceChannel@RakVoice@RakNet@@QEAAXURakNetGUID@2@@Z @4132
?Reset@BitStream@RakNet@@QEAAXXZ @4133
?Reset@CSHA1@@QEAAXXZ @4134
?ResetChannel@RakVoice@RakNet@@IEAAXPEAUVoiceChannel@2@@Z @4135
?ResetHostCalculation@FullyConnectedMesh2@RakNet@@QEAAXXZ @4136
?ResetReadPointer@BitStream@RakNet@@QEAAXXZ @4137
?ResetSendReceipt@RakPeer@RakNet@@IEAAXXZ @4138
?ResetWritePointer@BitStream@RakNet@@QEAAXXZ @4139
?ResizeServer@Rackspace@RakNet@@QEAAXVRakString@2@0@Z @4140
?RespondOnVerifiedJoinCapable@FullyConnectedMesh2@RakNet@@UEAAXPEAUPacket@2@_NPEAVBitStream@2@@Z @4141
?ReturnFailureOnCannotForward@Router2@RakNet@@IEAAHURakNetGUID@2@0@Z @4142
?ReturnOutgoingPacket@PacketizedTCP@RakNet@@IEAAPEAUPacket@2@XZ @4143
?ReturnResult@CommandParserInterface@RakNet@@UEAAXHPEBDPEAVTransportInterface@2@AEBUSystemAddress@2@@Z @4144
?ReturnResult@CommandParserInterface@RakNet@@UEAAXPEADPEBDPEAVTransportInterface@2@AEBUSystemAddress@2@@Z @4145
?ReturnResult@CommandParserInterface@RakNet@@UEAAXPEBDPEAVTransportInterface@2@AEBUSystemAddress@2@@Z @4146
?ReturnResult@CommandParserInterface@RakNet@@UEAAXUSystemAddress@2@PEBDPEAVTransportInterface@2@AEBU32@@Z @4147
?ReturnResult@CommandParserInterface@RakNet@@UEAAX_NPEBDPEAVTransportInterface@2@AEBUSystemAddress@2@@Z @4148
?ReturnToUser@Router2@RakNet@@IEAAXEURakNetGUID@2@AEBUSystemAddress@2@_N@Z @4149
?ReverseBytes@BitStream@RakNet@@SAXPEAE0I@Z @4150
?ReverseBytesInPlace@BitStream@RakNet@@SAXPEAEI@Z @4151
?RevertResizedServer@Rackspace@RakNet@@QEAAXVRakString@2@@Z @4152
?RightChild@?$Heap@_KPEAUInternalPacket@RakNet@@$0A@@DataStructures@@IEBAII@Z @4153
?RotateLeft@?$BPlusTree@IPEAURow@Table@DataStructures@@$0BA@@DataStructures@@IEAAXPEAU?$Page@IPEAURow@Table@DataStructures@@$0BA@@2@HPEAUReturnAction@12@@Z @4154
?RotateRight@?$BPlusTree@IPEAURow@Table@DataStructures@@$0BA@@DataStructures@@IEAAXPEAU?$Page@IPEAURow@Table@DataStructures@@$0BA@@2@HPEAUReturnAction@12@@Z @4155
?RunUpdateCycle@RakPeer@RakNet@@UEAA_NAEAVBitStream@2@@Z @4156
?SQLEscape@RakString@RakNet@@QEAAAEAV12@XZ @4157
?SaveLastSearch@?$Map@GPEAUFileListReceiver@RakNet@@$1??$defaultMapKeyComparison@G@DataStructures@@YAHAEBG0@Z@DataStructures@@IEBAXAEBGI@Z @4158
?SaveLastSearch@?$Map@HPEAVHuffmanEncodingTree@RakNet@@$1??$defaultMapKeyComparison@H@DataStructures@@YAHAEBH0@Z@DataStructures@@IEBAXAEBHI@Z @4159
?SaveLastSearch@?$Map@IUFLR_MemoryBlock@RakNet@@$1??$defaultMapKeyComparison@I@DataStructures@@YAHAEBI0@Z@DataStructures@@IEBAXAEBII@Z @4160
?SaveLastSearch@?$Map@USystemAddress@RakNet@@PEAVByteQueue@DataStructures@@$1??$defaultMapKeyComparison@USystemAddress@RakNet@@@4@YAHAEBU12@0@Z@DataStructures@@IEBAXAEBUSystemAddress@RakNet@@I@Z @4161
?SeedMT@RakNetRandom@RakNet@@QEAAXI@Z @4162
?SeedMT@RakNetRandomSync@RakNet@@QEAAXI@Z @4163
?SeedMT@RakNetRandomSync@RakNet@@QEAAXII@Z @4164
?Send@EmailSender@RakNet@@QEAAPEBDPEBDG000000PEAVFileList@2@_N0@Z @4165
?Send@FileListTransfer@RakNet@@QEAAXPEAVFileList@2@PEAVRakPeerInterface@2@USystemAddress@2@GW4PacketPriority@@DPEAVIncrementalReadInterface@2@I@Z @4166
?Send@PacketizedTCP@RakNet@@UEAAXPEBDIAEBUSystemAddress@2@_N@Z @4167
?Send@RNS2_Windows@RakNet@@UEAAHPEAURNS2_SendParameters@2@PEBDI@Z @4168
?Send@RakNetTransport2@RakNet@@UEAAXUSystemAddress@2@PEBDZZ @4169
?Send@RakPeer@RakNet@@UEAAIPEBDHW4PacketPriority@@W4PacketReliability@@DUAddressOrGUID@2@_NI@Z @4170
?Send@RakPeer@RakNet@@UEAAIPEBVBitStream@2@W4PacketPriority@@W4PacketReliability@@DUAddressOrGUID@2@_NI@Z @4171
?Send@TCPInterface@RakNet@@UEAAXPEBDIAEBUSystemAddress@2@_N@Z @4172
?Send@TeamManager@RakNet@@IEAAXPEBVBitStream@2@UAddressOrGUID@2@_N@Z @4173
?Send@TelnetTransport@RakNet@@UEAAXUSystemAddress@2@PEBDZZ @4174
?SendAllBusy@UDPProxyCoordinator@RakNet@@IEAAXUSystemAddress@2@0URakNetGUID@2@0@Z @4175
?SendBuffered@RakPeer@RakNet@@IEAAXPEBDIW4PacketPriority@@W4PacketReliability@@DUAddressOrGUID@2@_NW4ConnectMode@RemoteSystemStruct@12@I@Z @4176
?SendBufferedList@RakPeer@RakNet@@IEAAXPEAPEBDPEBHHW4PacketPriority@@W4PacketReliability@@DUAddressOrGUID@2@_NW4ConnectMode@RemoteSystemStruct@12@I@Z @4177
?SendChatRoomsList@RelayPlugin@RakNet@@IEAAXURakNetGUID@2@@Z @4178
?SendCommandList@CommandParserInterface@RakNet@@UEAAXPEAVTransportInterface@2@AEBUSystemAddress@2@@Z @4179
?SendConnectionCountResponse@FullyConnectedMesh2@RakNet@@IEAAXUSystemAddress@2@I@Z @4180
?SendConnectionRequest@RakPeer@RakNet@@IEAA?AW4ConnectionAttemptResult@2@PEBDG0HPEAUPublicKey@2@IIIII@Z @4181
?SendConnectionRequest@RakPeer@RakNet@@IEAA?AW4ConnectionAttemptResult@2@PEBDG0HPEAUPublicKey@2@IIIIIPEAVRakNetSocket2@2@@Z @4182
?SendConstruction@Connection_RM3@RakNet@@UEAAXAEAV?$List@PEAVReplica3@RakNet@@@DataStructures@@0UPRO@2@PEAVRakPeerInterface@2@EPEAVReplicaManager3@2@@Z @4183
?SendFCMGuidRequest@FullyConnectedMesh2@RakNet@@IEAAXURakNetGUID@2@@Z @4184
?SendFailureOnCannotForward@Router2@RakNet@@IEAAXURakNetGUID@2@0@Z @4185
?SendForwardingRequest@UDPProxyCoordinator@RakNet@@IEAAXUSystemAddress@2@00I@Z @4186
?SendForwardingSuccess@Router2@RakNet@@IEAAXEURakNetGUID@2@0G@Z @4187
?SendFrame@RakVoice@RakNet@@QEAA_NURakNetGUID@2@IPEAXH@Z @4188
?SendGroupMessage@RelayPlugin@RakNet@@QEAAXAEBURakNetGUID@2@PEAVBitStream@2@W4PacketPriority@@W4PacketReliability@@D@Z @4189
?SendHelp@LogCommandParser@RakNet@@UEAAXPEAVTransportInterface@2@AEBUSystemAddress@2@@Z @4190
?SendHelp@RakNetCommandParser@RakNet@@UEAAXPEAVTransportInterface@2@AEBUSystemAddress@2@@Z @4191
?SendIRIToAddress@FileListTransfer@RakNet@@IEAAXUSystemAddress@2@G@Z @4192
?SendImmediate@RakPeer@RakNet@@IEAA_NPEADIW4PacketPriority@@W4PacketReliability@@DUAddressOrGUID@2@_N4_KI@Z @4193
?SendList@PacketizedTCP@RakNet@@UEAA_NPEAPEBDPEBIHAEBUSystemAddress@2@_N@Z @4194
?SendList@RakPeer@RakNet@@UEAAIPEAPEBDPEBHHW4PacketPriority@@W4PacketReliability@@DUAddressOrGUID@2@_NI@Z @4195
?SendList@TCPInterface@RakNet@@UEAA_NPEAPEBDPEBIHAEBUSystemAddress@2@_N@Z @4196
?SendListUnified@PluginInterface2@RakNet@@IEAA_NPEAPEBDPEBHHW4PacketPriority@@W4PacketReliability@@DUAddressOrGUID@2@_N@Z @4197
?SendLoopback@RakPeer@RakNet@@UEAAXPEBDH@Z @4198
?SendMessageToRoom@RelayPlugin@RakNet@@IEAAXPEAPEAUStrAndGuidAndRoom@12@PEAVBitStream@2@@Z @4199
?SendNextPendingRequest@HTTPConnection2@RakNet@@IEAAXXZ @4200
?SendOOBFromRakNetPort@Router2@RakNet@@IEAAXW4OutOfBandIdentifiers@@PEAVBitStream@2@USystemAddress@2@@Z @4201
?SendOOBFromSpecifiedSocket@Router2@RakNet@@IEAAXW4OutOfBandIdentifiers@@USystemAddress@2@_K@Z @4202
?SendOOBMessages@Router2@RakNet@@IEAAXPEAUMiniPunchRequest@12@@Z @4203
?SendOurFCMGuid@FullyConnectedMesh2@RakNet@@IEAAXUSystemAddress@2@@Z @4204
?SendOutOfBand@NatPunchthroughClient@RakNet@@IEAAXUSystemAddress@2@E@Z @4205
?SendOutOfBand@RakPeer@RakNet@@UEAA_NPEBDG0II@Z @4206
?SendPendingRequestToConnectedSystem@HTTPConnection2@RakNet@@IEAAXUSystemAddress@2@@Z @4207
?SendPunchthrough@NatPunchthroughClient@RakNet@@IEAAXURakNetGUID@2@AEBUSystemAddress@2@@Z @4208
?SendQueuedOpenNAT@NatPunchthroughClient@RakNet@@IEAAXXZ @4209
?SendRequest@HTTPConnection2@RakNet@@IEAAXPEAURequest@12@@Z @4210
?SendSerialize@Connection_RM3@RakNet@@UEAA?AW4SendSerializeIfChangedResult@2@PEAVReplica3@2@QEA_NQEAVBitStream@2@_KQEAUPRO@2@PEAVRakPeerInterface@2@E3@Z @4211
?SendSerializeHeader@Connection_RM3@RakNet@@IEAAXPEAVReplica3@2@_KPEAVBitStream@2@E@Z @4212
?SendSerializeIfChanged@Connection_RM3@RakNet@@UEAA?AW4SendSerializeIfChangedResult@2@PEAULastSerializationResult@2@PEAUSerializeParameters@2@PEAVRakPeerInterface@2@EPEAVReplicaManager3@2@_K@Z @4213
?SendSubscribedKeyToServers@CloudServer@RakNet@@IEAAXAEAUCloudKey@2@@Z @4214
?SendTTL@NatPunchthroughClient@RakNet@@IEAAXAEBUSystemAddress@2@@Z @4215
?SendTTL@RakPeer@RakNet@@UEAAXPEBDGHI@Z @4216
?SendToParticipant@RelayPlugin@RakNet@@QEAAXAEBURakNetGUID@2@AEBVRakString@2@PEAVBitStream@2@W4PacketPriority@@W4PacketReliability@@D@Z @4217
?SendUnified@PluginInterface2@RakNet@@IEAAXPEBDHW4PacketPriority@@W4PacketReliability@@DUAddressOrGUID@2@_N@Z @4218
?SendUnified@PluginInterface2@RakNet@@IEAAXPEBVBitStream@2@W4PacketPriority@@W4PacketReliability@@DUAddressOrGUID@2@_N@Z @4219
?SendUploadedAndSubscribedKeysToServer@CloudServer@RakNet@@IEAAXURakNetGUID@2@@Z @4220
?SendUploadedKeyToServers@CloudServer@RakNet@@IEAAXAEAUCloudKey@2@@Z @4221
?SendValidation@Connection_RM3@RakNet@@QEAAXPEAVRakPeerInterface@2@E@Z @4222
?Send_Windows_Linux_360NoVDP@RNS2_Windows_Linux_360@RakNet@@KAHHPEAURNS2_SendParameters@2@PEBDI@Z @4223
?Serialize@?$RangeList@Uuint24_t@RakNet@@@DataStructures@@QEAAIPEAVBitStream@RakNet@@I_N@Z @4224
?Serialize@BitStream@RakNet@@QEAA_N_NPEADI@Z @4225
?Serialize@CloudKey@RakNet@@QEAAX_NPEAVBitStream@2@@Z @4226
?Serialize@CloudQuery@RakNet@@QEAAX_NPEAVBitStream@2@@Z @4227
?Serialize@CloudQueryResult@RakNet@@QEAAX_NPEAVBitStream@2@PEAVCloudAllocator@2@@Z @4228
?Serialize@CloudQueryRow@RakNet@@QEAAX_NPEAVBitStream@2@PEAVCloudAllocator@2@@Z @4229
?Serialize@FileList@RakNet@@QEAAXPEAVBitStream@2@@Z @4230
?Serialize@RakNetRandomSync@RakNet@@UEAAXPEAVBitStream@2@@Z @4231
?Serialize@RakString@RakNet@@QEBAXPEAVBitStream@2@@Z @4232
?Serialize@RakString@RakNet@@SAXPEBDPEAVBitStream@2@@Z @4233
?Serialize@RakWString@RakNet@@QEBAXPEAVBitStream@2@@Z @4234
?Serialize@RakWString@RakNet@@SAXQEB_WPEAVBitStream@2@@Z @4235
?SerializeBits@BitStream@RakNet@@QEAA_N_NPEAEI_N@Z @4236
?SerializeCell@TableSerializer@RakNet@@SAXPEAVBitStream@2@PEAUCell@Table@DataStructures@@W4ColumnType@56@@Z @4237
?SerializeCloudQueryRows@CloudQueryResult@RakNet@@QEAAX_NAEAIPEAVBitStream@2@PEAVCloudAllocator@2@@Z @4238
?SerializeColumns@TableSerializer@RakNet@@SAXPEAVTable@DataStructures@@PEAVBitStream@2@@Z @4239
?SerializeColumns@TableSerializer@RakNet@@SAXPEAVTable@DataStructures@@PEAVBitStream@2@AEAV?$List@H@4@@Z @4240
?SerializeCompressed@RakString@RakNet@@QEBAXPEAVBitStream@2@E_N@Z @4241
?SerializeCompressed@RakString@RakNet@@SAXPEBDPEAVBitStream@2@E_N@Z @4242
?SerializeConstruction@RakNetRandomSync@RakNet@@UEAAXPEAVBitStream@2@@Z @4243
?SerializeConstruction@TM_Team@RakNet@@QEAAXPEAVBitStream@2@@Z @4244
?SerializeConstruction@TM_TeamMember@RakNet@@QEAAXPEAVBitStream@2@@Z @4245
?SerializeConstructionExisting@Replica3@RakNet@@UEAAXPEAVBitStream@2@PEAVConnection_RM3@2@@Z @4246
?SerializeFilterQuery@TableSerializer@RakNet@@SAXPEAVBitStream@2@PEAUFilterQuery@Table@DataStructures@@@Z @4247
?SerializeFilterQueryList@TableSerializer@RakNet@@SAXPEAVBitStream@2@PEAUFilterQuery@Table@DataStructures@@II@Z @4248
?SerializeFloat16@BitStream@RakNet@@QEAA_N_NAEAMMM@Z @4249
?SerializeHeader@CloudQueryResult@RakNet@@QEAAX_NPEAVBitStream@2@@Z @4250
?SerializeNumRows@CloudQueryResult@RakNet@@QEAAX_NAEAIPEAVBitStream@2@@Z @4251
?SerializeOnDownloadComplete@Connection_RM3@RakNet@@UEAAXPEAVBitStream@2@@Z @4252
?SerializeOnDownloadStarted@Connection_RM3@RakNet@@UEAAXPEAVBitStream@2@@Z @4253
?SerializeRow@TableSerializer@RakNet@@SAXPEAURow@Table@DataStructures@@IAEBV?$List@UColumnDescriptor@Table@DataStructures@@@5@PEAVBitStream@2@@Z @4254
?SerializeRow@TableSerializer@RakNet@@SAXPEAURow@Table@DataStructures@@IAEBV?$List@UColumnDescriptor@Table@DataStructures@@@5@PEAVBitStream@2@AEAV?$List@H@5@@Z @4255
?SerializeTable@TableSerializer@RakNet@@SAXPEAVTable@DataStructures@@PEAVBitStream@2@@Z @4256
?ServerWithPingComp@UDPProxyCoordinator@RakNet@@KAHAEBGAEBUServerWithPing@12@@Z @4257
?Set@?$Map@GPEAUFileListReceiver@RakNet@@$1??$defaultMapKeyComparison@G@DataStructures@@YAHAEBG0@Z@DataStructures@@QEAAXAEBGAEBQEAUFileListReceiver@RakNet@@@Z @4258
?Set@?$Map@HPEAVHuffmanEncodingTree@RakNet@@$1??$defaultMapKeyComparison@H@DataStructures@@YAHAEBH0@Z@DataStructures@@QEAAXAEBHAEBQEAVHuffmanEncodingTree@RakNet@@@Z @4259
?Set@Cell@Table@DataStructures@@QEAAXH@Z @4260
?Set@Cell@Table@DataStructures@@QEAAXI@Z @4261
?Set@Cell@Table@DataStructures@@QEAAXN@Z @4262
?Set@Cell@Table@DataStructures@@QEAAXPEBD@Z @4263
?Set@Cell@Table@DataStructures@@QEAAXPEBDH@Z @4264
?Set@RakString@RakNet@@QEAAXPEBDZZ @4265
?Set@RakWString@RakNet@@QEAAXPEA_W@Z @4266
?SetAcceptAddParticipantRequests@RelayPlugin@RakNet@@QEAAX_N@Z @4267
?SetActionOnDisallowedMessage@MessageFilter@RakNet@@QEAAX_N0IH@Z @4268
?SetAllowMessageID@MessageFilter@RakNet@@QEAAX_NHHH@Z @4269
?SetAllowRPC4@MessageFilter@RakNet@@QEAAX_NPEBDH@Z @4270
?SetApplicationDirectory@DirectoryDeltaTransfer@RakNet@@QEAAXPEBD@Z @4271
?SetAutoAddNewConnectionsToFilter@MessageFilter@RakNet@@QEAAXH@Z @4272
?SetAutoManageConnections@ReplicaManager3@RakNet@@QEAAX_N0@Z @4273
?SetAutoManageConnections@TeamManager@RakNet@@QEAAX_N@Z @4274
?SetAutoProcessNewConnections@ConnectionGraph2@RakNet@@QEAAX_N@Z @4275
?SetAutoSerializeInterval@ReplicaManager3@RakNet@@QEAAX_K@Z @4276
?SetAutoparticipateConnections@FullyConnectedMesh2@RakNet@@QEAAX_N@Z @4277
?SetBinaryAddress@SystemAddress@RakNet@@QEAA_NPEBDD@Z @4278
?SetBroadcastSocket@RNS2_Berkley@RakNet@@IEAAXH@Z @4279
?SetByType@Cell@Table@DataStructures@@QEAAXNPEADPEAXW4ColumnType@23@@Z @4280
?SetCallCount@RakNetRandomSync@RakNet@@QEAAXI@Z @4281
?SetChannelsRouting@RakVoice@RakNet@@QEAAXURakNetGUID@2@_NPEAHF@Z @4282
?SetChar@RakString@RakNet@@QEAAXIE@Z @4283
?SetChar@RakString@RakNet@@QEAAXIV12@@Z @4284
?SetCompleted@DynDNS@RakNet@@IEAAXW4DynDnsResultCode@2@PEBD@Z @4285
?SetConnectOnNewRemoteConnection@FullyConnectedMesh2@RakNet@@QEAAX_NVRakString@2@@Z @4286
?SetDLMallocDirectMMap@@YAXP6APEAX_K@Z@Z @4287
?SetDLMallocMMap@@YAXP6APEAX_K@Z@Z @4288
?SetDLMallocMUnmap@@YAXP6AHPEAX_K@Z@Z @4289
?SetData@BitStream@RakNet@@QEAAXPEAE@Z @4290
?SetDebugInterface@NatPunchthroughClient@RakNet@@QEAAXPEAUNatPunchthroughDebugInterface@2@@Z @4291
?SetDebugInterface@NatPunchthroughServer@RakNet@@QEAAXPEAUNatPunchthroughServerDebugInterface@2@@Z @4292
?SetDebugInterface@Router2@RakNet@@QEAAXPEAURouter2DebugInterface@2@@Z @4293
?SetDefaultAssignmentAlgorithm@TeamBalancer@RakNet@@QEAAXW4DefaultAssigmentAlgorithm@12@@Z @4294
?SetDefaultCallbacks@CloudClient@RakNet@@UEAAXPEAVCloudAllocator@2@PEAVCloudClientCallback@2@@Z @4295
?SetDefaultOrderingChannel@ReplicaManager3@RakNet@@QEAAXD@Z @4296
?SetDefaultPacketPriority@ReplicaManager3@RakNet@@QEAAXW4PacketPriority@@@Z @4297
?SetDefaultPacketReliability@ReplicaManager3@RakNet@@QEAAXW4PacketReliability@@@Z @4298
?SetDefaultTimeToTrack@StatisticsHistory@RakNet@@QEAAX_K@Z @4299
?SetDisallowedMessageCallback@MessageFilter@RakNet@@QEAAXHPEAXP6AXPEAVRakPeerInterface@2@UAddressOrGUID@2@H0E@Z@Z @4300
?SetDoNotFragment@RNS2_Berkley@RakNet@@QEAAXH@Z @4301
?SetDownloadRequestIncrementalReadInterface@DirectoryDeltaTransfer@RakNet@@QEAAXPEAVIncrementalReadInterface@2@I@Z @4302
?SetEncoderComplexity@RakVoice@RakNet@@QEAAXH@Z @4303
?SetEncoderParameter@RakVoice@RakNet@@IEAAXPEAXHH@Z @4304
?SetEvent@SignaledEvent@RakNet@@QEAAXXZ @4305
?SetFileListTransferPlugin@DirectoryDeltaTransfer@RakNet@@QEAAXPEAVFileListTransfer@2@@Z @4306
?SetFilterMaxTime@MessageFilter@RakNet@@QEAAXH_NIH@Z @4307
?SetForceEvenTeams@TeamBalancer@RakNet@@QEAAX_N@Z @4308
?SetFree@@YAXP6AXPEAX@Z@Z @4309
?SetFree_Ex@@YAXP6AXPEAXPEBDI@Z@Z @4310
?SetIPHdrIncl@RNS2_Berkley@RakNet@@IEAAXH@Z @4311
?SetIncomingDatagramEventHandler@RakPeer@RakNet@@UEAAXP6A_NPEAURNS2RecvStruct@2@@Z@Z @4312
?SetIncomingPassword@RakPeer@RakNet@@UEAAXPEBDH@Z @4313
?SetInternalID@RakPeer@RakNet@@UEAAXUSystemAddress@2@H@Z @4314
?SetJoinPermissions@TM_Team@RakNet@@QEAA_NE@Z @4315
?SetLimitIPConnectionFrequency@RakPeer@RakNet@@UEAAX_N@Z @4316
?SetLockTeams@TeamBalancer@RakNet@@QEAAX_N@Z @4317
?SetLogCommandParser@PacketConsoleLogger@RakNet@@UEAAXPEAVLogCommandParser@2@@Z @4318
?SetLogDirectMessages@PacketLogger@RakNet@@QEAAX_N@Z @4319
?SetLoopbackMode@RakVoice@RakNet@@QEAAX_N@Z @4320
?SetMalloc@@YAXP6APEAX_K@Z@Z @4321
?SetMalloc_Ex@@YAXP6APEAX_KPEBDI@Z@Z @4322
?SetMaxBytesPerDownload@CloudServer@RakNet@@QEAAX_K@Z @4323
?SetMaxForwardEntries@UDPForwarder@RakNet@@QEAAXG@Z @4324
?SetMaxUploadBytesPerClient@CloudServer@RakNet@@QEAAX_K@Z @4325
?SetMaximumForwardingRequests@Router2@RakNet@@QEAAXH@Z @4326
?SetMaximumIncomingConnections@RakPeer@RakNet@@UEAAXG@Z @4327
?SetMemberLimit@TM_Team@RakNet@@QEAA_NGE@Z @4328
?SetNetworkID@NetworkIDObject@RakNet@@UEAAX_K@Z @4329
?SetNetworkIDManager@NetworkIDObject@RakNet@@UEAAXPEAVNetworkIDManager@2@@Z @4330
?SetNetworkIDManager@ReplicaManager3@RakNet@@QEAAXPEAVNetworkIDManager@2@E@Z @4331
?SetNew@?$Map@IUFLR_MemoryBlock@RakNet@@$1??$defaultMapKeyComparison@I@DataStructures@@YAHAEBI0@Z@DataStructures@@QEAAXAEBIAEBUFLR_MemoryBlock@RakNet@@@Z @4332
?SetNew@?$Map@USystemAddress@RakNet@@PEAVByteQueue@DataStructures@@$1??$defaultMapKeyComparison@USystemAddress@RakNet@@@4@YAHAEBU12@0@Z@DataStructures@@QEAAXAEBUSystemAddress@RakNet@@AEBQEAVByteQueue@2@@Z @4333
?SetNonBlockingSocket@RNS2_Berkley@RakNet@@IEAAXK@Z @4334
?SetNotifyOutOfMemory@@YAXP6AXPEBDJ@Z@Z @4335
?SetNumberOfBitsAllocated@BitStream@RakNet@@QEAAXI@Z @4336
?SetOccasionalPing@RakPeer@RakNet@@UEAAX_N@Z @4337
?SetOfflinePingResponse@RakPeer@RakNet@@UEAAXPEBDI@Z @4338
?SetOwner@TM_Team@RakNet@@QEAAXPEAX@Z @4339
?SetOwner@TM_TeamMember@RakNet@@QEAAXPEAX@Z @4340
?SetPageSize@?$MemoryPool@$$BY0CAA@E@DataStructures@@QEAAXH@Z @4341
?SetPageSize@?$MemoryPool@$$BY0CAAA@E@DataStructures@@QEAAXH@Z @4342
?SetPageSize@?$MemoryPool@$$BY0IA@E@DataStructures@@QEAAXH@Z @4343
?SetPageSize@?$MemoryPool@$$BY0IAA@E@DataStructures@@QEAAXH@Z @4344
?SetPageSize@?$MemoryPool@UBufferedCommandStruct@RakPeer@RakNet@@@DataStructures@@QEAAXH@Z @4345
?SetPageSize@?$MemoryPool@UInternalPacket@RakNet@@@DataStructures@@QEAAXH@Z @4346
?SetPageSize@?$MemoryPool@UInternalPacketRefCountedData@RakNet@@@DataStructures@@QEAAXH@Z @4347
?SetPageSize@?$MemoryPool@UMessageNumberNode@ReliabilityLayer@RakNet@@@DataStructures@@QEAAXH@Z @4348
?SetPageSize@?$MemoryPool@UPacket@RakNet@@@DataStructures@@QEAAXH@Z @4349
?SetPageSize@?$MemoryPool@URemoteSystemIndex@RakNet@@@DataStructures@@QEAAXH@Z @4350
?SetPageSize@?$MemoryPool@USocketQueryOutput@RakPeer@RakNet@@@DataStructures@@QEAAXH@Z @4351
?SetPageSize@?$MemoryPool@UStartForwardingInputStruct@UDPForwarder@RakNet@@@DataStructures@@QEAAXH@Z @4352
?SetPageSize@?$MemoryPool@UStopForwardingStruct@UDPForwarder@RakNet@@@DataStructures@@QEAAXH@Z @4353
?SetPageSize@?$ThreadsafeAllocatingQueue@UBufferedCommandStruct@RakPeer@RakNet@@@DataStructures@@QEAAXH@Z @4354
?SetPageSize@?$ThreadsafeAllocatingQueue@USocketQueryOutput@RakPeer@RakNet@@@DataStructures@@QEAAXH@Z @4355
?SetPageSize@?$ThreadsafeAllocatingQueue@UStartForwardingInputStruct@UDPForwarder@RakNet@@@DataStructures@@QEAAXH@Z @4356
?SetPageSize@?$ThreadsafeAllocatingQueue@UStopForwardingStruct@UDPForwarder@RakNet@@@DataStructures@@QEAAXH@Z @4357
?SetPageSize@BytePool@DataStructures@@QEAAXH@Z @4358
?SetParent@NetworkIDObject@RakNet@@UEAAXPEAX@Z @4359
?SetPerConnectionOutgoingBandwidthLimit@RakPeer@RakNet@@UEAAXI@Z @4360
?SetPortHostOrder@SystemAddress@RakNet@@QEAAXG@Z @4361
?SetPortNetworkOrder@SystemAddress@RakNet@@QEAAXG@Z @4362
?SetPrefix@PacketLogger@RakNet@@UEAAXPEBD@Z @4363
?SetPreprocessorParameter@RakVoice@RakNet@@IEAAXPEAXHH@Z @4364
?SetPrintAcks@PacketLogger@RakNet@@UEAAX_N@Z @4365
?SetPrintID@PacketLogger@RakNet@@UEAAX_N@Z @4366
?SetPrompt@ConsoleServer@RakNet@@QEAAXPEBD@Z @4367
?SetPtr@Cell@Table@DataStructures@@QEAAXPEAX@Z @4368
?SetRakPeerInterface@PluginInterface2@RakNet@@QEAAXPEAVRakPeerInterface@2@@Z @4369
?SetRakPeerInterface@RakNetCommandParser@RakNet@@QEAAXPEAVRakPeerInterface@2@@Z @4370
?SetReadOffset@BitStream@RakNet@@QEAAXI@Z @4371
?SetRealloc@@YAXP6APEAXPEAX_K@Z@Z @4372
?SetRealloc_Ex@@YAXP6APEAXPEAX_KPEBDI@Z@Z @4373
?SetRecvEventHandler@RakNetSocket2@RakNet@@QEAAXPEAVRNS2EventHandler@2@@Z @4374
?SetRemoteLoginPassword@UDPProxyCoordinator@RakNet@@QEAAXVRakString@2@@Z @4375
?SetResultHandler@UDPProxyClient@RakNet@@QEAAXPEAUUDPProxyClientResultHandler@2@@Z @4376
?SetResultHandler@UDPProxyServer@RakNet@@QEAAXPEAUUDPProxyServerResultHandler@2@@Z @4377
?SetSendPrefix@TelnetTransport@RakNet@@QEAAXPEBD@Z @4378
?SetSendSuffix@TelnetTransport@RakNet@@QEAAXPEBD@Z @4379
?SetServerPublicIP@UDPProxyServer@RakNet@@QEAAXVRakString@2@@Z @4380
?SetSocketFamily@Router2@RakNet@@QEAAXG@Z @4381
?SetSocketFamily@UDPProxyServer@RakNet@@QEAAXG@Z @4382
?SetSocketLayerOverride@RNS2_Windows@RakNet@@QEAAXPEAVSocketLayerOverride@2@@Z @4383
?SetSocketOptions@RNS2_Berkley@RakNet@@IEAAXXZ @4384
?SetSocketOptions@SocketLayer@RakNet@@SAX_K_N1@Z @4385
?SetSocketType@RakNetSocket2@RakNet@@QEAAXW4RNS2Type@2@@Z @4386
?SetSplitMessageProgressInterval@RakPeer@RakNet@@UEAAXH@Z @4387
?SetSuffix@PacketLogger@RakNet@@UEAAXPEBD@Z @4388
?SetSystemFilterSet@MessageFilter@RakNet@@QEAAXUAddressOrGUID@2@H@Z @4389
?SetTCPInterface@PluginInterface2@RakNet@@QEAAXPEAVTCPInterface@2@@Z @4390
?SetTeamSizeLimit@TeamBalancer@RakNet@@QEAAXEG@Z @4391
?SetTimeoutCallback@MessageFilter@RakNet@@QEAAXHPEAXP6AXPEAVRakPeerInterface@2@UAddressOrGUID@2@H0@Z@Z @4392
?SetTimeoutTime@RakPeer@RakNet@@UEAAXIUSystemAddress@2@@Z @4393
?SetToLoopback@SystemAddress@RakNet@@QEAAXE@Z @4394
?SetToLoopback@SystemAddress@RakNet@@QEAAXXZ @4395
?SetTopology@TeamManager@RakNet@@QEAAXW4TMTopology@2@@Z @4396
?SetTrackConnections@StatisticsHistoryPlugin@RakNet@@QEAAX_NH0@Z @4397
?SetTransportProvider@ConsoleServer@RakNet@@QEAAXPEAVTransportInterface@2@G@Z @4398
?SetUndefined@AddressOrGUID@RakNet@@QEAAXXZ @4399
?SetUnreliableTimeout@RakPeer@RakNet@@UEAAXI@Z @4400
?SetUploadSendParameters@DirectoryDeltaTransfer@RakNet@@QEAAXW4PacketPriority@@D@Z @4401
?SetUserConnectionSocketIndex@RakNetSocket2@RakNet@@QEAAXI@Z @4402
?SetUserUpdateThread@RakPeer@RakNet@@UEAAXP6AXPEAVRakPeerInterface@2@PEAX@Z1@Z @4403
?SetVoiceBan@RakVoice@RakNet@@QEAAXH_N@Z @4404
?SetWriteOffset@BitStream@RakNet@@QEAAXI@Z @4405
?SetupBufferedPackets@RakPeer@RakNet@@IEAAXXZ @4406
?SetupReceive@FileListTransfer@RakNet@@QEAAGPEAVFileListTransferCBInterface@2@_NUSystemAddress@2@@Z @4407
?ShareServerAddress@Rackspace@RakNet@@QEAAXVRakString@2@0@Z @4408
?ShiftIncomingTimestamp@RakPeer@RakNet@@IEBAXPEAEAEBUSystemAddress@2@@Z @4409
?ShiftNodeLeft@?$BPlusTree@IPEAURow@Table@DataStructures@@$0BA@@DataStructures@@IEAAXPEAU?$Page@IPEAURow@Table@DataStructures@@$0BA@@2@@Z @4410
?ShiftNodeRight@?$BPlusTree@IPEAURow@Table@DataStructures@@$0BA@@DataStructures@@IEAAXPEAU?$Page@IPEAURow@Table@DataStructures@@$0BA@@2@@Z @4411
?ShowPrompt@ConsoleServer@RakNet@@IEAAXUSystemAddress@2@@Z @4412
?Shutdown@NatTypeDetectionClient@RakNet@@IEAAXXZ @4413
?Shutdown@NatTypeDetectionServer@RakNet@@QEAAXXZ @4414
?Shutdown@RakPeer@RakNet@@UEAAXIEW4PacketPriority@@@Z @4415
?Shutdown@UDPForwarder@RakNet@@QEAAXXZ @4416
?Signal@RPC4@RakNet@@QEAAXPEBDPEAVBitStream@2@W4PacketPriority@@W4PacketReliability@@DUAddressOrGUID@2@_N5@Z @4417
?SignalStopRecvPollingThread@RNS2_Berkley@RakNet@@QEAAXXZ @4418
?Size@?$BPlusTree@IPEAURow@Table@DataStructures@@$0BA@@DataStructures@@QEBAIXZ @4419
?Size@?$CircularLinkedList@PEAUHuffmanEncodingTreeNode@@@DataStructures@@QEAAIXZ @4420
?Size@?$Hash@UAddressOrGUID@RakNet@@UFilteredSystem@2@$0IAA@$1?ToInteger@12@SAKAEBU12@@Z@DataStructures@@QEBAIXZ @4421
?Size@?$Heap@_KPEAUInternalPacket@RakNet@@$0A@@DataStructures@@QEBAIXZ @4422
?Size@?$List@E@DataStructures@@QEBAIXZ @4423
?Size@?$List@G@DataStructures@@QEBAIXZ @4424
?Size@?$List@H@DataStructures@@QEBAIXZ @4425
?Size@?$List@I@DataStructures@@QEBAIXZ @4426
?Size@?$List@PEAUBanStruct@RakPeer@RakNet@@@DataStructures@@QEBAIXZ @4427
?Size@?$List@PEAUBufferedGetResponseFromServer@CloudServer@RakNet@@@DataStructures@@QEBAIXZ @4428
?Size@?$List@PEAUCell@Table@DataStructures@@@DataStructures@@QEBAIXZ @4429
?Size@?$List@PEAUChangedVariablesList@VariableDeltaSerializer@RakNet@@@DataStructures@@QEBAIXZ @4430
?Size@?$List@PEAUCloudData@CloudServer@RakNet@@@DataStructures@@QEBAIXZ @4431
?Size@?$List@PEAUCloudDataList@CloudServer@RakNet@@@DataStructures@@QEBAIXZ @4432
?Size@?$List@PEAUCloudQueryRow@RakNet@@@DataStructures@@QEBAIXZ @4433
?Size@?$List@PEAUConnectionAttempt@NatPunchthroughServer@RakNet@@@DataStructures@@QEBAIXZ @4434
?Size@?$List@PEAUConnnectRequest@Router2@RakNet@@@DataStructures@@QEBAIXZ @4435
?Size@?$List@PEAUFCM2Participant@FullyConnectedMesh2@RakNet@@@DataStructures@@QEBAIXZ @4436
?Size@?$List@PEAUFileToPushRecipient@FileListTransfer@RakNet@@@DataStructures@@QEBAIXZ @4437
?Size@?$List@PEAUFilterSet@RakNet@@@DataStructures@@QEBAIXZ @4438
?Size@?$List@PEAUForwardEntry@UDPForwarder@RakNet@@@DataStructures@@QEBAIXZ @4439
?Size@?$List@PEAUForwardingRequest@UDPProxyCoordinator@RakNet@@@DataStructures@@QEBAIXZ @4440
?Size@?$List@PEAUGetRequest@CloudServer@RakNet@@@DataStructures@@QEBAIXZ @4441
?Size@?$List@PEAUInternalPacket@RakNet@@@DataStructures@@QEBAIXZ @4442
?Size@?$List@PEAUKeySubscriberID@CloudServer@RakNet@@@DataStructures@@QEBAIXZ @4443
?Size@?$List@PEAULastSerializationResult@RakNet@@@DataStructures@@QEBAIXZ @4444
?Size@?$List@PEAULocalCallback@RPC4@RakNet@@@DataStructures@@QEBAIXZ @4445
?Size@?$List@PEAULocalSlot@RPC4@RakNet@@@DataStructures@@QEBAIXZ @4446
?Size@?$List@PEAUNonceAndRemoteSystemRequest@TwoWayAuthentication@RakNet@@@DataStructures@@QEBAIXZ @4447
?Size@?$List@PEAUPingServerGroup@UDPProxyClient@RakNet@@@DataStructures@@QEBAIXZ @4448
?Size@?$List@PEAURM3World@ReplicaManager3@RakNet@@@DataStructures@@QEBAIXZ @4449
?Size@?$List@PEAURP_Group@RelayPlugin@RakNet@@@DataStructures@@QEBAIXZ @4450
?Size@?$List@PEAUReadyEventNode@ReadyEvent@RakNet@@@DataStructures@@QEBAIXZ @4451
?Size@?$List@PEAURemoteCloudClient@CloudServer@RakNet@@@DataStructures@@QEBAIXZ @4452
?Size@?$List@PEAURemoteServer@CloudServer@RakNet@@@DataStructures@@QEBAIXZ @4453
?Size@?$List@PEAURemoteSystem@ConnectionGraph2@RakNet@@@DataStructures@@QEBAIXZ @4454
?Size@?$List@PEAURemoteSystemVariableHistory@VariableDeltaSerializer@RakNet@@@DataStructures@@QEBAIXZ @4455
?Size@?$List@PEAURequest@HTTPConnection2@RakNet@@@DataStructures@@QEBAIXZ @4456
?Size@?$List@PEAURow@Table@DataStructures@@@DataStructures@@QEBAIXZ @4457
?Size@?$List@PEAUSharedString@RakString@RakNet@@@DataStructures@@QEBAIXZ @4458
?Size@?$List@PEAUSplitPacketChannel@RakNet@@@DataStructures@@QEBAIXZ @4459
?Size@?$List@PEAUStrAndGuidAndRoom@RelayPlugin@RakNet@@@DataStructures@@QEBAIXZ @4460
?Size@?$List@PEAUTelnetClient@TelnetTransport@RakNet@@@DataStructures@@QEBAIXZ @4461
?Size@?$List@PEAUTimeAndValueQueue@StatisticsHistory@RakNet@@@DataStructures@@QEBAIXZ @4462
?Size@?$List@PEAUTrackedObject@StatisticsHistory@RakNet@@@DataStructures@@QEBAIXZ @4463
?Size@?$List@PEAUUser@NatPunchthroughServer@RakNet@@@DataStructures@@QEBAIXZ @4464
?Size@?$List@PEAUVerifiedJoinInProgress@FullyConnectedMesh2@RakNet@@@DataStructures@@QEBAIXZ @4465
?Size@?$List@PEAUVoiceBuffer@RakNet@@@DataStructures@@QEBAIXZ @4466
?Size@?$List@PEAUVoiceChannel@RakNet@@@DataStructures@@QEBAIXZ @4467
?Size@?$List@PEAVCloudServerQueryFilter@RakNet@@@DataStructures@@QEBAIXZ @4468
?Size@?$List@PEAVCommandParserInterface@RakNet@@@DataStructures@@QEBAIXZ @4469
?Size@?$List@PEAVConnection_RM3@RakNet@@@DataStructures@@QEBAIXZ @4470
?Size@?$List@PEAVFileListProgress@RakNet@@@DataStructures@@QEBAIXZ @4471
?Size@?$List@PEAVPluginInterface2@RakNet@@@DataStructures@@QEBAIXZ @4472
?Size@?$List@PEAVRackspace2EventCallback@RakNet@@@DataStructures@@QEBAIXZ @4473
?Size@?$List@PEAVRakNetSocket2@RakNet@@@DataStructures@@QEBAIXZ @4474
?Size@?$List@PEAVReplica3@RakNet@@@DataStructures@@QEBAIXZ @4475
?Size@?$List@PEAVTM_Team@RakNet@@@DataStructures@@QEBAIXZ @4476
?Size@?$List@PEAVTM_TeamMember@RakNet@@@DataStructures@@QEBAIXZ @4477
?Size@?$List@PEAVTM_World@RakNet@@@DataStructures@@QEBAIXZ @4478
?Size@?$List@PEAX@DataStructures@@QEBAIXZ @4479
?Size@?$List@U?$RangeNode@Uuint24_t@RakNet@@@DataStructures@@@DataStructures@@QEBAIXZ @4480
?Size@?$List@UAddrAndGuid@NatPunchthroughClient@RakNet@@@DataStructures@@QEBAIXZ @4481
?Size@?$List@UCell@Table@DataStructures@@@DataStructures@@QEBAIXZ @4482
?Size@?$List@UCloudKey@RakNet@@@DataStructures@@QEBAIXZ @4483
?Size@?$List@UColumnDescriptor@Table@DataStructures@@@DataStructures@@QEBAIXZ @4484
?Size@?$List@UConnectionRequestSystem@Router2@RakNet@@@DataStructures@@QEBAIXZ @4485
?Size@?$List@UFileListNode@RakNet@@@DataStructures@@QEBAIXZ @4486
?Size@?$List@UFilteredSystem@RakNet@@@DataStructures@@QEBAIXZ @4487
?Size@?$List@UForwardedConnection@Router2@RakNet@@@DataStructures@@QEBAIXZ @4488
?Size@?$List@UHeapNode@?$Heap@_KPEAUInternalPacket@RakNet@@$0A@@DataStructures@@@DataStructures@@QEBAIXZ @4489
?Size@?$List@UIndexAndType@VariadicSQLParser@@@DataStructures@@QEBAIXZ @4490
?Size@?$List@UJoinRequestHelper@TM_World@RakNet@@@DataStructures@@QEBAIXZ @4491
?Size@?$List@ULocalSlotObject@RPC4@RakNet@@@DataStructures@@QEBAIXZ @4492
?Size@?$List@UMapNode@?$Map@GPEAUFileListReceiver@RakNet@@$1??$defaultMapKeyComparison@G@DataStructures@@YAHAEBG0@Z@DataStructures@@@DataStructures@@QEBAIXZ @4493
?Size@?$List@UMapNode@?$Map@HPEAVHuffmanEncodingTree@RakNet@@$1??$defaultMapKeyComparison@H@DataStructures@@YAHAEBH0@Z@DataStructures@@@DataStructures@@QEBAIXZ @4494
?Size@?$List@UMapNode@?$Map@IUFLR_MemoryBlock@RakNet@@$1??$defaultMapKeyComparison@I@DataStructures@@YAHAEBI0@Z@DataStructures@@@DataStructures@@QEBAIXZ @4495
?Size@?$List@UMapNode@?$Map@USystemAddress@RakNet@@PEAVByteQueue@DataStructures@@$1??$defaultMapKeyComparison@USystemAddress@RakNet@@@4@YAHAEBU12@0@Z@DataStructures@@@DataStructures@@QEBAIXZ @4496
?Size@?$List@UMiniPunchRequest@Router2@RakNet@@@DataStructures@@QEBAIXZ @4497
?Size@?$List@UMyTeamMembers@TeamBalancer@RakNet@@@DataStructures@@QEBAIXZ @4498
?Size@?$List@UNATDetectionAttempt@NatTypeDetectionServer@RakNet@@@DataStructures@@QEBAIXZ @4499
?Size@?$List@URackspaceOperation@Rackspace@RakNet@@@DataStructures@@QEBAIXZ @4500
?Size@?$List@URakNetGUID@RakNet@@@DataStructures@@QEBAIXZ @4501
?Size@?$List@URegisteredCommand@RakNet@@@DataStructures@@QEBAIXZ @4502
?Size@?$List@URemoteSystem@ReadyEvent@RakNet@@@DataStructures@@QEBAIXZ @4503
?Size@?$List@URequestedTeam@TM_TeamMember@RakNet@@@DataStructures@@QEBAIXZ @4504
?Size@?$List@UServerWithPing@UDPProxyClient@RakNet@@@DataStructures@@QEBAIXZ @4505
?Size@?$List@UServerWithPing@UDPProxyCoordinator@RakNet@@@DataStructures@@QEBAIXZ @4506
?Size@?$List@UStrAndBool@@@DataStructures@@QEBAIXZ @4507
?Size@?$List@UStrAndGuid@RelayPlugin@RakNet@@@DataStructures@@QEBAIXZ @4508
?Size@?$List@USystemAddress@RakNet@@@DataStructures@@QEBAIXZ @4509
?Size@?$List@USystemAddressAndChannel@LogCommandParser@RakNet@@@DataStructures@@QEBAIXZ @4510
?Size@?$List@USystemAddressAndGuid@ConnectionGraph2@RakNet@@@DataStructures@@QEBAIXZ @4511
?Size@?$List@UTeamMember@TeamBalancer@RakNet@@@DataStructures@@QEBAIXZ @4512
?Size@?$List@UUnreliableWithAckReceiptNode@ReliabilityLayer@RakNet@@@DataStructures@@QEBAIXZ @4513
?Size@?$List@UVariableLastValueNode@VariableListDeltaTracker@RakNet@@@DataStructures@@QEBAIXZ @4514
?Size@?$List@UVerifiedJoinInProgressMember@FullyConnectedMesh2@RakNet@@@DataStructures@@QEBAIXZ @4515
?Size@?$List@VRakString@RakNet@@@DataStructures@@QEBAIXZ @4516
?Size@?$List@_K@DataStructures@@QEBAIXZ @4517
?Size@?$List@_N@DataStructures@@QEBAIXZ @4518
?Size@?$Map@GPEAUFileListReceiver@RakNet@@$1??$defaultMapKeyComparison@G@DataStructures@@YAHAEBG0@Z@DataStructures@@QEBAIXZ @4519
?Size@?$Map@HPEAVHuffmanEncodingTree@RakNet@@$1??$defaultMapKeyComparison@H@DataStructures@@YAHAEBH0@Z@DataStructures@@QEBAIXZ @4520
?Size@?$Map@IUFLR_MemoryBlock@RakNet@@$1??$defaultMapKeyComparison@I@DataStructures@@YAHAEBI0@Z@DataStructures@@QEBAIXZ @4521
?Size@?$Map@USystemAddress@RakNet@@PEAVByteQueue@DataStructures@@$1??$defaultMapKeyComparison@USystemAddress@RakNet@@@4@YAHAEBU12@0@Z@DataStructures@@QEBAIXZ @4522
?Size@?$OrderedList@EPEAULocalCallback@RPC4@RakNet@@$1?LocalCallbackComp@23@SAHAEBEAEBQEAU123@@Z@DataStructures@@QEBAIXZ @4523
?Size@?$OrderedList@GPEAUSplitPacketChannel@RakNet@@$1?SplitPacketChannelComp@2@YAHAEBGAEBQEAU12@@Z@DataStructures@@QEBAIXZ @4524
?Size@?$OrderedList@GUMapNode@?$Map@GPEAUFileListReceiver@RakNet@@$1??$defaultMapKeyComparison@G@DataStructures@@YAHAEBG0@Z@DataStructures@@$1?NodeComparisonFunc@23@SAHAEBGAEBU123@@Z@DataStructures@@QEBAIXZ @4525
?Size@?$OrderedList@GUServerWithPing@UDPProxyCoordinator@RakNet@@$1?ServerWithPingComp@23@KAHAEBGAEBU123@@Z@DataStructures@@QEBAIXZ @4526
?Size@?$OrderedList@HPEAUFilterSet@RakNet@@$1?FilterSetComp@2@YAHAEBHAEBQEAU12@@Z@DataStructures@@QEBAIXZ @4527
?Size@?$OrderedList@HPEAUReadyEventNode@ReadyEvent@RakNet@@$1?ReadyEventNodeComp@23@SAHAEBHAEBQEAU123@@Z@DataStructures@@QEBAIXZ @4528
?Size@?$OrderedList@HPEAUVoiceBuffer@RakNet@@$1?VoiceBufferComp@2@YAHAEBHAEBQEAU12@@Z@DataStructures@@QEBAIXZ @4529
?Size@?$OrderedList@HUMapNode@?$Map@HPEAVHuffmanEncodingTree@RakNet@@$1??$defaultMapKeyComparison@H@DataStructures@@YAHAEBH0@Z@DataStructures@@$1?NodeComparisonFunc@23@SAHAEBHAEBU123@@Z@DataStructures@@QEBAIXZ @4530
?Size@?$OrderedList@IPEAUChangedVariablesList@VariableDeltaSerializer@RakNet@@$1?UpdatedVariablesListPtrComp@23@KAHAEBIAEBQEAU123@@Z@DataStructures@@QEBAIXZ @4531
?Size@?$OrderedList@IPEAUGetRequest@CloudServer@RakNet@@$1?GetRequestComp@23@KAHAEBIAEBQEAU123@@Z@DataStructures@@QEBAIXZ @4532
?Size@?$OrderedList@IUMapNode@?$Map@IUFLR_MemoryBlock@RakNet@@$1??$defaultMapKeyComparison@I@DataStructures@@YAHAEBI0@Z@DataStructures@@$1?NodeComparisonFunc@23@SAHAEBIAEBU123@@Z@DataStructures@@QEBAIXZ @4533
?Size@?$OrderedList@PEADUStrAndBool@@$1?StrAndBoolComp@RakNet@@YAHAEBQEADAEBU1@@Z@DataStructures@@QEBAIXZ @4534
?Size@?$OrderedList@PEAUFCM2Participant@FullyConnectedMesh2@RakNet@@PEAU123@$1?FCM2ParticipantComp@@YAHAEBQEAU123@0@Z@DataStructures@@QEBAIXZ @4535
?Size@?$OrderedList@PEAURow@Table@DataStructures@@PEAU123@$1?RowSort@@YAHAEBQEAU123@0@Z@DataStructures@@QEBAIXZ @4536
?Size@?$OrderedList@PEAUTimeAndValueQueue@StatisticsHistory@RakNet@@PEAU123@$1?TimeAndValueQueueCompAsc@@YAHAEBQEAU123@0@Z@DataStructures@@QEBAIXZ @4537
?Size@?$OrderedList@PEAVReplica3@RakNet@@PEAULastSerializationResult@2@$1?Replica3LSRComp@Connection_RM3@2@SAHAEBQEAV12@AEBQEAU32@@Z@DataStructures@@QEBAIXZ @4538
?Size@?$OrderedList@PEBDURegisteredCommand@RakNet@@$1?RegisteredCommandComp@2@YAHAEBQEBDAEBU12@@Z@DataStructures@@QEBAIXZ @4539
?Size@?$OrderedList@UCloudKey@RakNet@@PEAUCloudDataList@CloudServer@2@$1?KeyDataListComp@42@KAHAEBU12@AEBQEAU342@@Z@DataStructures@@QEBAIXZ @4540
?Size@?$OrderedList@UCloudKey@RakNet@@PEAUKeySubscriberID@CloudServer@2@$1?KeySubscriberIDComp@42@KAHAEBU12@AEBQEAU342@@Z@DataStructures@@QEBAIXZ @4541
?Size@?$OrderedList@UCloudKey@RakNet@@U12@$1?CloudKeyComp@2@YAHAEBU12@0@Z@DataStructures@@QEBAIXZ @4542
?Size@?$OrderedList@UJoinRequestHelper@TM_World@RakNet@@U123@$1?JoinRequestHelperComp@23@SAHAEBU123@0@Z@DataStructures@@QEBAIXZ @4543
?Size@?$OrderedList@ULocalSlotObject@RPC4@RakNet@@U123@$1?LocalSlotObjectComp@23@SAHAEBU123@0@Z@DataStructures@@QEBAIXZ @4544
?Size@?$OrderedList@URakNetGUID@RakNet@@PEAUBufferedGetResponseFromServer@CloudServer@2@$1?BufferedGetResponseFromServerComp@42@KAHAEBU12@AEBQEAU342@@Z@DataStructures@@QEBAIXZ @4545
?Size@?$OrderedList@URakNetGUID@RakNet@@PEAUCloudData@CloudServer@2@$1?KeyDataPtrComp@42@KAHAEBU12@AEBQEAU342@@Z@DataStructures@@QEBAIXZ @4546
?Size@?$OrderedList@URakNetGUID@RakNet@@PEAURemoteServer@CloudServer@2@$1?RemoteServerComp@42@KAHAEBU12@AEBQEAU342@@Z@DataStructures@@QEBAIXZ @4547
?Size@?$OrderedList@URakNetGUID@RakNet@@PEAURemoteSystem@ConnectionGraph2@2@$1?RemoteSystemComp@42@SAHAEBU12@AEBQEAU342@@Z@DataStructures@@QEBAIXZ @4548
?Size@?$OrderedList@URakNetGUID@RakNet@@PEAUUser@NatPunchthroughServer@2@$1?NatPunchthroughUserComp@42@SAHAEBU12@AEBQEAU342@@Z@DataStructures@@QEBAIXZ @4549
?Size@?$OrderedList@URakNetGUID@RakNet@@PEAUVoiceChannel@2@$1?VoiceChannelComp@2@YAHAEBU12@AEBQEAU32@@Z@DataStructures@@QEBAIXZ @4550
?Size@?$OrderedList@URakNetGUID@RakNet@@U12@$1??$defaultOrderedListComparison@URakNetGUID@RakNet@@U12@@DataStructures@@YAHAEBU12@0@Z@DataStructures@@QEBAIXZ @4551
?Size@?$OrderedList@URakNetGUID@RakNet@@URemoteSystem@ReadyEvent@2@$1?RemoteSystemCompByGuid@42@SAHAEBU12@AEBU342@@Z@DataStructures@@QEBAIXZ @4552
?Size@?$OrderedList@USenderAndTargetAddress@UDPProxyCoordinator@RakNet@@PEAUForwardingRequest@23@$1?ForwardingRequestComp@23@KAHAEBU123@AEBQEAU423@@Z@DataStructures@@QEBAIXZ @4553
?Size@?$OrderedList@USystemAddress@RakNet@@UMapNode@?$Map@USystemAddress@RakNet@@PEAVByteQueue@DataStructures@@$1??$defaultMapKeyComparison@USystemAddress@RakNet@@@4@YAHAEBU12@0@Z@DataStructures@@$1?NodeComparisonFunc@45@SAHAEBU12@AEBU345@@Z@DataStructures@@QEBAIXZ @4554
?Size@?$OrderedList@USystemAddressAndGuid@ConnectionGraph2@RakNet@@U123@$1?SystemAddressAndGuidComp@23@SAHAEBU123@0@Z@DataStructures@@QEBAIXZ @4555
?Size@?$OrderedList@Uuint24_t@RakNet@@U?$RangeNode@Uuint24_t@RakNet@@@DataStructures@@$1??$RangeNodeComp@Uuint24_t@RakNet@@@4@YAHAEBU12@AEBU34@@Z@DataStructures@@QEBAIXZ @4556
?Size@?$OrderedList@VRakString@RakNet@@V12@$1??$defaultOrderedListComparison@VRakString@RakNet@@V12@@DataStructures@@YAHAEBV12@0@Z@DataStructures@@QEBAIXZ @4557
?Size@?$OrderedList@_KPEAUTrackedObject@StatisticsHistory@RakNet@@$1?TrackedObjectComp@23@SAHAEB_KAEBQEAU123@@Z@DataStructures@@QEBAIXZ @4558
?Size@?$Queue@H@DataStructures@@QEBAIXZ @4559
?Size@?$Queue@I@DataStructures@@QEBAIXZ @4560
?Size@?$Queue@P6AHUThreadData@FileListTransfer@RakNet@@PEA_NPEAX@Z@DataStructures@@QEBAIXZ @4561
?Size@?$Queue@PEAD@DataStructures@@QEBAIXZ @4562
?Size@?$Queue@PEAPEAURemoteClient@RakNet@@@DataStructures@@QEBAIXZ @4563
?Size@?$Queue@PEAU?$Page@IPEAURow@Table@DataStructures@@$0BA@@DataStructures@@@DataStructures@@QEBAIXZ @4564
?Size@?$Queue@PEAUBufferedCommandStruct@RakPeer@RakNet@@@DataStructures@@QEBAIXZ @4565
?Size@?$Queue@PEAUFileToPush@FileListTransfer@RakNet@@@DataStructures@@QEBAIXZ @4566
?Size@?$Queue@PEAUHuffmanEncodingTreeNode@@@DataStructures@@QEBAIXZ @4567
?Size@?$Queue@PEAUInternalPacket@RakNet@@@DataStructures@@QEBAIXZ @4568
?Size@?$Queue@PEAUPacket@RakNet@@@DataStructures@@QEBAIXZ @4569
?Size@?$Queue@PEAURNS2RecvStruct@RakNet@@@DataStructures@@QEBAIXZ @4570
?Size@?$Queue@PEAURequest@HTTPConnection2@RakNet@@@DataStructures@@QEBAIXZ @4571
?Size@?$Queue@PEAURequestedConnectionStruct@RakPeer@RakNet@@@DataStructures@@QEBAIXZ @4572
?Size@?$Queue@PEAUSocketQueryOutput@RakPeer@RakNet@@@DataStructures@@QEBAIXZ @4573
?Size@?$Queue@PEAUStartForwardingInputStruct@UDPForwarder@RakNet@@@DataStructures@@QEBAIXZ @4574
?Size@?$Queue@PEAUStopForwardingStruct@UDPForwarder@RakNet@@@DataStructures@@QEBAIXZ @4575
?Size@?$Queue@PEAUSystemAddress@RakNet@@@DataStructures@@QEBAIXZ @4576
?Size@?$Queue@UBadResponse@HTTPConnection@RakNet@@@DataStructures@@QEBAIXZ @4577
?Size@?$Queue@UDSTAndFac@NatPunchthroughClient@RakNet@@@DataStructures@@QEBAIXZ @4578
?Size@?$Queue@UDatagramHistoryNode@ReliabilityLayer@RakNet@@@DataStructures@@QEBAIXZ @4579
?Size@?$Queue@UOutgoingCommand@HTTPConnection@RakNet@@@DataStructures@@QEBAIXZ @4580
?Size@?$Queue@UPendingChallenge@TwoWayAuthentication@RakNet@@@DataStructures@@QEBAIXZ @4581
?Size@?$Queue@UStartForwardingOutputStruct@UDPForwarder@RakNet@@@DataStructures@@QEBAIXZ @4582
?Size@?$Queue@USystemAddress@RakNet@@@DataStructures@@QEBAIXZ @4583
?Size@?$Queue@UThreadData@FileListTransfer@RakNet@@@DataStructures@@QEBAIXZ @4584
?Size@?$Queue@UTimeAndValue@StatisticsHistory@RakNet@@@DataStructures@@QEBAIXZ @4585
?Size@?$Queue@VRakString@RakNet@@@DataStructures@@QEBAIXZ @4586
?Size@?$Queue@_N@DataStructures@@QEBAIXZ @4587
?Size@?$RangeList@Uuint24_t@RakNet@@@DataStructures@@QEBAIXZ @4588
?Skip@RakNetRandomSync@RakNet@@IEAAXI@Z @4589
?SkipToVJCUserData@FullyConnectedMesh2@RakNet@@SAXPEAVBitStream@2@@Z @4590
?SocketConnect@TCPInterface@RakNet@@IEAA_KPEBDGG0@Z @4591
?Sort@?$CircularLinkedList@PEAUHuffmanEncodingTreeNode@@@DataStructures@@QEAAXXZ @4592
?SortTable@Table@DataStructures@@QEAAXPEAUSortQuery@12@IPEAPEAURow@12@@Z @4593
?SplitPacketChannelComp@RakNet@@YAHAEBGAEBQEAUSplitPacketChannel@1@@Z @4594
?SplitURI@RakString@RakNet@@QEAAXAEAV12@00@Z @4595
?Start@RakNetTransport2@RakNet@@UEAA_NG_N@Z @4596
?Start@TCPInterface@RakNet@@QEAA_NGGGHGPEBD@Z @4597
?Start@TelnetTransport@RakNet@@UEAA_NG_N@Z @4598
?StartAfterFirstCharacter@RakString@RakNet@@QEAAXD@Z @4599
?StartAfterLastCharacter@RakString@RakNet@@QEAAXD@Z @4600
?StartForwarding@UDPForwarder@RakNet@@QEAA?AW4UDPForwarderResult@2@USystemAddress@2@0IPEBDGPEAGPEA_K@Z @4601
?StartIncrementalReadThreads@FileListTransfer@RakNet@@QEAAXHH@Z @4602
?StartLog@PacketFileLogger@RakNet@@QEAAXPEBD@Z @4603
?StartPunchthroughForUser@NatPunchthroughServer@RakNet@@IEAAXPEAUUser@12@@Z @4604
?StartSeries@?$Heap@_KPEAUInternalPacket@RakNet@@$0A@@DataStructures@@QEAAXXZ @4605
?StartThreads@?$ThreadPool@UThreadData@FileListTransfer@RakNet@@H@@QEAA_NHHP6APEAXXZP6AXPEAX@Z@Z @4606
?StartVariableHistoryWrite@VariableDeltaSerializer@RakNet@@IEAAPEAURemoteSystemVariableHistory@12@URakNetGUID@2@@Z @4607
?StartVerifiedJoin@FullyConnectedMesh2@RakNet@@UEAAXURakNetGUID@2@@Z @4608
?Startup@NatTypeDetectionServer@RakNet@@QEAAXPEBD00@Z @4609
?Startup@RakPeer@RakNet@@UEAA?AW4StartupResult@2@IPEAUSocketDescriptor@2@IH@Z @4610
?Startup@UDPForwarder@RakNet@@QEAAXXZ @4611
?StatisticsToString@RakNet@@YAXPEAURakNetStatistics@1@PEADH@Z @4612
?Stop@DynDNS@RakNet@@IEAAXXZ @4613
?Stop@PacketizedTCP@RakNet@@QEAAXXZ @4614
?Stop@RakNetTransport2@RakNet@@UEAAXXZ @4615
?Stop@TCPInterface@RakNet@@QEAAXXZ @4616
?Stop@TelnetTransport@RakNet@@UEAAXXZ @4617
?StopForwarding@UDPForwarder@RakNet@@QEAAXUSystemAddress@2@0@Z @4618
?StopThreads@?$ThreadPool@UThreadData@FileListTransfer@RakNet@@H@@QEAAXXZ @4619
?StopTrackingNetworkIDObject@NetworkIDManager@RakNet@@IEAAXPEAVNetworkIDObject@2@@Z @4620
?StoreChangedVariablesList@VariableDeltaSerializer@RakNet@@IEAAXPEAURemoteSystemVariableHistory@12@PEAUChangedVariablesList@12@I@Z @4621
?StoreLastTeams@TM_TeamMember@RakNet@@IEAAXXZ @4622
?StrAndBoolComp@RakNet@@YAHAEBQEADAEBUStrAndBool@@@Z @4623
?StrCmp@RakString@RakNet@@QEBAHAEBV12@@Z @4624
?StrCmp@RakWString@RakNet@@QEBAHAEBV12@@Z @4625
?StrICmp@RakString@RakNet@@QEBAHAEBV12@@Z @4626
?StrICmp@RakWString@RakNet@@QEBAHAEBV12@@Z @4627
?StrNCmp@RakString@RakNet@@QEBAHAEBV12@_K@Z @4628
?SubStr@RakString@RakNet@@QEBA?AV12@II@Z @4629
?Subscribe@LogCommandParser@RakNet@@IEAAIAEBUSystemAddress@2@PEBD@Z @4630
?Swap@?$Heap@_KPEAUInternalPacket@RakNet@@$0A@@DataStructures@@IEAAXII@Z @4631
?SwapTeamMembersByRequest@TeamBalancer@RakNet@@IEAAXII@Z @4632
?SwitchMemberTeam@TeamBalancer@RakNet@@IEAAXIE@Z @4633
?SwitchSpecificTeamCheck@TM_TeamMember@RakNet@@IEBA_NPEAVTM_Team@2@0_N@Z @4634
?SystemAddressAndGuidComp@ConnectionGraph2@RakNet@@SAHAEBUSystemAddressAndGuid@12@0@Z @4635
?TeamWouldBeOverpopulatedOnAddition@TeamBalancer@RakNet@@IEAA_NEI@Z @4636
?TeamWouldBeUnderpopulatedOnLeave@TeamBalancer@RakNet@@IEAA_NEI@Z @4637
?TeamsWouldBeEvenOnSwitch@TeamBalancer@RakNet@@IEAA_NEE@Z @4638
?TerminateAtFirstCharacter@RakString@RakNet@@QEAAXD@Z @4639
?TerminateAtLastCharacter@RakString@RakNet@@QEAAXD@Z @4640
?ToInteger@AddressOrGUID@RakNet@@SAKAEBU12@@Z @4641
?ToInteger@RakString@RakNet@@SAKAEBV12@@Z @4642
?ToInteger@RakString@RakNet@@SAKPEBD@Z @4643
?ToInteger@RakWString@RakNet@@SAKAEBV12@@Z @4644
?ToInteger@SystemAddress@RakNet@@SAKAEBU12@@Z @4645
?ToLower@RakString@RakNet@@IEAAEE@Z @4646
?ToLower@RakString@RakNet@@QEAAPEBDXZ @4647
?ToString@AddressOrGUID@RakNet@@QEBAPEBD_N@Z @4648
?ToString@AddressOrGUID@RakNet@@QEBAX_NPEAD@Z @4649
?ToString@Cell@Table@DataStructures@@QEAA?AVRakString@RakNet@@W4ColumnType@23@@Z @4650
?ToString@RakNetGUID@RakNet@@QEBAPEBDXZ @4651
?ToString@RakNetGUID@RakNet@@QEBAXPEAD@Z @4652
?ToString@RakString@RakNet@@SAPEBD_J@Z @4653
?ToString@RakString@RakNet@@SAPEBD_K@Z @4654
?ToString@SystemAddress@RakNet@@QEBAPEBD_ND@Z @4655
?ToString@SystemAddress@RakNet@@QEBAX_NPEADD@Z @4656
?ToString_Old@SystemAddress@RakNet@@QEBAX_NPEADD@Z @4657
?ToUint32@RakNetGUID@RakNet@@SAKAEBU12@@Z @4658
?ToUint32@TM_Team@RakNet@@SAKAEB_K@Z @4659
?ToUint32@TM_TeamMember@RakNet@@SAKAEB_K@Z @4660
?ToUpper@RakString@RakNet@@IEAAEE@Z @4661
?ToUpper@RakString@RakNet@@QEAAPEBDXZ @4662
?ToWideChar@RakString@RakNet@@QEAAPEA_WXZ @4663
?TrackNetworkIDObject@NetworkIDManager@RakNet@@IEAAXPEAVNetworkIDObject@2@@Z @4664
?TrackedObjectComp@StatisticsHistory@RakNet@@SAHAEB_KAEBQEAUTrackedObject@12@@Z @4665
?Transform@CSHA1@@AEAAXPEAIPEBE@Z @4666
?TransmitRequest@HTTPConnection2@RakNet@@QEAA_NPEBD0G_NHUSystemAddress@2@PEAX@Z @4667
?Truncate@RakString@RakNet@@QEAAXI@Z @4668
?TruncateUTF8@RakString@RakNet@@QEAAXI@Z @4669
?TryNextServer@UDPProxyCoordinator@RakNet@@IEAAXUSenderAndTargetAddress@12@PEAUForwardingRequest@12@@Z @4670
?URLDecode@RakString@RakNet@@QEAAAEAV12@XZ @4671
?URLEncode@RakString@RakNet@@QEAAAEAV12@XZ @4672
?Unlock@SimpleMutex@RakNet@@QEAAXXZ @4673
?UnlockInput@?$ThreadPool@UThreadData@FileListTransfer@RakNet@@H@@QEAAXXZ @4674
?UnlockMutex@RakString@RakNet@@SAXXZ @4675
?UnregisterBlockingFunction@RPC4@RakNet@@QEAA_NPEBD@Z @4676
?UnregisterFunction@RPC4@RakNet@@QEAA_NPEBD@Z @4677
?UnregisterLocalCallback@RPC4@RakNet@@QEAA_NPEBDE@Z @4678
?UnregisterSlot@RPC4@RakNet@@QEAA_NPEBD@Z @4679
?Unsubscribe@CloudClient@RakNet@@UEAAXAEAV?$List@UCloudKey@RakNet@@@DataStructures@@AEAV?$List@PEAUCloudQueryRow@RakNet@@@4@URakNetGUID@2@@Z @4680
?Unsubscribe@CloudClient@RakNet@@UEAAXAEAV?$List@UCloudKey@RakNet@@@DataStructures@@AEAV?$List@URakNetGUID@RakNet@@@4@URakNetGUID@2@@Z @4681
?Unsubscribe@CloudClient@RakNet@@UEAAXAEAV?$List@UCloudKey@RakNet@@@DataStructures@@URakNetGUID@2@@Z @4682
?Unsubscribe@LogCommandParser@RakNet@@IEAAIAEBUSystemAddress@2@PEBD@Z @4683
?UnsubscribeFromKey@CloudServer@RakNet@@IEAAXPEAURemoteCloudClient@12@URakNetGUID@2@IAEAUCloudKey@2@AEAV?$List@URakNetGUID@RakNet@@@DataStructures@@@Z @4684
?Update@CSHA1@@QEAAXPEBEI@Z @4685
?Update@CloudServer@RakNet@@MEAAXXZ @4686
?Update@ConsoleServer@RakNet@@QEAAXXZ @4687
?Update@DynDNS@RakNet@@QEAAXXZ @4688
?Update@FileListTransfer@RakNet@@UEAAXXZ @4689
?Update@HTTPConnection@RakNet@@QEAAXXZ @4690
?Update@MessageFilter@RakNet@@UEAAXXZ @4691
?Update@NatPunchthroughClient@RakNet@@UEAAXXZ @4692
?Update@NatPunchthroughServer@RakNet@@UEAAXXZ @4693
?Update@NatTypeDetectionClient@RakNet@@UEAAXXZ @4694
?Update@NatTypeDetectionServer@RakNet@@UEAAXXZ @4695
?Update@NonceGenerator@TwoWayAuthentication@RakNet@@QEAAX_K@Z @4696
?Update@PluginInterface2@RakNet@@UEAAXXZ @4697
?Update@RakVoice@RakNet@@UEAAXXZ @4698
?Update@ReplicaManager3@RakNet@@UEAAXXZ @4699
?Update@Router2@RakNet@@UEAAXXZ @4700
?Update@StatisticsHistoryPlugin@RakNet@@MEAAXXZ @4701
?Update@TeamManager@RakNet@@MEAAXXZ @4702
?Update@ThreadsafePacketLogger@RakNet@@UEAAXXZ @4703
?Update@TwoWayAuthentication@RakNet@@UEAAXXZ @4704
?Update@UDPProxyClient@RakNet@@UEAAXXZ @4705
?Update@UDPProxyCoordinator@RakNet@@UEAAXXZ @4706
?Update@UDPProxyServer@RakNet@@UEAAXXZ @4707
?UpdateCell@Row@Table@DataStructures@@QEAAXIHPEBD@Z @4708
?UpdateCell@Row@Table@DataStructures@@QEAAXIN@Z @4709
?UpdateCell@Row@Table@DataStructures@@QEAAXIPEBD@Z @4710
?UpdateCell@Table@DataStructures@@QEAA_NIIH@Z @4711
?UpdateCell@Table@DataStructures@@QEAA_NIIHPEAD@Z @4712
?UpdateCell@Table@DataStructures@@QEAA_NIIPEAD@Z @4713
?UpdateCellByIndex@Table@DataStructures@@QEAA_NIIH@Z @4714
?UpdateCellByIndex@Table@DataStructures@@QEAA_NIIHPEAD@Z @4715
?UpdateCellByIndex@Table@DataStructures@@QEAA_NIIPEAD@Z @4716
?UpdateForwarding@Router2@RakNet@@IEAA_NPEAUConnnectRequest@12@@Z @4717
?UpdateHostIPAsynch@DynDNS@RakNet@@QEAAXPEBD00@Z @4718
?UpdateListsToNoTeam@TM_TeamMember@RakNet@@IEAAXE@Z @4719
?UpdateServerNameOrPassword@Rackspace@RakNet@@QEAAXVRakString@2@00@Z @4720
?UpdateTeamsRequestedToAny@TM_TeamMember@RakNet@@IEAAXXZ @4721
?UpdateTeamsRequestedToNone@TM_TeamMember@RakNet@@IEAAXXZ @4722
?UpdateUDPForwarder@UDPForwarder@RakNet@@IEAAXXZ @4723
?UpdateVerifiedJoinInProgressMember@FullyConnectedMesh2@RakNet@@IEAAXUAddressOrGUID@2@URakNetGUID@2@W4JoinInProgressState@12@@Z @4724
?UpdatedVariablesListPtrComp@VariableDeltaSerializer@RakNet@@KAHAEBIAEBQEAUChangedVariablesList@12@@Z @4725
?UserIDTOString@PacketLogger@RakNet@@MEAAPEBDE@Z @4726
?UsesReliabilityLayer@PacketLogger@RakNet@@MEBA_NXZ @4727
?UsesReliabilityLayer@PluginInterface2@RakNet@@UEBA_NXZ @4728
?VARIABLE_NUMBER_OF_PARAMETERS@CommandParserInterface@RakNet@@2EB @4729
?ValidateLists@Connection_RM3@RakNet@@IEBAXPEAVReplicaManager3@2@@Z @4730
?ValidateRemoteSystemLookup@RakPeer@RakNet@@IEBAXXZ @4731
?WaitOnEvent@SignaledEvent@RakNet@@QEAAXH@Z @4732
?WasReferenced@Replica3@RakNet@@QEBA_NXZ @4733
?WasResultSuccessful@DynDNS@RakNet@@QEBA_NXZ @4734
?WasStarted@?$ThreadPool@UThreadData@FileListTransfer@RakNet@@H@@QEAA_NXZ @4735
?WasStarted@TCPInterface@RakNet@@QEBA_NXZ @4736
?WeAreHost@TeamBalancer@RakNet@@IEBA_NXZ @4737
?Write0@BitStream@RakNet@@QEAAXXZ @4738
?Write1@BitStream@RakNet@@QEAAXXZ @4739
?Write@BitStream@RakNet@@QEAAXAEAV12@@Z @4740
?Write@BitStream@RakNet@@QEAAXAEAV12@I@Z @4741
?Write@BitStream@RakNet@@QEAAXPEAV12@@Z @4742
?Write@BitStream@RakNet@@QEAAXPEAV12@I@Z @4743
?Write@BitStream@RakNet@@QEAAXPEBDI@Z @4744
?Write@BitStream@RakNet@@QEAAXQEAD@Z @4745
?Write@BitStream@RakNet@@QEAAXQEAE@Z @4746
?Write@BitStream@RakNet@@QEAAXQEBD@Z @4747
?Write@BitStream@RakNet@@QEAAXQEBE@Z @4748
?Write@BitStream@RakNet@@QEAAXQEB_W@Z @4749
?WriteAlignedBytes@BitStream@RakNet@@QEAAXPEBEI@Z @4750
?WriteAlignedBytesSafe@BitStream@RakNet@@QEAAXPEBDII@Z @4751
?WriteAlignedVar16@BitStream@RakNet@@QEAAXPEBD@Z @4752
?WriteAlignedVar32@BitStream@RakNet@@QEAAXPEBD@Z @4753
?WriteAlignedVar8@BitStream@RakNet@@QEAAXPEBD@Z @4754
?WriteBits@BitStream@RakNet@@QEAAXPEBEI_N@Z @4755
?WriteCloudQueryRowFromResultList@CloudServer@RakNet@@IEAAXAEAV?$List@PEAUCloudData@CloudServer@RakNet@@@DataStructures@@AEAV?$List@UCloudKey@RakNet@@@4@PEAVBitStream@2@@Z @4756
?WriteCloudQueryRowFromResultList@CloudServer@RakNet@@IEAAXIAEAV?$List@PEAUCloudData@CloudServer@RakNet@@@DataStructures@@AEAV?$List@UCloudKey@RakNet@@@4@PEAVBitStream@2@@Z @4757
?WriteCompressed@BitStream@RakNet@@AEAAXPEBEI_N@Z @4758
?WriteCompressed@BitStream@RakNet@@QEAAXQEAD@Z @4759
?WriteCompressed@BitStream@RakNet@@QEAAXQEAE@Z @4760
?WriteCompressed@BitStream@RakNet@@QEAAXQEBD@Z @4761
?WriteCompressed@BitStream@RakNet@@QEAAXQEBE@Z @4762
?WriteCompressed@BitStream@RakNet@@QEAAXQEB_W@Z @4763
?WriteDataToDisk@FileList@RakNet@@QEAAXPEBD@Z @4764
?WriteFileWithDirectories@@YA_NPEBDPEADI@Z @4765
?WriteFloat16@BitStream@RakNet@@QEAAXMMM@Z @4766
?WriteLock@?$SingleProducerConsumer@PEAD@DataStructures@@QEAAPEAPEADXZ @4767
?WriteLog@LogCommandParser@RakNet@@QEAAXPEBD0ZZ @4768
?WriteLog@PacketConsoleLogger@RakNet@@UEAAXPEBD@Z @4769
?WriteLog@PacketFileLogger@RakNet@@UEAAXPEBD@Z @4770
?WriteLog@PacketLogger@RakNet@@UEAAXPEBD@Z @4771
?WriteLog@PacketOutputWindowLogger@RakNet@@UEAAXPEBD@Z @4772
?WriteMiscellaneous@PacketLogger@RakNet@@UEAAXPEBD0@Z @4773
?WriteOutOfBandHeader@RakPeer@RakNet@@UEAAXPEAVBitStream@2@@Z @4774
?WriteOutputToChannel@RakVoice@RakNet@@IEAAXPEAUVoiceBuffer@2@PEADH@Z @4775
?WriteUnlock@?$SingleProducerConsumer@PEAD@DataStructures@@QEAAXXZ @4776
?WriteVJCUserData@FullyConnectedMesh2@RakNet@@UEAAXPEAVBitStream@2@@Z @4777
?WriteVJSUserData@FullyConnectedMesh2@RakNet@@UEAAXPEAVBitStream@2@URakNetGUID@2@@Z @4778
?WriteVerifiedJoinCapable@FullyConnectedMesh2@RakNet@@IEAAXPEAVBitStream@2@PEAUVerifiedJoinInProgress@12@@Z @4779
?_DLMallocDirectMMap@RakNet@@YAPEAX_K@Z @4780
?_DLMallocMMap@RakNet@@YAPEAX_K@Z @4781
?_DLMallocMUnmap@RakNet@@YAHPEAX_K@Z @4782
?_RakFree@RakNet@@YAXPEAX@Z @4783
?_RakFree_Ex@RakNet@@YAXPEAXPEBDI@Z @4784
?_RakMalloc@RakNet@@YAPEAX_K@Z @4785
?_RakMalloc_Ex@RakNet@@YAPEAX_KPEBDI@Z @4786
?_RakRealloc@RakNet@@YAPEAXPEAX_K@Z @4787
?_RakRealloc_Ex@RakNet@@YAPEAXPEAX_KPEBDI@Z @4788
?dlMallocDirectMMap@@3P6APEAX_K@ZEA @4789
?dlMallocMMap@@3P6APEAX_K@ZEA @4790
?dlMallocMUnmap@@3P6AHPEAX_K@ZEA @4791
?emptyString@RakString@RakNet@@2USharedString@12@A @4792
?fillBufferMT@@YAXPEAXI@Z @4793
?frandomMT@@YAMXZ @4794
?freeList@RakString@RakNet@@2V?$List@PEAUSharedString@RakString@RakNet@@@DataStructures@@A @4795
?i@?1???4BitStream@RakNet@@AEAAAEAV12@AEBV12@@Z@4V12@A @4796
?instance@StringCompressor@RakNet@@0PEAV12@EA @4797
?instance@StringTable@RakNet@@1PEAV12@EA @4798
?notifyOutOfMemory@@3P6AXPEBDJ@ZEA @4799
?rakFree@@3P6AXPEAX@ZEA @4800
?rakFree_Ex@@3P6AXPEAXPEBDI@ZEA @4801
?rakMalloc@@3P6APEAX_K@ZEA @4802
?rakMalloc_Ex@@3P6APEAX_KPEBDI@ZEA @4803
?rakRealloc@@3P6APEAXPEAX_K@ZEA @4804
?rakRealloc_Ex@@3P6APEAXPEAX_KPEBDI@ZEA @4805
?randomMT@@YAIXZ @4806
?referenceCount@StringCompressor@RakNet@@0HA @4807
?referenceCount@StringTable@RakNet@@1HA @4808
?reloadMT@@YAIXZ @4809
?seedMT@@YAXI@Z @4810
?size@RakNetGUID@RakNet@@SAHXZ @4811
?size@SystemAddress@RakNet@@SAHXZ @4812
